 Sciw

 Timestamp is 5cdd0ae3 (Thu May 16 03:01:55 2019)

 Preferred load address is 00400000

 Start         Length     Name                   Class
 0001:00000000 000e1f72H .text                   CODE
 0001:000e1f80 00008b4bH .text$x                 CODE
 0002:00000000 0000109eH CODESEG                 CODE
 0003:00000000 000008d4H .idata$5                DATA
 0003:000008d8 0000d08cH .rdata                  DATA
 0003:0000d968 0000008cH .rdata$r                DATA
 0003:0000d9f8 0000bb30H .xdata$x                DATA
 0003:00019528 00000104H .idata$2                DATA
 0003:0001962c 00000014H .idata$3                DATA
 0003:00019640 000008d4H .idata$4                DATA
 0003:00019f14 00002138H .idata$6                DATA
 0003:0001c050 0000005dH .edata                  DATA
 0004:00000000 00000004H .CRT$XCA                DATA
 0004:00000004 00000004H .CRT$XCL                DATA
 0004:00000008 00000104H .CRT$XCU                DATA
 0004:0000010c 00000004H .CRT$XCZ                DATA
 0004:00000110 00000004H .CRT$XIA                DATA
 0004:00000114 00000004H .CRT$XIZ                DATA
 0004:00000120 0001ff51H .data                   DATA
 0004:00020078 0006c838H .bss                    DATA
 0005:00000000 00000868H .rsrc$01                DATA
 0005:00000870 0000b6a0H .rsrc$02                DATA

  Address         Publics by Value              Rva+Base     Lib:Object

 0001:00000000       ?KArgList@@YAXPAF@Z        00401000 f   Arglist.obj
 0001:00000210       ?Free@MemID@@QAEXXZ        00401210 f i Arglist.obj
 0001:00000250       ??BMemID@@QBEGXZ           00401250 f i Arglist.obj
 0001:00000270       ??DTextID@@QAEPADXZ        00401270 f i Arglist.obj
 0001:000002a0       ??DMemID@@QBEPAXXZ         004012a0 f i Arglist.obj
 0001:000002c0       ?GetAddr@MemoryMgr@@QAEPAXG@Z 004012c0 f i Arglist.obj
 0001:000002e0       ?Get@TextID@@QAEXII@Z      004012e0 f i Arglist.obj
 0001:00000310       ?Get@MemID@@QAEXW4MemType@@IIIPAUMemClient@@DW4ReservedHandle@@@Z 00401310 f i Arglist.obj
 0001:00000350       ?KArray@@YAXPAF@Z          00401350 f   Array.obj
 0001:00000800       ?size@Array@@QAEGXZ        00401800 f   Array.obj
 0001:0000084c       ?elementSize@Array@@QAEGXZ 0040184c f   Array.obj
 0001:00000888       ?checkBounds@Array@@QAEHH@Z 00401888 f   Array.obj
 0001:000008c2       ?calcAddress@Array@@QAEPAXH@Z 004018c2 f   Array.obj
 0001:000009c8       ?resize@Array@@QAEXH@Z     004019c8 f   Array.obj
 0001:00000ad3       ?at@Array@@QAEHH@Z         00401ad3 f   Array.obj
 0001:00000b73       ?at@Array@@QAEXHH@Z        00401b73 f   Array.obj
 0001:00000c0b       ?at@Array@@QAEXHHPAX@Z     00401c0b f   Array.obj
 0001:00000d1a       ?fill@Array@@QAEXHHH@Z     00401d1a f   Array.obj
 0001:00000e33       ?copy@Array@@QAEXHVMemID@@HH@Z 00401e33 f   Array.obj
 0001:00000f6f       ?copy@Array@@QAEXHPAXHH@Z  00401f6f f   Array.obj
 0001:00001006       ?insert@Array@@QAEXHH@Z    00402006 f   Array.obj
 0001:0000104f       ?del@Array@@QAEXH@Z        0040204f f   Array.obj
 0001:000010d0       ?ValidateArray@@YAXVMemID@@PADH@Z 004020d0 f i Array.obj
 0001:00001130       ??0MemID@@QAE@ABV0@@Z      00402130 f i Array.obj
 0001:00001150       ??0MemID@@QAE@G@Z          00402150 f i Array.obj
 0001:00001170       ?IsValid@MemID@@QBEHXZ     00402170 f i Array.obj
 0001:00001190       ?IsValid@MemoryMgr@@QAEHG@Z 00402190 f i Array.obj
 0001:00001220       ?Duplicate@MemID@@QAE?AV1@XZ 00402220 f i Array.obj
 0001:00001290       ??0MemID@@QAE@XZ           00402290 f i Array.obj
 0001:000012b0       ??0ArrayID@@QAE@G@Z        004022b0 f i Array.obj
 0001:000012b0       ??0ScrollEntryID@@QAE@G@Z  004022b0 f i Array.obj
 0001:000012b0       ??0ScrollWindowID@@QAE@G@Z 004022b0 f i Array.obj
 0001:000012b0       ??0ObjectID@@QAE@G@Z       004022b0 f i Array.obj
 0001:000012b0       ??0SOL_ListID@@QAE@G@Z     004022b0 f i Array.obj
 0001:000012d0       ??0FakeScrollWindowID@@QAE@G@Z 004022d0 f i Array.obj
 0001:000012d0       ??0FakeArrayID@@QAE@G@Z    004022d0 f i Array.obj
 0001:000012d0       ??0ScriptID@@QAE@G@Z       004022d0 f i Array.obj
 0001:000012d0       ??0FakeObjectID@@QAE@G@Z   004022d0 f i Array.obj
 0001:000012d0       ??0FakeScrollEntryID@@QAE@G@Z 004022d0 f i Array.obj
 0001:000012d0       ??0FakeSOL_ListID@@QAE@G@Z 004022d0 f i Array.obj
 0001:000012f0       ??0ArrayID@@QAE@HW4ArrayType@@@Z 004022f0 f i Array.obj
 0001:00001350       ?Get@ArrayID@@QAEXI@Z      00402350 f i Array.obj
 0001:00001380       ??0Array@@QAE@XZ           00402380 f i Array.obj
 0001:000013b0       ??0Array@@QAE@VMemID@@@Z   004023b0 f i Array.obj
 0001:000013e0       ?memType@Array@@QAE?AW4MemType@@XZ 004023e0 f i Array.obj
 0001:00001400       ?dataID@Array@@QAE?AVMemID@@XZ 00402400 f i Array.obj
 0001:00001420       ?dataID@Array@@QAEXVMemID@@@Z 00402420 f i Array.obj
 0001:00001440       ??0VariableID@@QAE@XZ      00402440 f i Array.obj
 0001:00001440       ??0ObjectID@@QAE@XZ        00402440 f i Array.obj
 0001:00001440       ??0SOL_ListID@@QAE@XZ      00402440 f i Array.obj
 0001:00001440       ??0ArrayID@@QAE@XZ         00402440 f i Array.obj
 0001:00001440       ??0ScriptEntryID@@QAE@XZ   00402440 f i Array.obj
 0001:00001440       ??0DispatchTblID@@QAE@XZ   00402440 f i Array.obj
 0001:00001440       ??0ClassTblID@@QAE@XZ      00402440 f i Array.obj
 0001:00001440       ??0ScrollWindowID@@QAE@XZ  00402440 f i Array.obj
 0001:00001440       ??0ResTagID@@QAE@XZ        00402440 f i Array.obj
 0001:00001440       ??0ScrollEntryID@@QAE@XZ   00402440 f i Array.obj
 0001:00001460       ?IsObject@ObjectID@@QBEHXZ 00402460 f i Array.obj
 0001:000014a0       ?GetProperty@ObjectID@@QBEFG@Z 004024a0 f i Array.obj
 0001:000014d0       ?GetProperty@Object@@QAEFG@Z 004024d0 f i Array.obj
 0001:000014f0       ?GetPropAddrCheck@Object@@QAEPAFG@Z 004024f0 f i Array.obj
 0001:00001540       ?GetPropAddr@Object@@QAEPAFG@Z 00402540 f i Array.obj
 0001:000015a0       ??AObject@@QAEAAFH@Z       004025a0 f i Array.obj
 0001:000015c0       ??CScriptHeapID@@QBEPAUScriptHeap@@XZ 004025c0 f i Array.obj
 0001:000015c0       ??CFakeClassTblID@@QBEPAUClassTbl@@XZ 004025c0 f i Array.obj
 0001:000015c0       ??CScriptID@@QBEPAUScript@@XZ 004025c0 f i Array.obj
 0001:000015c0       ??DMsgStackID@@QBEPAUMsgStack@@XZ 004025c0 f i Array.obj
 0001:000015c0       ??DFakeObjectID@@QBEPAUObject@@XZ 004025c0 f i Array.obj
 0001:000015c0       ??CViewHeaderID@@QBEPAUViewHeader@@XZ 004025c0 f i Array.obj
 0001:000015c0       ??DFakeDispatchTblID@@QBEPAUDispatchTbl@@XZ 004025c0 f i Array.obj
 0001:000015c0       ??CFakeSOL_ListID@@QBEPAVSOL_List@@XZ 004025c0 f i Array.obj
 0001:000015c0       ??DFakeArrayID@@QBEPAUArrayHeader@@XZ 004025c0 f i Array.obj
 0001:000015c0       ??CFakeScrollWindowID@@QBEPAVSCIScrollWindow@@XZ 004025c0 f i Array.obj
 0001:000015c0       ??DFakeScriptEntryID@@QBEPAUScriptEntry@@XZ 004025c0 f i Array.obj
 0001:000015c0       ??DScriptHunkID@@QBEPAUScriptHunk@@XZ 004025c0 f i Array.obj
 0001:000015c0       ??DFakeResTagID@@QBEPAUResTag@@XZ 004025c0 f i Array.obj
 0001:000015c0       ??DFakeSOL_ListID@@QBEPAVSOL_List@@XZ 004025c0 f i Array.obj
 0001:000015c0       ??CFakeObjectID@@QBEPAUObject@@XZ 004025c0 f i Array.obj
 0001:000015c0       ??CScriptHunkID@@QBEPAUScriptHunk@@XZ 004025c0 f i Array.obj
 0001:000015c0       ??CFakeArrayID@@QBEPAUArrayHeader@@XZ 004025c0 f i Array.obj
 0001:000015c0       ??DFakeScrollWindowID@@QBEPAVSCIScrollWindow@@XZ 004025c0 f i Array.obj
 0001:000015c0       ??CFakeDispatchTblID@@QBEPAUDispatchTbl@@XZ 004025c0 f i Array.obj
 0001:000015c0       ??DScriptID@@QBEPAUScript@@XZ 004025c0 f i Array.obj
 0001:000015e0       ?AssureValid@ObjectID@@QBEXXZ 004025e0 f i Array.obj
 0001:00001620       ??0BufferStd@@QAE@HHPAE@Z  00402620 f   Bufferd.obj
 0001:00001652       ??0BufferStd@@QAE@ABV0@@Z  00402652 f   Bufferd.obj
 0001:00001683       ??4BufferStd@@QAEAAV0@ABV0@@Z 00402683 f   Bufferd.obj
 0001:000016a0       ??0Buffer@@IAE@HH@Z        004026a0 f i Bufferd.obj
 0001:000016d0       ?IsNull@BufferWin@@UBEHXZ  004026d0 f i Bufferd.obj
 0001:000016d0       ?IsColored@SOL_Plane@@QBEHXZ 004026d0 f i Bufferd.obj
 0001:000016d0       ?IsNull@BufferStd@@UBEHXZ  004026d0 f i Bufferd.obj
 0001:000016f0       ?Addr@BufferStd@@UBEPAEHH@Z 004026f0 f i Bufferd.obj
 0001:00001720       ??0Buffer@@IAE@ABV0@@Z     00402720 f i Bufferd.obj
 0001:00001760       ??0BufferWin@@QAE@HHPAE@Z  00402760 f   Bufferw.obj
 0001:00001792       ??0BufferWin@@QAE@ABV0@@Z  00402792 f   Bufferw.obj
 0001:000017c3       ??4BufferWin@@QAEAAV0@ABV0@@Z 004027c3 f   Bufferw.obj
 0001:000017e0       ?Clear@BufferStd@@UBEXE@Z  004027e0 f i Bufferw.obj
 0001:000017e0       ?Clear@BufferWin@@UBEXE@Z  004027e0 f i Bufferw.obj
 0001:00001820       ?Addr@BufferWin@@UBEPAEHH@Z 00402820 f i Bufferw.obj
 0001:000018ac       ?ValidateControlTable@@YAXVMemID@@HHHPADH@Z 004028ac f   Celobj.obj
 0001:00001a9c       ?ValidateControlTable@@YAXHHHPADH@Z 00402a9c f   Celobj.obj
 0001:00001af5       ?CheckBuffer@@YAHPAJ0PAEH@Z 00402af5 f   Celobj.obj
 0001:00001aff       ?ValidateView@@YAXVMemID@@HPADH@Z 00402aff f   Celobj.obj
 0001:00001c30       ?CheckView@@YAHVMemID@@@Z  00402c30 f   Celobj.obj
 0001:00001d96       ?ValidateViews@@YAXPADH@Z  00402d96 f   Celobj.obj
 0001:00001e0a       ??0CelObj@@QAE@ABV0@@Z     00402e0a f   Celobj.obj
 0001:00001eed       ??8CelObj@@QBEHABV0@@Z     00402eed f   Celobj.obj
 0001:00001fad       ?SearchCache@CelObj@@QBEHVBitmap@@PAH@Z 00402fad f   Celobj.obj
 0001:00002041       ?FindReplacementEntryInCache@CelObj@@QBEHXZ 00403041 f   Celobj.obj
 0001:000020c4       ?PutCopyInCache@CelObj@@QAEXXZ 004030c4 f   Celobj.obj
 0001:00002159       ?SubmitPalette@CelObj@@QAEXXZ 00403159 f   Celobj.obj
 0001:000021c2       ?Draw@CelObj@@QAEXABVBuffer@@ABVScreenItem@@ABVSOL_Rect@@@Z 004031c2 f   Celobj.obj
 0001:000028b1       ?DrawTo@CelObj@@QAEXABVBuffer@@ABVSOL_Rect@@VSOL_Point@@VRatio@@3@Z 004038b1 f   Celobj.obj
 0001:00002b19       ?AnalyzeForRemap@CelObjView@@QAEHXZ 00403b19 f   Celobj.obj
 0001:00002d4b       ?AnalyzeUncompForRemap@CelObjView@@QAEHXZ 00403d4b f   Celobj.obj
 0001:00002e32       ?AnalyzeForSkip@CelObjPic@@IAEHXZ 00403e32 f   Celobj.obj
 0001:00002fa2       ?AnalyzeUncompForSkip@CelObjPic@@IAEHXZ 00403fa2 f   Celobj.obj
 0001:0000304a       ?ScaleTables@CelObj@@QAEXABVRatio@@0@Z 0040404a f   Celobj.obj
 0001:00003282       ?DoTable@CelObj@@QAEXPAHABVRatio@@@Z 00404282 f   Celobj.obj
 0001:000032fe       ?ReadPix@CelObj@@UAEEHHH@Z 004042fe f   Celobj.obj
 0001:000034f9       ?ReadLineSpan@CelObj@@QAE?AVSOL_Rect@@H@Z 004044f9 f   Celobj.obj
 0001:00003706       ?CompareLinkArray@@YAHPBX0@Z 00404706 f   Celobj.obj
 0001:0000374e       ?GetFirstLink@CelObj@@QAEFXZ 0040474e f   Celobj.obj
 0001:0000385e       ?GetNextLink@CelObj@@QAEFH@Z 0040485e f   Celobj.obj
 0001:000039c5       ?GetLinkPoint@CelObj@@QAEFHH@Z 004049c5 f   Celobj.obj
 0001:00003b2e       ?ResPointer@CelObjView@@UAEPAEXZ 00404b2e f   Celobj.obj
 0001:00003b77       ?Draw@CelObjView@@UAEXABVBuffer@@ABVScreenItem@@ABVSOL_Rect@@H@Z 00404b77 f   Celobj.obj
 0001:00003ba1       ?Draw@CelObjView@@UAEXABVBuffer@@ABVSOL_Rect@@VSOL_Point@@H@Z 00404ba1 f   Celobj.obj
 0001:00003c01       ?Draw@CelObjView@@QAEXABVBuffer@@ABVSOL_Rect@@VSOL_Point@@HVRatio@@3@Z 00404c01 f   Celobj.obj
 0001:00003c53       ??0CelObjView@@QAE@HHH@Z   00404c53 f   Celobj.obj
 0001:000040fe       ??0CelObjMem@@QAE@VMemID@@@Z 004050fe f   Celobj.obj
 0001:00004249       ?ResPointer@CelObjMem@@UAEPAEXZ 00405249 f   Celobj.obj
 0001:000042eb       ?Draw@CelObjMem@@UAEXABVBuffer@@ABVScreenItem@@ABVSOL_Rect@@H@Z 004052eb f   Celobj.obj
 0001:00004315       ?Draw@CelObjMem@@QAEXABVBuffer@@ABVSOL_Rect@@VSOL_Point@@HVRatio@@3@Z 00405315 f   Celobj.obj
 0001:00004367       ?Draw@CelObjMem@@UAEXABVBuffer@@ABVSOL_Rect@@VSOL_Point@@H@Z 00405367 f   Celobj.obj
 0001:000043c7       ?CreateHBitmap@CelObj@@QAEPAUHBITMAP__@@NPAK@Z 004053c7 f   Celobj.obj
 0001:0000440a       ?CreateHBitmap@CelObj@@QAEPAUHBITMAP__@@NAAVRatio@@0PAK@Z 0040540a f   Celobj.obj
 0001:00004a0c       ??0CelObjColor@@QAE@EHH@Z  00405a0c f   Celobj.obj
 0001:00004a89       ?Draw@CelObjColor@@UAEXABVBuffer@@ABVScreenItem@@ABVSOL_Rect@@H@Z 00405a89 f   Celobj.obj
 0001:00004aaf       ?Draw@CelObjColor@@QAEXABVBuffer@@ABVSOL_Rect@@@Z 00405aaf f   Celobj.obj
 0001:00004b3a       ?Draw@CelObjColor@@UAEXABVBuffer@@ABVSOL_Rect@@VSOL_Point@@H@Z 00405b3a f   Celobj.obj
 0001:00004b66       ?ResPointer@CelObjColor@@MAEPAEXZ 00405b66 f   Celobj.obj
 0001:00004b92       ??0CelObjPic@@QAE@HH@Z     00405b92 f   Celobj.obj
 0001:00004ee5       ??0CelObjPic@@QAE@ABV0@@Z  00405ee5 f   Celobj.obj
 0001:00004f6c       ?Draw@CelObjPic@@UAEXABVBuffer@@ABVScreenItem@@ABVSOL_Rect@@H@Z 00405f6c f   Celobj.obj
 0001:00004f96       ?Draw@CelObjPic@@UAEXABVBuffer@@ABVSOL_Rect@@VSOL_Point@@H@Z 00405f96 f   Celobj.obj
 0001:00004ff6       ?ResPointer@CelObjPic@@MAEPAEXZ 00405ff6 f   Celobj.obj
 0001:00005040       ??1CelObjArray@CelObj@@QAE@XZ 00406040 f i Celobj.obj
 0001:00005060       ??0CelObjArray@CelObj@@QAE@XZ 00406060 f i Celobj.obj
 0001:00005090       ?size@SOL_List@@QAEAAHXZ   00406090 f i Celobj.obj
 0001:000050b0       ??_H@YGXPAXIHP6EX0@Z@Z     004060b0 f i Celobj.obj
 0001:000050e0       ??0Bitmap@@QAE@ABV0@@Z     004060e0 f i Celobj.obj
 0001:00005140       ??4CelObjView@@QAEAAV0@ABV0@@Z 00406140 f i Celobj.obj
 0001:00005160       ??4CelObj@@QAEAAV0@ABV0@@Z 00406160 f i Celobj.obj
 0001:00005230       ??4CelObjPic@@QAEAAV0@ABV0@@Z 00406230 f i Celobj.obj
 0001:00005280       ??1CelObjColor@@UAE@XZ     00406280 f i Celobj.obj
 0001:00005280       ??1CelObjView@@UAE@XZ      00406280 f i Celobj.obj
 0001:00005280       ??1CelObjPic@@UAE@XZ       00406280 f i Celobj.obj
 0001:00005280       ??1CelObjMem@@UAE@XZ       00406280 f i Celobj.obj
 0001:000052a0       ?CheckValid@MemoryMgr@@QAEXG@Z 004062a0 f i Celobj.obj
 0001:000052d0       ??0SOL_Point@@QAE@XZ       004062d0 f i Celobj.obj
 0001:00005300       ??4SOL_Point@@QAEAAV0@ABV0@@Z 00406300 f i Celobj.obj
 0001:00005300       ??0SOL_Point@@QAE@ABV0@@Z  00406300 f i Celobj.obj
 0001:00005330       ??0?$_com_ptr_t@V?$_com_IIID@UISkinForm@@$1?_GUID_972de6c1_8b09_11d2_b652_a1fd6cc34260@@3U__s_GUID@@A@@@@QAE@XZ 00406330 f i Celobj.obj
 0001:00005330       ??0HunkPalette@@QAE@XZ     00406330 f i Celobj.obj
 0001:00005350       ??0Ratio@@QAE@XZ           00406350 f i Celobj.obj
 0001:00005380       ??0Ratio@@QAE@H@Z          00406380 f i Celobj.obj
 0001:000053b0       ?IsOne@Ratio@@QBEHXZ       004063b0 f i Celobj.obj
 0001:000053d0       ??0Bitmap@@QAE@XZ          004063d0 f i Celobj.obj
 0001:00005410       ?IsPic@Bitmap@@QBEHXZ      00406410 f i Celobj.obj
 0001:00005430       ?Color@Bitmap@@QBEHXZ      00406430 f i Celobj.obj
 0001:00005450       ?Handle@Bitmap@@QBE?AVMemID@@XZ 00406450 f i Celobj.obj
 0001:00005470       ?SetLoop@Bitmap@@QAEXH@Z   00406470 f i Celobj.obj
 0001:00005490       ??1CelObj@@UAE@XZ          00406490 f i Celobj.obj
 0001:000054b0       ?Skip@CelObj@@QBEEXZ       004064b0 f i Celobj.obj
 0001:000054d0       ??0CelObj@@QAE@HHH@Z       004064d0 f i Celobj.obj
 0001:00005530       ??0Bitmap@@QAE@HHH@Z       00406530 f i Celobj.obj
 0001:00005570       ??0CelObj@@QAE@HH@Z        00406570 f i Celobj.obj
 0001:000055d0       ??0Bitmap@@QAE@HH@Z        004065d0 f i Celobj.obj
 0001:00005610       ??0CelObj@@QAE@VMemID@@@Z  00406610 f i Celobj.obj
 0001:00005670       ??0Bitmap@@QAE@VMemID@@@Z  00406670 f i Celobj.obj
 0001:000056c0       ??0CelObj@@QAE@E@Z         004066c0 f i Celobj.obj
 0001:000056f0       ??0Bitmap@@QAE@E@Z         004066f0 f i Celobj.obj
 0001:00005740       ??0CelObjArrayItem@CelObjArray@CelObj@@QAE@XZ 00406740 f i Celobj.obj
 0001:00005770       ??ACelObjArray@CelObj@@QAEAAUCelObjArrayItem@01@H@Z 00406770 f i Celobj.obj
 0001:00005790       ??_GCelObj@@UAEPAXI@Z      00406790 f i Celobj.obj
 0001:00005790       ??_ECelObj@@UAEPAXI@Z      00406790 f i Celobj.obj
 0001:000057c0       ?Duplicate@CelObjView@@UBEPAVCelObj@@XZ 004067c0 f i Celobj.obj
 0001:00005830       ??0CelObjView@@QAE@ABV0@@Z 00406830 f i Celobj.obj
 0001:00005860       ??_ECelObjMem@@UAEPAXI@Z   00406860 f i Celobj.obj
 0001:00005860       ??_GCelObjPic@@UAEPAXI@Z   00406860 f i Celobj.obj
 0001:00005860       ??_GCelObjColor@@UAEPAXI@Z 00406860 f i Celobj.obj
 0001:00005860       ??_ECelObjView@@UAEPAXI@Z  00406860 f i Celobj.obj
 0001:00005860       ??_GCelObjView@@UAEPAXI@Z  00406860 f i Celobj.obj
 0001:00005860       ??_GCelObjMem@@UAEPAXI@Z   00406860 f i Celobj.obj
 0001:00005860       ??_ECelObjPic@@UAEPAXI@Z   00406860 f i Celobj.obj
 0001:00005860       ??_ECelObjColor@@UAEPAXI@Z 00406860 f i Celobj.obj
 0001:00005890       ?Duplicate@CelObjMem@@UBEPAVCelObj@@XZ 00406890 f i Celobj.obj
 0001:00005900       ??0CelObjMem@@QAE@ABV0@@Z  00406900 f i Celobj.obj
 0001:00005930       ?Duplicate@CelObjPic@@UBEPAVCelObj@@XZ 00406930 f i Celobj.obj
 0001:000059a0       ?Duplicate@CelObjColor@@UBEPAVCelObj@@XZ 004069a0 f i Celobj.obj
 0001:00005a10       ??0CelObjColor@@QAE@ABV0@@Z 00406a10 f i Celobj.obj
 0001:00005a40       ??1CelObjArrayItem@CelObjArray@CelObj@@QAE@XZ 00406a40 f i Celobj.obj
 0001:00005a80       ??8Bitmap@@QBEHABV0@@Z     00406a80 f i Celobj.obj
 0001:00005af0       ??8MemID@@QBEHABV0@@Z      00406af0 f i Celobj.obj
 0001:00005b20       ??0SOL_Rect@@QAE@XZ        00406b20 f i Celobj.obj
 0001:00005b50       ??0SOL_Rect@@QAE@HHHH@Z    00406b50 f i Celobj.obj
 0001:00005ba0       ?Xlen@SOL_Rect@@QBEHXZ     00406ba0 f i Celobj.obj
 0001:00005bc0       ?Ylen@SOL_Rect@@QBEHXZ     00406bc0 f i Celobj.obj
 0001:00005be0       ?Scale@SOL_Rect@@QAEXHHHH@Z 00406be0 f i Celobj.obj
 0001:00005c40       ?ScaleX@ScreenItem@@QBE?AVRatio@@XZ 00406c40 f i Celobj.obj
 0001:00005c60       ?ScaleY@ScreenItem@@QBE?AVRatio@@XZ 00406c60 f i Celobj.obj
 0001:00005c90       ?Y1@ScreenItem@@QBEHXZ     00406c90 f i Celobj.obj
 0001:00005cb0       ??4SOL_Rect@@QAEAAV0@ABV0@@Z 00406cb0 f i Celobj.obj
 0001:00005cb0       ??0SOL_Rect@@QAE@ABV0@@Z   00406cb0 f i Celobj.obj
 0001:00005ce0       ?DrawHzFlip@CelObj@@QAEXABVBuffer@@ABVSOL_Rect@@VSOL_Point@@@Z 00406ce0 f   Celobj1.obj
 0001:000060ba       ?DrawNoFlip@CelObj@@QAEXABVBuffer@@ABVSOL_Rect@@VSOL_Point@@@Z 004070ba f   Celobj1.obj
 0001:0000646b       ?DrawUncompNoFlip@CelObj@@QAEXABVBuffer@@ABVSOL_Rect@@VSOL_Point@@@Z 0040746b f   Celobj1.obj
 0001:000065a3       ?DrawUncompHzFlip@CelObj@@QAEXABVBuffer@@ABVSOL_Rect@@VSOL_Point@@@Z 004075a3 f   Celobj1.obj
 0001:000066f4       ?ScaleDraw@CelObj@@QAEXABVBuffer@@ABVRatio@@1ABVSOL_Rect@@ABVSOL_Point@@@Z 004076f4 f   Celobj1.obj
 0001:00006a6c       ?ScaleDrawUncomp@CelObj@@QAEXABVBuffer@@ABVRatio@@1ABVSOL_Rect@@ABVSOL_Point@@@Z 00407a6c f   Celobj1.obj
 0001:00006c60       ?DrawHzFlipMap@CelObj@@QAEXABVBuffer@@ABVSOL_Rect@@VSOL_Point@@@Z 00407c60 f   Celobj2.obj
 0001:000070e0       ?DrawNoFlipMap@CelObj@@QAEXABVBuffer@@ABVSOL_Rect@@VSOL_Point@@@Z 004080e0 f   Celobj2.obj
 0001:00007530       ?DrawUncompNoFlipMap@CelObj@@QAEXABVBuffer@@ABVSOL_Rect@@VSOL_Point@@@Z 00408530 f   Celobj2.obj
 0001:000076a1       ?DrawUncompHzFlipMap@CelObj@@QAEXABVBuffer@@ABVSOL_Rect@@VSOL_Point@@@Z 004086a1 f   Celobj2.obj
 0001:0000783b       ?ScaleDrawMap@CelObj@@QAEXABVBuffer@@ABVRatio@@1ABVSOL_Rect@@ABVSOL_Point@@@Z 0040883b f   Celobj2.obj
 0001:00007bf7       ?ScaleDrawUncompMap@CelObj@@QAEXABVBuffer@@ABVRatio@@1ABVSOL_Rect@@ABVSOL_Point@@@Z 00408bf7 f   Celobj2.obj
 0001:00007e20       ?DrawHzFlipNoMD@CelObj@@QAEXABVBuffer@@ABVSOL_Rect@@VSOL_Point@@@Z 00408e20 f   Celobja.obj
 0001:00007f9c       ?DrawNoFlipNoMD@CelObj@@QAEXABVBuffer@@ABVSOL_Rect@@VSOL_Point@@@Z 00408f9c f   Celobja.obj
 0001:000080fc       ?DrawUncompNoFlipNoMD@CelObj@@QAEXABVBuffer@@ABVSOL_Rect@@VSOL_Point@@@Z 004090fc f   Celobja.obj
 0001:0000820a       ?DrawUncompNoFlipNoMDNoSkip@CelObj@@QAEXABVBuffer@@ABVSOL_Rect@@VSOL_Point@@@Z 0040920a f   Celobja.obj
 0001:000082f7       ?DrawUncompHzFlipNoMD@CelObj@@QAEXABVBuffer@@ABVSOL_Rect@@VSOL_Point@@@Z 004092f7 f   Celobja.obj
 0001:00008421       ?DrawUncompHzFlipNoMDNoSkip@CelObj@@QAEXABVBuffer@@ABVSOL_Rect@@VSOL_Point@@@Z 00409421 f   Celobja.obj
 0001:00008540       ?ScaleDrawNoMD@CelObj@@QAEXABVBuffer@@ABVRatio@@1ABVSOL_Rect@@ABVSOL_Point@@@Z 00409540 f   Celobja.obj
 0001:000088d0       ?ScaleDrawUncompNoMD@CelObj@@QAEXABVBuffer@@ABVRatio@@1ABVSOL_Rect@@ABVSOL_Point@@@Z 004098d0 f   Celobja.obj
 0001:00008f2f       ??0ConfigMgr@@QAE@PBDHPAPAD@Z 00409f2f f   Config.obj
 0001:00008f61       ?ReadCommandLine@ConfigMgr@@IAEXPBDHPAPAD@Z 00409f61 f   Config.obj
 0001:0000916f       ?FindConfigFile@ConfigMgr@@SAHPADPBD@Z 0040a16f f   Config.obj
 0001:00009198       ?IsFlag@ConfigMgr@@IAE?AW4Flag@1@D@Z 0040a198 f   Config.obj
 0001:000091dd       ?ShowUsage@ConfigMgr@@IBEXXZ 0040a1dd f   Config.obj
 0001:0000931a       ?ReadFile@ConfigMgr@@IAEXXZ 0040a31a f   Config.obj
 0001:0000941d       ?Tokenize@ConfigMgr@@IAEHPAD@Z 0040a41d f   Config.obj
 0001:0000950a       ?GetNum@ConfigMgr@@QAEHPADHH@Z 0040a50a f   Config.obj
 0001:00009607       ?Get@ConfigMgr@@QAEPADPADH@Z 0040a607 f   Config.obj
 0001:00009646       ?Get@ConfigMgr@@QAEPADW4MemType@@H@Z 0040a646 f   Config.obj
 0001:00009685       ?GetBool@ConfigMgr@@QAEHPADH@Z 0040a685 f   Config.obj
 0001:00009780       ?GetBool@ConfigMgr@@QAEHW4MemType@@H@Z 0040a780 f   Config.obj
 0001:0000984f       ?Str@ConfigMgr@@QAEPADW4Flag@1@@Z 0040a84f f   Config.obj
 0001:00009868       ?Get@ConfigMgr@@QAEHW4Flag@1@@Z 0040a868 f   Config.obj
 0001:00009881       ?Arg@ConfigMgr@@QAEHW4Flag@1@@Z 0040a881 f   Config.obj
 0001:0000989a       ?Val@ConfigMgr@@QAEHW4Flag@1@@Z 0040a89a f   Config.obj
 0001:000098b3       ?GetNTokens@ConfigMgr@@QAEHPAD@Z 0040a8b3 f   Config.obj
 0001:000098ec       ?GetNTokens@ConfigMgr@@QAEHW4MemType@@@Z 0040a8ec f   Config.obj
 0001:00009925       ?AddTokenToFront@ConfigMgr@@QAEXPAD0@Z 0040a925 f   Config.obj
 0001:00009a27       ?GetEntry@ConfigMgr@@IAEPAVConfigEntry@@PAD@Z 0040aa27 f   Config.obj
 0001:00009a7d       ?Claimed@ConfigMgr@@QAEHPAD@Z 0040aa7d f   Config.obj
 0001:00009aa3       ?GetEntry@ConfigMgr@@IAEPAVConfigEntry@@W4MemType@@@Z 0040aaa3 f   Config.obj
 0001:00009aec       ?GetLine@ConfigMgr@@QAEPADPAD@Z 0040aaec f   Config.obj
 0001:00009bb4       ?KGetConfig@@YAXPAF@Z      0040abb4 f   Config.obj
 0001:00009c3e       ??0FlagEntry@@QAE@DPAD@Z   0040ac3e f   Config.obj
 0001:00009c73       ?Usage@FlagEntry@@QAEXPAD@Z 0040ac73 f   Config.obj
 0001:00009ca0       ??0ConfigEntry@@QAE@PADW4MemType@@0@Z 0040aca0 f   Config.obj
 0001:00009ce8       ??1ConfigEntry@@QAE@XZ     0040ace8 f   Config.obj
 0001:00009d0a       ?Claim@ConfigEntry@@QAEHPADHH@Z 0040ad0a f   Config.obj
 0001:00009d97       ?Get@ConfigEntry@@QAEPADH@Z 0040ad97 f   Config.obj
 0001:00009e00       ?GetFileName@ConfigMgr@@QBEPBDXZ 0040ae00 f i Config.obj
 0001:00009e10       ?StrGetData@@YA?AVTextID@@VMemID@@@Z 0040ae10 f i Config.obj
 0001:00009e70       ??0ObjectID@@QAE@ABV0@@Z   0040ae70 f i Config.obj
 0001:00009e90       ??0CursorWin@@QAE@XZ       0040ae90 f   Cursorw.obj
 0001:00009f34       ??1CursorWin@@UAE@XZ       0040af34 f   Cursorw.obj
 0001:00009f58       ?Set@CursorWin@@UAEXHHH@Z  0040af58 f   Cursorw.obj
 0001:00009f65       ?ForcePos@CursorWin@@UAEXVSOL_Point@@@Z 0040af65 f   Cursorw.obj
 0001:00009f81       ?DeviceMovedTo@CursorWin@@UAEXABVSOL_Point@@@Z 0040af81 f   Cursorw.obj
 0001:00009f8e       ?Hide@CursorWin@@UAEXXZ    0040af8e f   Cursorw.obj
 0001:00009f99       ?UnHide@CursorWin@@UAEXXZ  0040af99 f   Cursorw.obj
 0001:00009fa4       ?Show@CursorWin@@UAEXXZ    0040afa4 f   Cursorw.obj
 0001:00009faf       ?SetRestrictRect@CursorWin@@UAEXABVSOL_Rect@@@Z 0040afaf f   Cursorw.obj
 0001:00009fbc       ?ClearRestrictRect@CursorWin@@UAEXXZ 0040afbc f   Cursorw.obj
 0001:00009fc7       ??0CursorWinClr@@QAE@ABVBufferWin@@@Z 0040afc7 f   Cursorw.obj
 0001:0000a22c       ??1CursorWinClr@@UAE@XZ    0040b22c f   Cursorw.obj
 0001:0000a250       ?Set@CursorWinClr@@UAEXHHH@Z 0040b250 f   Cursorw.obj
 0001:0000a514       ?SetDevice@CursorWinClr@@UAEXAAVPointerDevice@@@Z 0040b514 f   Cursorw.obj
 0001:0000a57c       ?ForcePos@CursorWinClr@@UAEXVSOL_Point@@@Z 0040b57c f   Cursorw.obj
 0001:0000a5dd       ?GonnaPaint@CursorWinClr@@UAEXVSOL_Rect@@@Z 0040b5dd f   Cursorw.obj
 0001:0000a646       ?PaintStarting@CursorWinClr@@UAEXXZ 0040b646 f   Cursorw.obj
 0001:0000a6b1       ?DonePainting@CursorWinClr@@UAEXXZ 0040b6b1 f   Cursorw.obj
 0001:0000a753       ?DeviceMovedTo@CursorWinClr@@UAEXABVSOL_Point@@@Z 0040b753 f   Cursorw.obj
 0001:0000a78e       ?Hide@CursorWinClr@@UAEXXZ 0040b78e f   Cursorw.obj
 0001:0000a7cf       ?UnHide@CursorWinClr@@UAEXXZ 0040b7cf f   Cursorw.obj
 0001:0000a82e       ?Show@CursorWinClr@@UAEXXZ 0040b82e f   Cursorw.obj
 0001:0000a87f       ?RevealCursor@CursorWinClr@@IAEXXZ 0040b87f f   Cursorw.obj
 0001:0000a940       ?Move@CursorWinClr@@IAEXXZ 0040b940 f   Cursorw.obj
 0001:0000ab94       ?Paint@CursorWinClr@@IAEXABUInfo@1@0@Z 0040bb94 f   Cursorw.obj
 0001:0000ad4d       ?Copy@CursorWinClr@@IAEXABUInfo@1@0@Z 0040bd4d f   Cursorw.obj
 0001:0000af1c       ?DrawToHardware@CursorWinClr@@IAEXABUInfo@1@@Z 0040bf1c f   Cursorw.obj
 0001:0000b180       ?ReadVideo@CursorWinClr@@IAEXABUInfo@1@@Z 0040c180 f   Cursorw.obj
 0001:0000b199       ?ReadVideoFromVMAP@CursorWinClr@@IAEXABUInfo@1@@Z 0040c199 f   Cursorw.obj
 0001:0000b1bb       ?SetRestrictRect@CursorWinClr@@UAEXABVSOL_Rect@@@Z 0040c1bb f   Cursorw.obj
 0001:0000b233       ?ClearRestrictRect@CursorWinClr@@UAEXXZ 0040c233 f   Cursorw.obj
 0001:0000b270       ??_GCursorWin@@UAEPAXI@Z   0040c270 f i Cursorw.obj
 0001:0000b270       ??_ECursorWin@@UAEPAXI@Z   0040c270 f i Cursorw.obj
 0001:0000b2a0       ??0SOL_Cursor@@QAE@XZ      0040c2a0 f i Cursorw.obj
 0001:0000b2c0       ??_ECursorWinClr@@UAEPAXI@Z 0040c2c0 f i Cursorw.obj
 0001:0000b2c0       ??_GCursorWinClr@@UAEPAXI@Z 0040c2c0 f i Cursorw.obj
 0001:0000b2f0       ?SetView@Bitmap@@QAEXH@Z   0040c2f0 f i Cursorw.obj
 0001:0000b310       ?PicResNum@SOL_Plane@@QBEHXZ 0040c310 f i Cursorw.obj
 0001:0000b310       ?Width@CelObj@@QBEHXZ      0040c310 f i Cursorw.obj
 0001:0000b310       ?GetCurrent@CSkinAttribute@@QAEHXZ 0040c310 f i Cursorw.obj
 0001:0000b310       ?GetQuantity@CPurchaseItem@@QAEHXZ 0040c310 f i Cursorw.obj
 0001:0000b330       ?Priority@SOL_Plane@@QBEHXZ 0040c330 f i Cursorw.obj
 0001:0000b330       ?getChat_Busy@CToonSettings@@QAEHXZ 0040c330 f i Cursorw.obj
 0001:0000b330       ?Height@CelObj@@QBEHXZ     0040c330 f i Cursorw.obj
 0001:0000b350       ?getChat_Profanity@CToonSettings@@QAEHXZ 0040c350 f i Cursorw.obj
 0001:0000b350       ?XOrg@CelObj@@QBEHXZ       0040c350 f i Cursorw.obj
 0001:0000b370       ?getChat_TextColor@CToonSettings@@QAEHXZ 0040c370 f i Cursorw.obj
 0001:0000b370       ?YOrg@CelObj@@QBEHXZ       0040c370 f i Cursorw.obj
 0001:0000b390       ??1SOL_Cursor@@UAE@XZ      0040c390 f i Cursorw.obj
 0001:0000b3b0       ??_ESOL_Cursor@@UAEPAXI@Z  0040c3b0 f i Cursorw.obj
 0001:0000b3b0       ??_GSOL_Cursor@@UAEPAXI@Z  0040c3b0 f i Cursorw.obj
 0001:0000b3e0       ?Set@SOL_Rect@@QAEXHHHH@Z  0040c3e0 f i Cursorw.obj
 0001:0000b410       ?IsEmpty@SOL_Rect@@QBEHXZ  0040c410 f i Cursorw.obj
 0001:0000b440       ?MakeEmpty@SOL_Rect@@QAEXXZ 0040c440 f i Cursorw.obj
 0001:0000b480       ?Intersect@SOL_Rect@@QBEHABV1@@Z 0040c480 f i Cursorw.obj
 0001:0000b4e0       ?Clip@SOL_Rect@@QAEXABV1@@Z 0040c4e0 f i Cursorw.obj
 0001:0000b570       ?Both@SOL_Rect@@QAEXABV1@@Z 0040c570 f i Cursorw.obj
 0001:0000b5f0       ?MoveTo@SOL_Rect@@QAEXHH@Z 0040c5f0 f i Cursorw.obj
 0001:0000b640       ?Get@CursorWin@@UAEAAVBitmap@@XZ 0040c640 f i Cursorw.obj
 0001:0000b640       ?GetExtension@SOL_ResType@@UBEPBDXZ 0040c640 f i Cursorw.obj
 0001:0000b640       ?OnScreen@DrawItem@@QAEAAVSOL_Rect@@XZ 0040c640 f i Cursorw.obj
 0001:0000b660       ?GonnaPaint@CursorWin@@UAEXVSOL_Rect@@@Z 0040c660 f i Cursorw.obj
 0001:0000b670       ?Get@CursorWinClr@@UAEAAVBitmap@@XZ 0040c670 f i Cursorw.obj
 0001:0000b690       ??0Info@CursorWinClr@@QAE@H@Z 0040c690 f i Cursorw.obj
 0001:0000b6ff       ?KCreateTextBitmap@@YAXPAF@Z 0040c6ff f   Dialog.obj
 0001:0000b949       ??0EditClass@@QAE@F@Z      0040c949 f   Dialog.obj
 0001:0000c093       ??0EditClass@@QAE@VTextID@@0HH@Z 0040d093 f   Dialog.obj
 0001:0000c5e5       ??1EditClass@@UAE@XZ       0040d5e5 f   Dialog.obj
 0001:0000c6a0       ?Show@EditClass@@QAEXH@Z   0040d6a0 f   Dialog.obj
 0001:0000c849       ?Hide@EditClass@@QAEXH@Z   0040d849 f   Dialog.obj
 0001:0000c8e1       ?GetLineIndices@EditClass@@UAEXXZ 0040d8e1 f   Dialog.obj
 0001:0000cb3f       ?HandleEvent@EditClass@@QAEHXZ 0040db3f f   Dialog.obj
 0001:0000cc69       ?EditText@EditClass@@QAEHAAVSOL_Event@@@Z 0040dc69 f   Dialog.obj
 0001:0000d49d       ?UpdateFontMgr@EditClass@@QAEXXZ 0040e49d f   Dialog.obj
 0001:0000d4df       ?DrawCursor@EditClass@@QAEXXZ 0040e4df f   Dialog.obj
 0001:0000d6d1       ?EraseCursor@EditClass@@QAEXXZ 0040e6d1 f   Dialog.obj
 0001:0000d741       ?FlashCursor@EditClass@@QAEXXZ 0040e741 f   Dialog.obj
 0001:0000d7c8       ?SetFlash@EditClass@@QAEXXZ 0040e7c8 f   Dialog.obj
 0001:0000d7ec       ?InvertRect@EditClass@@QAEXAAVSOL_Rect@@HDD@Z 0040e7ec f   Dialog.obj
 0001:0000d8a4       ?SetCursor@EditClass@@QAEXH@Z 0040e8a4 f   Dialog.obj
 0001:0000d94b       ?Highlight@EditClass@@QAEXH@Z 0040e94b f   Dialog.obj
 0001:0000dad2       ?KEdit@@YAXPAF@Z           0040ead2 f   Dialog.obj
 0001:0000e08d       ?GetInput@@YAHPAD0H@Z      0040f08d f   Dialog.obj
 0001:0000e1af       ?MsgBox@@YAHPAD0ZZ         0040f1af f   Dialog.obj
 0001:0000e277       ?KDialog@@YAXPAF@Z         0040f277 f   Dialog.obj
 0001:00011fd0       ??1SOL_List@@QAE@XZ        00412fd0 f i Dialog.obj
 0001:00011ff0       ??_GEditClass@@UAEPAXI@Z   00412ff0 f i Dialog.obj
 0001:00011ff0       ??_EEditClass@@UAEPAXI@Z   00412ff0 f i Dialog.obj
 0001:00012020       ??0EventObjectID@@QAE@ABV0@@Z 00413020 f i Dialog.obj
 0001:00012040       ??3CObject@@SGXPAX@Z       00413040 f i Dialog.obj
 0001:00012060       ??2CObject@@SGPAXI@Z       00413060 f i Dialog.obj
 0001:00012080       ?AfxGetApp@@YGPAVCWinApp@@XZ 00413080 f i Dialog.obj
 0001:00012090       ??0CSCI_NetMsg@@QAE@ABV0@@Z 00413090 f i Dialog.obj
 0001:000120b0       ??0ServerInfo@@QAE@XZ      004130b0 f i Dialog.obj
 0001:00012100       ??0CSCI_PackedData@@QAE@ABV0@@Z 00413100 f i Dialog.obj
 0001:00012120       ??0CSCI_ByteArray@@QAE@ABV0@@Z 00413120 f i Dialog.obj
 0001:00012140       ??0CSCI_Array@@QAE@ABV0@@Z 00413140 f i Dialog.obj
 0001:00012160       ?BringWindowToTop@CWnd@@QAEXXZ 00413160 f i Dialog.obj
 0001:00012180       ?UpdateWindow@CWnd@@QAEXXZ 00413180 f i Dialog.obj
 0001:000121a0       ?IsWindowVisible@CWnd@@QBEHXZ 004131a0 f i Dialog.obj
 0001:000121c0       ??7MemID@@QBEHXZ           004131c0 f i Dialog.obj
 0001:000121e0       ??2@YAPAXIG@Z              004131e0 f i Dialog.obj
 0001:00012200       ?Data@ArrayID@@QAEPAXXZ    00413200 f i Dialog.obj
 0001:00012220       ??0SOL_List@@QAE@XZ        00413220 f i Dialog.obj
 0001:00012280       ?RespondsTo@ObjectID@@QBEHG@Z 00413280 f i Dialog.obj
 0001:000122b0       ??0FakeSOL_ListID@@QAE@ABU0@@Z 004132b0 f i Dialog.obj
 0001:000122b0       ??0ScriptID@@QAE@ABVMemID@@@Z 004132b0 f i Dialog.obj
 0001:000122b0       ??0FakeVariableID@@QAE@ABVMemID@@@Z 004132b0 f i Dialog.obj
 0001:000122b0       ??0ViewHeaderID@@QAE@ABVMemID@@@Z 004132b0 f i Dialog.obj
 0001:000122b0       ??0TextID@@QAE@ABV0@@Z     004132b0 f i Dialog.obj
 0001:000122b0       ??0MsgStackID@@QAE@ABU0@@Z 004132b0 f i Dialog.obj
 0001:000122b0       ??0FakeDispatchTblID@@QAE@ABVMemID@@@Z 004132b0 f i Dialog.obj
 0001:000122b0       ??0FakeObjectID@@QAE@ABVMemID@@@Z 004132b0 f i Dialog.obj
 0001:000122b0       ??0ScriptHunkID@@QAE@ABVMemID@@@Z 004132b0 f i Dialog.obj
 0001:000122b0       ??0StringID@@QAE@ABV0@@Z   004132b0 f i Dialog.obj
 0001:000122b0       ??0FakeArrayID@@QAE@ABVMemID@@@Z 004132b0 f i Dialog.obj
 0001:000122b0       ??0StringID@@QAE@ABVMemID@@@Z 004132b0 f i Dialog.obj
 0001:000122b0       ??0FakeResTagID@@QAE@ABU0@@Z 004132b0 f i Dialog.obj
 0001:000122b0       ??0FakeScrollEntryID@@QAE@ABVMemID@@@Z 004132b0 f i Dialog.obj
 0001:000122d0       ??DStringID@@QAEPADXZ      004132d0 f i Dialog.obj
 0001:00012340       ?set_scratch@CSCI_Object@@QAEXF@Z 00413340 f i Dialog.obj
 0001:00012360       ?SetProperty@ObjectID@@QBEXGF@Z 00413360 f i Dialog.obj
 0001:00012390       ?SetProperty@Object@@QAEXGF@Z 00413390 f i Dialog.obj
 0001:000123e0       ?SetGraphicsUpdate@Object@@QAEXXZ 004133e0 f i Dialog.obj
 0001:00012400       ?get_lowWord@CSCI_LongInt@@QAEFXZ 00413400 f i Dialog.obj
 0001:00012420       ?get_nValue@CSCI_LongInt@@QAEHXZ 00413420 f i Dialog.obj
 0001:00012450       ?get_hiWord@CSCI_LongInt@@QAEFXZ 00413450 f i Dialog.obj
 0001:00012470       ?set_nValue@CSCI_LongInt@@QAEXH@Z 00413470 f i Dialog.obj
 0001:000124a0       ?set_lowWord@CSCI_LongInt@@QAEXF@Z 004134a0 f i Dialog.obj
 0001:000124c0       ?set_hiWord@CSCI_LongInt@@QAEXF@Z 004134c0 f i Dialog.obj
 0001:000124e0       ??0CSCI_GroupList@@QAE@G@Z 004134e0 f i Dialog.obj
 0001:000124e0       ??0CSCI_NetMsg@@QAE@G@Z    004134e0 f i Dialog.obj
 0001:000124e0       ??0CSCI_VerbList@@QAE@G@Z  004134e0 f i Dialog.obj
 0001:000124e0       ??0CSCI_View@@QAE@G@Z      004134e0 f i Dialog.obj
 0001:00012500       ?get_pInfo@CSCI_NetMsg@@QAE?AVCSCI_LongInt@@XZ 00413500 f i Dialog.obj
 0001:00012530       ??0CSCI_WorldObject@@QAE@G@Z 00413530 f i Dialog.obj
 0001:00012550       ??0CSCI_Actor@@QAE@G@Z     00413550 f i Dialog.obj
 0001:00012570       ??0CSCI_Prop@@QAE@G@Z      00413570 f i Dialog.obj
 0001:00012590       ??0CSCI_Feature@@QAE@G@Z   00413590 f i Dialog.obj
 0001:00012590       ??0CSCI_BWeapon@@QAE@G@Z   00413590 f i Dialog.obj
 0001:00012590       ??0CSCI_Set@@QAE@G@Z       00413590 f i Dialog.obj
 0001:00012590       ??0CSCI_String@@QAE@G@Z    00413590 f i Dialog.obj
 0001:00012590       ??0CSCI_PackedData@@QAE@G@Z 00413590 f i Dialog.obj
 0001:00012590       ??0CSCI_Spell@@QAE@G@Z     00413590 f i Dialog.obj
 0001:00012590       ??0CSCI_NetRoom@@QAE@G@Z   00413590 f i Dialog.obj
 0001:00012590       ??0CSCI_BHead@@QAE@G@Z     00413590 f i Dialog.obj
 0001:000125b0       ??0CSCI_WorldObject@@QAE@ABVMemID@@@Z 004135b0 f i Dialog.obj
 0001:000125b0       ??0CSCI_WorldObject@@QAE@ABVObjectID@@@Z 004135b0 f i Dialog.obj
 0001:000125d0       ??0CSCI_Actor@@QAE@ABVMemID@@@Z 004135d0 f i Dialog.obj
 0001:000125f0       ??0CSCI_Prop@@QAE@ABVMemID@@@Z 004135f0 f i Dialog.obj
 0001:00012610       ??0CSCI_VerbList@@QAE@ABVObjectID@@@Z 00413610 f i Dialog.obj
 0001:00012610       ??0CSCI_View@@QAE@ABVMemID@@@Z 00413610 f i Dialog.obj
 0001:00012630       ??0CSCI_Feature@@QAE@ABVMemID@@@Z 00413630 f i Dialog.obj
 0001:00012630       ??0CSCI_Spell@@QAE@ABVObjectID@@@Z 00413630 f i Dialog.obj
 0001:00012630       ??0CSCI_Set@@QAE@ABVMemID@@@Z 00413630 f i Dialog.obj
 0001:00012650       ??0CSCI_BitMap@@QAE@ABVMemID@@@Z 00413650 f i Dialog.obj
 0001:00012650       ??0CSCI_List@@QAE@ABVMemID@@@Z 00413650 f i Dialog.obj
 0001:00012670       ??0CSCI_Rectangle@@QAE@ABVMemID@@@Z 00413670 f i Dialog.obj
 0001:00012670       ??0CSCI_Collection@@QAE@ABVMemID@@@Z 00413670 f i Dialog.obj
 0001:00012670       ??0CSCI_LongInt@@QAE@ABVObjectID@@@Z 00413670 f i Dialog.obj
 0001:00012690       ?get_pServerName@CSCI_ServerInfo@@QAE?AVStringID@@XZ 00413690 f i Dialog.obj
 0001:000126d0       ?set_pServerName@CSCI_ServerInfo@@QAEXF@Z 004136d0 f i Dialog.obj
 0001:000126f0       ?get_pStatus@CSCI_ServerInfo@@QAE?AVStringID@@XZ 004136f0 f i Dialog.obj
 0001:00012730       ?set_pStatus@CSCI_ServerInfo@@QAEXF@Z 00413730 f i Dialog.obj
 0001:00012750       ?get_pNumberOfUsers@CSCI_ServerInfo@@QAEFXZ 00413750 f i Dialog.obj
 0001:00012770       ?set_pNumberOfUsers@CSCI_ServerInfo@@QAEXF@Z 00413770 f i Dialog.obj
 0001:00012790       ?get_pIP@CSCI_ServerInfo@@QAE?AVStringID@@XZ 00413790 f i Dialog.obj
 0001:000127d0       ?set_pIP@CSCI_ServerInfo@@QAEXF@Z 004137d0 f i Dialog.obj
 0001:000127f0       ?get_pPort@CSCI_ServerInfo@@QAE?AVStringID@@XZ 004137f0 f i Dialog.obj
 0001:00012830       ?set_pPort@CSCI_ServerInfo@@QAEXF@Z 00413830 f i Dialog.obj
 0001:00012850       ?SetEventProcessing@CSkinWnd@@QAEX_N@Z 00413850 f i Dialog.obj
 0001:00012870       ?SetProcessEvents@CSkinWnd@@IAEX_N@Z 00413870 f i Dialog.obj
 0001:000128a0       ??A?$bitset@$05@std@@QAE?AVreference@01@I@Z 004138a0 f i Dialog.obj
 0001:000128d0       ??4reference@?$bitset@$05@std@@QAEAAV012@_N@Z 004138d0 f i Dialog.obj
 0001:00012900       ?set@?$bitset@$05@std@@QAEAAV12@I_N@Z 00413900 f i Dialog.obj
 0001:00012990       ??0reference@?$bitset@$05@std@@AAE@AAV12@I@Z 00413990 f i Dialog.obj
 0001:000129c0       ?_Xran@?$bitset@$05@std@@ABEXXZ 004139c0 f i Dialog.obj
 0001:00012a20       ?SetTransientState@CSkinWnd@@QAEX_N@Z 00413a20 f i Dialog.obj
 0001:00012a40       ?SetTransient@CSkinWnd@@IAEX_N@Z 00413a40 f i Dialog.obj
 0001:00012a70       ?SetCharInfo@CLookAt@@SAXVCSCI_CharInfo@@@Z 00413a70 f i Dialog.obj
 0001:00012a80       ??0CSCI_Object@@QAE@ABV0@@Z 00413a80 f i Dialog.obj
 0001:00012aa0       ??0CSCI_WorldObject@@QAE@ABV0@@Z 00413aa0 f i Dialog.obj
 0001:00012ac0       ??0CSCI_Actor@@QAE@ABV0@@Z 00413ac0 f i Dialog.obj
 0001:00012ae0       ??0CSCI_Prop@@QAE@ABV0@@Z  00413ae0 f i Dialog.obj
 0001:00012b00       ??0CSCI_View@@QAE@ABV0@@Z  00413b00 f i Dialog.obj
 0001:00012b20       ??0CSCI_Set@@QAE@ABV0@@Z   00413b20 f i Dialog.obj
 0001:00012b20       ??0CSCI_BHead@@QAE@ABV0@@Z 00413b20 f i Dialog.obj
 0001:00012b20       ??0CSCI_Spell@@QAE@ABV0@@Z 00413b20 f i Dialog.obj
 0001:00012b20       ??0CSCI_BWeapon@@QAE@ABV0@@Z 00413b20 f i Dialog.obj
 0001:00012b20       ??0CSCI_Feature@@QAE@ABV0@@Z 00413b20 f i Dialog.obj
 0001:00012b40       ?Intersect@SOL_Rect@@QBEHVSOL_Point@@@Z 00413b40 f i Dialog.obj
 0001:00012b90       ?Offset@SOL_Rect@@QAEXHH@Z 00413b90 f i Dialog.obj
 0001:00012be0       ?Inset@SOL_Rect@@QAEXHH@Z  00413be0 f i Dialog.obj
 0001:00012c30       ??0EventObjectID@@QAE@G@Z  00413c30 f i Dialog.obj
 0001:00012c30       ??0CSCI_Object@@QAE@G@Z    00413c30 f i Dialog.obj
 0001:00012c50       ??0ScaleInfo@@QAE@XZ       00413c50 f i Dialog.obj
 0001:00012c90       ?Id@SOL_Plane@@QBEJXZ      00413c90 f i Dialog.obj
 0001:00012ca0       ?SetPicNum@SOL_Plane@@QAEXH@Z 00413ca0 f i Dialog.obj
 0001:00012cd0       ?SetPriority@SOL_Plane@@QAEXH@Z 00413cd0 f i Dialog.obj
 0001:00012cf0       ?TopPlane@GraphicsMgr@@QBEHXZ 00413cf0 f i Dialog.obj
 0001:00012d10       ?TopPlane@Screen@@QBEHXZ   00413d10 f i Dialog.obj
 0001:00012d30       ?TopSCIPlane@GraphicsMgr@@QBEHXZ 00413d30 f i Dialog.obj
 0001:00012d50       ?TopSCIPlane@Screen@@QBEHXZ 00413d50 f i Dialog.obj
 0001:00012d70       ?AddPlane@GraphicsMgr@@QAEXPAVSOL_Plane@@@Z 00413d70 f i Dialog.obj
 0001:00012d90       ?AddScreenItem@GraphicsMgr@@QAEXPAVScreenItem@@@Z 00413d90 f i Dialog.obj
 0001:00012db0       ??0FontMgr@@QAE@G@Z        00413db0 f i Dialog.obj
 0001:00012e20       ?PointSize@FontMgr@@QAEHH@Z 00413e20 f i Dialog.obj
 0001:00012e60       ?SetBM@FontMgr@@QAEXVMemID@@@Z 00413e60 f i Dialog.obj
 0001:00012e80       ?GetXRes@FontMgr@@QBEHXZ   00413e80 f i Dialog.obj
 0001:00012e90       ?GetYRes@FontMgr@@QBEHXZ   00413e90 f i Dialog.obj
 0001:00012ea0       ??0SOL_Line@@QAE@HHHH@Z    00413ea0 f i Dialog.obj
 0001:00012f20       ?Match@CMakeItemDlg@@QAEHVCSCI_WorldObject@@@Z 00413f20 f i Dialog.obj
 0001:00012f40       ?KFileIO@@YAXPAF@Z         00413f40 f   Dos.obj
 0001:000135fa       ?KDeviceInfo@@YAXPAF@Z     004145fa f   Dos.obj
 0001:0001372b       ?AddSlash@@YAPADPAD@Z      0041472b f   Dos.obj
 0001:00013785       ?FullPath@@YAPADPADPBD@Z   00414785 f   Dos.obj
 0001:000137f3       ?Creat@@YAHPBDI@Z          004147f3 f   Dos.obj
 0001:00013814       ?Open@@YAHPBDI@Z           00414814 f   Dos.obj
 0001:00013835       ?ReadMemID@@YAHHVMemID@@H@Z 00414835 f   Dos.obj
 0001:00013881       ?Read@@YAHHPAXH@Z          00414881 f   Dos.obj
 0001:0001389b       ?Write@@YAHHPAXH@Z         0041489b f   Dos.obj
 0001:000138b5       ?Close@@YAHH@Z             004148b5 f   Dos.obj
 0001:000138d2       ?Rename@@YAHPBD0@Z         004148d2 f   Dos.obj
 0001:000138e8       ?ReadString@@YAPADPADHH@Z  004148e8 f   Dos.obj
 0001:0001396a       ?Unlink@@YAHPBD@Z          0041496a f   Dos.obj
 0001:00013986       ?FileLength@@YAKH@Z        00414986 f   Dos.obj
 0001:000139cb       ?LSeek@@YAJHJH@Z           004149cb f   Dos.obj
 0001:000139e5       ?GetCWD@@YAPADPAD@Z        004149e5 f   Dos.obj
 0001:000139fc       ?FirstFile@@YAHPBDIPAU_WIN32_FIND_DATAA@@@Z 004149fc f   Dos.obj
 0001:00013a42       ?NextFile@@YAHPAU_WIN32_FIND_DATAA@@@Z 00414a42 f   Dos.obj
 0001:00013a58       ?ExistsDriveAB@@YAHH@Z     00414a58 f   Dos.obj
 0001:00013a77       ?ExistDrive@@YAHD@Z        00414a77 f   Dos.obj
 0001:00013adf       ?ResetDisk@@YAXXZ          00414adf f   Dos.obj
 0001:00013aea       ?RGetFreeSpace@@YAKD@Z     00414aea f   Dos.obj
 0001:00013b48       ?Exists@@YAHPBD@Z          00414b48 f   Dos.obj
 0001:00013bb7       ?IsDriveAOrB@@YAHPBD@Z     00414bb7 f   Dos.obj
 0001:00013c0e       ?OpenFileInPath@@YAHPADI0@Z 00414c0e f   Dos.obj
 0001:00013d18       ?RemoveTrailingSlash@@YAPADPAD@Z 00414d18 f   Dos.obj
 0001:00013f90       ??0DrawList@@QAE@XZ        00414f90 f   Drawlist.obj
 0001:00013fa7       ??1DrawList@@QAE@XZ        00414fa7 f   Drawlist.obj
 0001:00013feb       ?Add@DrawList@@QAEHPAVScreenItem@@AAVSOL_Rect@@@Z 00414feb f   Drawlist.obj
 0001:000140aa       ?Pack@DrawList@@QAEXXZ     004150aa f   Drawlist.obj
 0001:00014123       ?Delete@DrawList@@QAEXH@Z  00415123 f   Drawlist.obj
 0001:00014190       ?Sort@DrawList@@QAEXXZ     00415190 f   Drawlist.obj
 0001:00014340       ??0DrawItem@@QAE@PAVScreenItem@@AAVSOL_Rect@@@Z 00415340 f i Drawlist.obj
 0001:00014370       ??0SOL_Rect@@QAE@AAVSOL_Point@@0@Z 00415370 f i Drawlist.obj
 0001:000143b0       ??0EventMgr@@QAE@XZ        004153b0 f   Event.obj
 0001:000143f6       ??1EventMgr@@UAE@XZ        004153f6 f   Event.obj
 0001:0001440a       ?Bump@EventMgr@@IBEXAAH@Z  0041540a f   Event.obj
 0001:00014435       ?Flush@EventMgr@@UAEXG@Z   00415435 f   Event.obj
 0001:00014481       ?FlushKeyboard@EventMgr@@MAEXXZ 00415481 f   Event.obj
 0001:0001448c       ?Get@EventMgr@@UAEHPAVSOL_Event@@G@Z 0041548c f   Event.obj
 0001:0001454d       ?Handle@EventMgr@@UAEXPAVSOL_Event@@@Z 0041554d f   Event.obj
 0001:0001455a       ?IsAvail@EventMgr@@UBEHPAVSOL_Event@@G@Z 0041555a f   Event.obj
 0001:000145f1       ?Post@EventMgr@@UAEXPAVSOL_Event@@@Z 004155f1 f   Event.obj
 0001:00014667       ?PostCommand@EventMgr@@UAEXH@Z 00415667 f   Event.obj
 0001:00014699       ?PostWinCommand@EventMgr@@UAEXHH@Z 00415699 f   Event.obj
 0001:000146d3       ?StillDown@EventMgr@@UBEHXZ 004156d3 f   Event.obj
 0001:000146f2       ?Wait@EventMgr@@UAE?AVSOL_Event@@G@Z 004156f2 f   Event.obj
 0001:00014737       ??4EventObjectID@@QAEAAV0@ABVSOL_Event@@@Z 00415737 f   Event.obj
 0001:00014806       ??0SOL_Event@@QAE@XZ       00415806 f   Event.obj
 0001:00014847       ??0SOL_Event@@QAE@ABV0@@Z  00415847 f   Event.obj
 0001:0001486e       ??0SOL_Event@@QAE@VEventObjectID@@@Z 0041586e f   Event.obj
 0001:00014925       ??4SOL_Event@@QAEAAV0@ABV0@@Z 00415925 f   Event.obj
 0001:000149a9       ?MakeNull@SOL_Event@@QAEXXZ 004159a9 f   Event.obj
 0001:00014a3e       ?MapKeyToDir@SOL_Event@@QAEPAV1@XZ 00415a3e f   Event.obj
 0001:00014a61       ?KGetEvent@@YAXPAF@Z       00415a61 f   Event.obj
 0001:00014adf       ?KMapKeyToDir@@YAXPAF@Z    00415adf f   Event.obj
 0001:00014b50       ??_EEventMgr@@UAEPAXI@Z    00415b50 f i Event.obj
 0001:00014b50       ??_GEventMgr@@UAEPAXI@Z    00415b50 f i Event.obj
 0001:00014b80       ?GetIndexedProperty@ObjectID@@QBEFH@Z 00415b80 f i Event.obj
 0001:00014bb0       ?GetIndexedProperty@Object@@QAEFH@Z 00415bb0 f i Event.obj
 0001:00014bd0       ?GetIndexedPropAddr@Object@@QAEPBFH@Z 00415bd0 f i Event.obj
 0001:00014bf0       ?SetIndexedProperty@ObjectID@@QBEXHF@Z 00415bf0 f i Event.obj
 0001:00014c20       ?SetIndexedProperty@Object@@QAEXHF@Z 00415c20 f i Event.obj
 0001:00014c50       ?SetPropAtOffset@Object@@QAEAAFI@Z 00415c50 f i Event.obj
 0001:00014c80       ?GetPropAtOffset@Object@@QAEAAFI@Z 00415c80 f i Event.obj
 0001:00014ca0       ?GetModifiers@EventMgr@@UAEGXZ 00415ca0 f i Event.obj
 0001:00014ca0       ?LockStatus@KbdWin@@UAEGXZ 00415ca0 f i Event.obj
 0001:00014cb0       ??0EventMgrWin@@QAE@XZ     00415cb0 f   Eventw.obj
 0001:00014d3c       ?Get@EventMgrWin@@UAEHPAVSOL_Event@@G@Z 00415d3c f   Eventw.obj
 0001:00014d62       ?GetModifiers@EventMgrWin@@MAEGXZ 00415d62 f   Eventw.obj
 0001:00014dbd       ?Handle@EventMgrWin@@MAEXPAVSOL_Event@@@Z 00415dbd f   Eventw.obj
 0001:00014e80       ??0KbdMgrWin@@QAE@XZ       00415e80 f i Eventw.obj
 0001:00014ee0       ??_GKbdMgrWin@@UAEPAXI@Z   00415ee0 f i Eventw.obj
 0001:00014ee0       ??_EKbdMgrWin@@UAEPAXI@Z   00415ee0 f i Eventw.obj
 0001:00014f10       ??0KbdMgr@@QAE@XZ          00415f10 f i Eventw.obj
 0001:00014f30       ??0KbdWin@@QAE@XZ          00415f30 f i Eventw.obj
 0001:00014f50       ??1KbdMgrWin@@UAE@XZ       00415f50 f i Eventw.obj
 0001:00014f70       ??0Kbd@@QAE@XZ             00415f70 f i Eventw.obj
 0001:00014f90       ??_EEventMgrWin@@UAEPAXI@Z 00415f90 f i Eventw.obj
 0001:00014f90       ??_GEventMgrWin@@UAEPAXI@Z 00415f90 f i Eventw.obj
 0001:00014fc0       ??1EventMgrWin@@UAE@XZ     00415fc0 f i Eventw.obj
 0001:00014fe0       ??1KbdMgr@@UAE@XZ          00415fe0 f i Eventw.obj
 0001:00015000       ??_EKbdMgr@@UAEPAXI@Z      00416000 f i Eventw.obj
 0001:00015000       ??_GKbdMgr@@UAEPAXI@Z      00416000 f i Eventw.obj
 0001:00015030       ?Get@KbdMgrWin@@UAEHPAVSOL_Event@@@Z 00416030 f i Eventw.obj
 0001:00015050       ?Modifiers@KbdMgrWin@@UAEGXZ 00416050 f i Eventw.obj
 0001:00015070       ?BuildFBM@FontMgr@@QAE?AVMemID@@AAVBitmap@@AAVSOL_Rect@@V2@HHHHHH@Z 00416070 f   Font.obj
 0001:0001576a       ?BuildFBM@FontMgr@@QAE?AVMemID@@HHAAVSOL_Rect@@V2@HHHHHHHH@Z 0041676a f   Font.obj
 0001:000159be       ?TitledFBM@FontMgr@@QAE?AVMemID@@HHAAVSOL_Rect@@V2@HHHHHH1HHHH@Z 004169be f   Font.obj
 0001:00015de5       ?DeleteFBM@FontMgr@@QAEXVMemID@@@Z 00416de5 f   Font.obj
 0001:00015e06       ?ResizeBitMap@FontMgr@@QAEXVSOL_Rect@@H@Z 00416e06 f   Font.obj
 0001:0001613b       ?SetFont@FontMgr@@QAEXH@Z  0041713b f   Font.obj
 0001:00016154       ?StringWidth@FontMgr@@QAEHVMemID@@@Z 00417154 f   Font.obj
 0001:0001619f       ?TextSize@FontMgr@@QAEXVMemID@@HAAVSOL_Rect@@H@Z 0041719f f   Font.obj
 0001:0001649d       ?TextCount@FontMgr@@QAEHVMemID@@HAAVSOL_Rect@@H@Z 0041749d f   Font.obj
 0001:000164d6       ?TextCount@FontMgr@@QAEHVMemID@@HHAAVSOL_Rect@@H@Z 004174d6 f   Font.obj
 0001:000165a4       ?Erase@FontMgr@@QAEXAAVSOL_Rect@@H@Z 004175a4 f   Font.obj
 0001:000166ba       ?Frame@FontMgr@@QAEXAAVSOL_Rect@@HEH@Z 004176ba f   Font.obj
 0001:000168a8       ?InvertRect@FontMgr@@QAEXVMemID@@HVSOL_Rect@@DDH@Z 004178a8 f   Font.obj
 0001:00016a26       ?ClearChar@FontMgr@@IAEXE@Z 00417a26 f   Font.obj
 0001:00016a9c       ?BuildFontTable@FontMgr@@IAEXH@Z 00417a9c f   Font.obj
 0001:00016c33       ?TextDimensions@FontMgr@@IAEXHHAAH0@Z 00417c33 f   Font.obj
 0001:00016e94       ?TextWidth@FontMgr@@QAEHVMemID@@HH@Z 00417e94 f   Font.obj
 0001:00016ee0       ?CharWidth@FontMgr@@QAEEEH@Z 00417ee0 f   Font.obj
 0001:00016f2c       ?CharHeight@FontMgr@@QAEEEH@Z 00417f2c f   Font.obj
 0001:00016f7e       ?DrawTextBox@FontMgr@@QAEXXZ 00417f7e f   Font.obj
 0001:0001710c       ?DrawTextA@FontMgr@@IAEXHH@Z 0041810c f   Font.obj
 0001:0001732e       ?DownOneLine@FontMgr@@QAEXIIH@Z 0041832e f   Font.obj
 0001:0001752a       ?UpOneLine@FontMgr@@QAEXIIIH@Z 0041852a f   Font.obj
 0001:0001772b       ?DrawChar@FontMgr@@IAEXE@Z 0041872b f   Font.obj
 0001:000179be       ?GetLongest@FontMgr@@QAEGPAHH@Z 004189be f   Font.obj
 0001:00017dbd       ?KInvertRect@@YAXPAF@Z     00418dbd f   Font.obj
 0001:00017e30       ?KText@@YAXPAF@Z           00418e30 f   Font.obj
 0001:000180f4       ?KFont@@YAXPAF@Z           004190f4 f   Font.obj
 0001:00018170       ?GetSize@MemoryMgr@@QAEIG@Z 00419170 f i Font.obj
 0001:000181a0       ?SetRes@FontMgr@@QAEXHH@Z  004191a0 f i Font.obj
 0001:000181c0       ?SetText@FontMgr@@QAEXVMemID@@@Z 004191c0 f i Font.obj
 0001:000181e0       ?BuildHeader@@YAXVMemID@@HHHHHHHHH@Z 004191e0 f i Font.obj
 0001:00018220       ?ValidateBitmap@@YAXVMemID@@@Z 00419220 f   Graph.obj
 0001:0001828e       ?DrawView@@YAXHHHVMemID@@HHHHH@Z 0041928e f   Graph.obj
 0001:0001842e       ?KMorphOn@@YAXPAF@Z        0041942e f   Graph.obj
 0001:0001844d       ?KFrameOut@@YAXPAF@Z       0041944d f   Graph.obj
 0001:00018517       ?KAddScreenItem@@YAXPAF@Z  00419517 f   Graph.obj
 0001:0001860a       ?KAddLine@@YAXPAF@Z        0041960a f   Graph.obj
 0001:0001878a       ?KAddPolygon@@YAXPAF@Z     0041978a f   Graph.obj
 0001:00018981       ?KBitmap@@YAXPAF@Z         00419981 f   Graph.obj
 0001:0001cd67       ?RemapBitmap@@YAXVMemID@@VObjectID@@@Z 0041dd67 f   Graph.obj
 0001:0001ced6       ?KDeleteScreenItem@@YAXPAF@Z 0041ded6 f   Graph.obj
 0001:0001cfa6       ?KDeleteLine@@YAXPAF@Z     0041dfa6 f   Graph.obj
 0001:0001d03c       ?KDeletePolygon@@YAXPAF@Z  0041e03c f   Graph.obj
 0001:0001d0b0       ?KUpdateScreenItem@@YAXPAF@Z 0041e0b0 f   Graph.obj
 0001:0001d197       ?KUpdateLine@@YAXPAF@Z     0041e197 f   Graph.obj
 0001:0001d31f       ?KUpdatePolygon@@YAXPAF@Z  0041e31f f   Graph.obj
 0001:0001d4d5       ?KAddMagnify@@YAXPAF@Z     0041e4d5 f   Graph.obj
 0001:0001d620       ?KDeleteMagnify@@YAXPAF@Z  0041e620 f   Graph.obj
 0001:0001d761       ?KAddPlane@@YAXPAF@Z       0041e761 f   Graph.obj
 0001:0001d851       ?KDeletePlane@@YAXPAF@Z    0041e851 f   Graph.obj
 0001:0001d87c       ?KUpdatePlane@@YAXPAF@Z    0041e87c f   Graph.obj
 0001:0001d8f2       ?KAddPicAt@@YAXPAF@Z       0041e8f2 f   Graph.obj
 0001:0001d9a8       ?KRepaintPlane@@YAXPAF@Z   0041e9a8 f   Graph.obj
 0001:0001da2b       ?KGetHighPlanePri@@YAXPAF@Z 0041ea2b f   Graph.obj
 0001:0001da40       ?KGetHighItemPri@@YAXPAF@Z 0041ea40 f   Graph.obj
 0001:0001da5f       ?KCelHigh@@YAXPAF@Z        0041ea5f f   Graph.obj
 0001:0001daeb       ?KCelWide@@YAXPAF@Z        0041eaeb f   Graph.obj
 0001:0001db77       ?KNumLoops@@YAXPAF@Z       0041eb77 f   Graph.obj
 0001:0001dbd5       ?GetNumLoops@@YAHVMemID@@@Z 0041ebd5 f   Graph.obj
 0001:0001dbf7       ?KNumCels@@YAXPAF@Z        0041ebf7 f   Graph.obj
 0001:0001dc69       ?GetNumCels@@YAHVMemID@@H@Z 0041ec69 f   Graph.obj
 0001:0001dce7       ?KShakeScreen@@YAXPAF@Z    0041ece7 f   Graph.obj
 0001:0001dd0d       ?KIsOnMe@@YAXPAF@Z         0041ed0d f   Graph.obj
 0001:0001de4a       ?KSetNowSeen@@YAXPAF@Z     0041ee4a f   Graph.obj
 0001:0001dffc       ?KObjectIntersect@@YAXPAF@Z 0041effc f   Graph.obj
 0001:0001e0ab       ?KPriority@@YAXPAF@Z       0041f0ab f   Graph.obj
 0001:0001e0bd       ?BuildHeader@@YAXPAEHHHHHHHHH@Z 0041f0bd f   Graph.obj
 0001:0001e192       ?BuildLineBitmap@@YA?AVMemID@@HHHHEHHHAAVSOL_Rect@@@Z 0041f192 f   Graph.obj
 0001:0001e3af       ?BuildPolygonBitmap@@YA?AVMemID@@USOL_ListID@@EHHHAAVSOL_Rect@@H@Z 0041f3af f   Graph.obj
 0001:0001e864       ?KMovePlaneItems@@YAXPAF@Z 0041f864 f   Graph.obj
 0001:0001e98a       ?KBaseLineSpan@@YAXPAF@Z   0041f98a f   Graph.obj
 0001:0001ec7b       ?KCelInfo@@YAXPAF@Z        0041fc7b f   Graph.obj
 0001:0001ed6f       ?AddLinkedBitmap@@YAHVObjectID@@0H@Z 0041fd6f f   Graph.obj
 0001:0001f485       ?KCelLink@@YAXPAF@Z        00420485 f   Graph.obj
 0001:0001f610       ??_GMagnifyView@@QAEPAXI@Z 00420610 f i Graph.obj
 0001:0001f640       ?Max@@YAHHH@Z              00420640 f i Graph.obj
 0001:0001f670       ??9MemID@@QBEHABV0@@Z      00420670 f i Graph.obj
 0001:0001f690       ?SetInSIList@Object@@QAEXXZ 00420690 f i Graph.obj
 0001:0001f6b0       ?ClearInSIList@Object@@QAEXXZ 004206b0 f i Graph.obj
 0001:0001f6d0       ?get_pSex@CSCI_BHead@@QAEFXZ 004206d0 f i Graph.obj
 0001:0001f6f0       ?get_pHeadView@CSCI_BHead@@QAEFXZ 004206f0 f i Graph.obj
 0001:0001f710       ?get_pHairView@CSCI_BHead@@QAEFXZ 00420710 f i Graph.obj
 0001:0001f730       ?get_pBrowView@CSCI_BHead@@QAEFXZ 00420730 f i Graph.obj
 0001:0001f750       ?get_pEyeView@CSCI_BHead@@QAEFXZ 00420750 f i Graph.obj
 0001:0001f770       ?get_pNoseView@CSCI_BHead@@QAEFXZ 00420770 f i Graph.obj
 0001:0001f790       ?get_pEarView@CSCI_BHead@@QAEFXZ 00420790 f i Graph.obj
 0001:0001f7b0       ?get_pMouthView@CSCI_BHead@@QAEFXZ 004207b0 f i Graph.obj
 0001:0001f7d0       ?get_pFaceHairView@CSCI_BHead@@QAEFXZ 004207d0 f i Graph.obj
 0001:0001f7f0       ?Area@SOL_Rect@@QBEJXZ     004207f0 f i Graph.obj
 0001:0001f820       ??D@YAHHABVRatio@@@Z       00420820 f i Graph.obj
 0001:0001f870       ?SetHandle@Bitmap@@QAEXVMemID@@@Z 00420870 f i Graph.obj
 0001:0001f8a0       ?GetCel@ScreenItem@@QAEPAVCelObj@@XZ 004208a0 f i Graph.obj
 0001:0001f8c0       ?SetPriority@ScreenItem@@QAEXH@Z 004208c0 f i Graph.obj
 0001:0001f8e0       ?Length@ScreenItemList@@QBEHXZ 004208e0 f i Graph.obj
 0001:0001f900       ?OnScreen@SOL_Plane@@QAEAAVSOL_Rect@@XZ 00420900 f i Graph.obj
 0001:0001f900       ?OnScreen@SOL_Plane@@QBEABVSOL_Rect@@XZ 00420900 f i Graph.obj
 0001:0001f920       ?SIList@SOL_Plane@@QAEAAVScreenItemList@@XZ 00420920 f i Graph.obj
 0001:0001f940       ?Length@PlaneList@@QBEHXZ  00420940 f i Graph.obj
 0001:0001f960       ?Pointer@PlaneList@@QAEPAVSOL_Plane@@H@Z 00420960 f i Graph.obj
 0001:0001f960       ??ARectList@@QBEABVSOL_Rect@@H@Z 00420960 f i Graph.obj
 0001:0001f960       ??APlaneList@@QAEAAVSOL_Plane@@H@Z 00420960 f i Graph.obj
 0001:0001f960       ??ARectList@@QAEAAVSOL_Rect@@H@Z 00420960 f i Graph.obj
 0001:0001f960       ??AScreenItemList@@QAEAAVScreenItem@@H@Z 00420960 f i Graph.obj
 0001:0001f980       ?TopScreenItem@GraphicsMgr@@QBEHH@Z 00420980 f i Graph.obj
 0001:0001f9a0       ?GetPlaneNext@GraphicsMgr@@QAEPAVSOL_Plane@@H@Z 004209a0 f i Graph.obj
 0001:0001f9c0       ?NextScreen@GraphicsMgr@@QAEPAVScreen@@XZ 004209c0 f i Graph.obj
 0001:0001f9e0       ?ScrollScreenItems@GraphicsMgr@@QAEXJHHH@Z 004209e0 f i Graph.obj
 0001:0001fa10       ?VisiblePlane@GraphicsMgr@@QAEPAVSOL_Plane@@H@Z 00420a10 f i Graph.obj
 0001:0001fa40       ??1GraphicsMgr@@UAE@XZ     00420a40 f   Graphmgr.obj
 0001:0001fa9a       ??0GraphicsMgr@@QAE@HH@Z   00420a9a f   Graphmgr.obj
 0001:0001fb45       ?UpdateScreenItem@GraphicsMgr@@QAEXPAVScreenItem@@@Z 00420b45 f   Graphmgr.obj
 0001:0001fbce       ?DeleteScreenItem@GraphicsMgr@@QAEXPAVScreenItem@@H@Z 00420bce f   Graphmgr.obj
 0001:0001fc3c       ?DeleteScreenItem@GraphicsMgr@@QAEXPAVScreenItem@@@Z 00420c3c f   Graphmgr.obj
 0001:0001fc8c       ?UpdatePlane@GraphicsMgr@@QAEXPAVSOL_Plane@@@Z 00420c8c f   Graphmgr.obj
 0001:0001fcf9       ?DeletePlane@GraphicsMgr@@QAEXH@Z 00420cf9 f   Graphmgr.obj
 0001:0001fd2b       ?DeletePlane@GraphicsMgr@@QAEXPAVSOL_Plane@@@Z 00420d2b f   Graphmgr.obj
 0001:0001fd95       ?PalMorphFrameOut@GraphicsMgr@@UAEXPADPAVPlaneShowStyle@@@Z 00420d95 f   Graphmgr.obj
 0001:00020882       ?FrameOut@GraphicsMgr@@UAEXHVSOL_Rect@@@Z 00421882 f   Graphmgr.obj
 0001:00020b95       ?DrawEraseList@GraphicsMgr@@IAEXABVRectList@@ABVSOL_Plane@@@Z 00421b95 f   Graphmgr.obj
 0001:00020cc1       ?DrawScreenItemList@GraphicsMgr@@IAEXAAVDrawList@@@Z 00421cc1 f   Graphmgr.obj
 0001:00020da4       ?NewScreenDim@GraphicsMgr@@QAEXHH@Z 00421da4 f   Graphmgr.obj
 0001:00020ddc       ?IsOnMe@GraphicsMgr@@QAEHAAVScreenItem@@ABVSOL_Plane@@ABVSOL_Point@@H@Z 00421ddc f   Graphmgr.obj
 0001:00020ff5       ?MergeToShowList@GraphicsMgr@@IAEXABVSOL_Rect@@AAVRectList@@H@Z 00421ff5 f   Graphmgr.obj
 0001:0002112d       ?MovieFrameOut@GraphicsMgr@@UAEXVSOL_Rect@@@Z 0042212d f   Graphmgr.obj
 0001:0002116d       ?NowSeen@GraphicsMgr@@QAEHHHAAVSOL_Rect@@@Z 0042216d f   Graphmgr.obj
 0001:000211d0       ??_GGraphicsMgr@@UAEPAXI@Z 004221d0 f i Graphmgr.obj
 0001:000211d0       ??_EGraphicsMgr@@UAEPAXI@Z 004221d0 f i Graphmgr.obj
 0001:00021200       ??1Screen@@QAE@XZ          00422200 f i Graphmgr.obj
 0001:00021250       ??_GRectList@@QAEPAXI@Z    00422250 f i Graphmgr.obj
 0001:00021280       ??_GDrawList@@QAEPAXI@Z    00422280 f i Graphmgr.obj
 0001:000212b0       ?Min@@YAHHH@Z              004222b0 f i Graphmgr.obj
 0001:000212e0       ??K@YAHHABVRatio@@@Z       004222e0 f i Graphmgr.obj
 0001:00021310       ?ClearDeleteCount@ScreenItem@@QAEXXZ 00422310 f i Graphmgr.obj
 0001:00021330       ?GetSkip@ScreenItem@@QAEEXZ 00422330 f i Graphmgr.obj
 0001:00021350       ?OnScreen@ScreenItem@@QAEAAVSOL_Rect@@XZ 00422350 f i Graphmgr.obj
 0001:00021370       ?ReadPix@ScreenItem@@QAEEHH@Z 00422370 f i Graphmgr.obj
 0001:000213c0       ?SetCel@ScreenItem@@QAEXPAVCelObj@@@Z 004223c0 f i Graphmgr.obj
 0001:00021410       ?SetUpdateCount@ScreenItem@@QAEXH@Z 00422410 f i Graphmgr.obj
 0001:00021430       ?SetAddCount@ScreenItem@@QAEXH@Z 00422430 f i Graphmgr.obj
 0001:00021450       ?SetDeleteCount@ScreenItem@@QAEXH@Z 00422450 f i Graphmgr.obj
 0001:00021470       ?SubmitPalette@ScreenItem@@QAEXXZ 00422470 f i Graphmgr.obj
 0001:00021490       ?Draw@DrawItem@@QAEXAAVBuffer@@@Z 00422490 f i Graphmgr.obj
 0001:000214c0       ?Draw@ScreenItem@@QAEXABVBuffer@@ABVSOL_Rect@@@Z 004224c0 f i Graphmgr.obj
 0001:00021500       ??ADrawList@@QAEAAVDrawItem@@H@Z 00422500 f i Graphmgr.obj
 0001:00021520       ?AddCount@SOL_Plane@@QBEHXZ 00422520 f i Graphmgr.obj
 0001:00021520       ?ResX@CelObj@@QBEHXZ       00422520 f i Graphmgr.obj
 0001:00021540       ?Color@SOL_Plane@@QBEEXZ   00422540 f i Graphmgr.obj
 0001:00021540       ?getUpdate@CListData@@QAE_NXZ 00422540 f i Graphmgr.obj
 0001:00021560       ?DefRect@SOL_Plane@@QBEABVSOL_Rect@@XZ 00422560 f i Graphmgr.obj
 0001:00021580       ?PackSiArray@SOL_Plane@@QAEXXZ 00422580 f i Graphmgr.obj
 0001:000215a0       ?SetAddCount@SOL_Plane@@QAEXH@Z 004225a0 f i Graphmgr.obj
 0001:000215c0       ?SetUpdateCount@SOL_Plane@@QAEXH@Z 004225c0 f i Graphmgr.obj
 0001:000215e0       ?Length@RectList@@QBEHXZ   004225e0 f i Graphmgr.obj
 0001:00021600       ?ScreenRect@Screen@@QBEABVSOL_Rect@@XZ 00422600 f i Graphmgr.obj
 0001:00021620       ?Xdim@Screen@@QBEHXZ       00422620 f i Graphmgr.obj
 0001:00021640       ?Ydim@Screen@@QBEHXZ       00422640 f i Graphmgr.obj
 0001:00021660       ?ShowList@Screen@@QAEAAVRectList@@XZ 00422660 f i Graphmgr.obj
 0001:00021680       ?SortPlanes@Screen@@QAEXXZ 00422680 f i Graphmgr.obj
 0001:000216a0       ??0Screen@@QAE@HH@Z        004226a0 f i Graphmgr.obj
 0001:00021750       ?Xdim@GraphicsMgr@@QBEHXZ  00422750 f i Graphmgr.obj
 0001:00021770       ?Ydim@GraphicsMgr@@QBEHXZ  00422770 f i Graphmgr.obj
 0001:00021790       ?RemapMarkRedraw@GraphicsMgr@@QAEXXZ 00422790 f i Graphmgr.obj
 0001:000217b0       ??0GraphicsMgrWin@@QAE@HH@Z 004227b0 f   Graphmw.obj
 0001:00021ae3       ??1GraphicsMgrWin@@UAE@XZ  00422ae3 f   Graphmw.obj
 0001:00021bde       ?AlterVMAP@GraphicsMgrWin@@UAEXPBVSOLPalette@@0HPAD@Z 00422bde f   Graphmw.obj
 0001:000220a8       ?ShowBits@GraphicsMgrWin@@MAEXXZ 004230a8 f   Graphmw.obj
 0001:00022265       ?ShowRect@GraphicsMgrWin@@IAEXPBVSOL_Rect@@PAE@Z 00423265 f   Graphmw.obj
 0001:00022365       ?PlayMovie@GraphicsMgrWin@@UAEXPADHHH@Z 00423365 f   Graphmw.obj
 0001:00022380       ?SetVideoForMovies@GraphicsMgrWin@@UAEXXZ 00423380 f   Graphmw.obj
 0001:0002238b       ?SetVideoForSpeed@GraphicsMgrWin@@UAEXXZ 0042338b f   Graphmw.obj
 0001:00022396       ?TimingTest@GraphicsMgrWin@@QAEXXZ 00423396 f   Graphmw.obj
 0001:00022584       ?Repaint@GraphicsMgrWin@@UAEXABVSOL_Rect@@@Z 00423584 f   Graphmw.obj
 0001:000225b2       ?ResizeVmap@GraphicsMgrWin@@MAEXHH@Z 004235b2 f   Graphmw.obj
 0001:000225cd       ?KIsHiRes@@YAXPAF@Z        004235cd f   Graphmw.obj
 0001:00022611       ?SCursorClr@GraphicsMgrWin@@QAEXXZ 00423611 f   Graphmw.obj
 0001:00022722       ?SCursorWin@GraphicsMgrWin@@QAEXXZ 00423722 f   Graphmw.obj
 0001:0002280a       ?PutMovieRect@@YAXPAE0HPAVSOL_Rect@@PAVSOL_Point@@@Z 0042380a f   Graphmw.obj
 0001:000228b3       ?PutMovieRectBlack@@YAXPAE0HPAVSOL_Rect@@PAVSOL_Point@@@Z 004238b3 f   Graphmw.obj
 0001:00022971       ?PutMovieRectDbl@@YAXPAE0HPAVSOL_Rect@@PAVSOL_Point@@@Z 00423971 f   Graphmw.obj
 0001:00022a1a       ?PutMovieRectDblBlack@@YAXPAE0HPAVSOL_Rect@@PAVSOL_Point@@@Z 00423a1a f   Graphmw.obj
 0001:00022ae0       ??_GGraphicsMgrWin@@UAEPAXI@Z 00423ae0 f i Graphmw.obj
 0001:00022ae0       ??_EGraphicsMgrWin@@UAEPAXI@Z 00423ae0 f i Graphmw.obj
 0001:00022b10       ?Get@MemID@@QAEXW4MemType@@IW4ReservedHandle@@I@Z 00423b10 f i Graphmw.obj
 0001:00022b50       ??ASOLPalette@@QAEAAVRgb24F@@H@Z 00423b50 f i Graphmw.obj
 0001:00022b50       ??ASOLPalette@@QBEABVRgb24F@@H@Z 00423b50 f i Graphmw.obj
 0001:00022b70       ??0PaletteMgrIWin@@QAE@XZ  00423b70 f i Graphmw.obj
 0001:00022bd0       ?Current@PaletteMgrIndex@@UBEABVSOLPalette@@XZ 00423bd0 f i Graphmw.obj
 0001:00022bf0       ?Source@PaletteMgrIndex@@UBEABVSOLPalette@@XZ 00423bf0 f i Graphmw.obj
 0001:00022c10       ?Next@PaletteMgrIndex@@UBEABVSOLPalette@@XZ 00423c10 f i Graphmw.obj
 0001:00022c30       ?CycleMap@PaletteMgrIndex@@UBEPBEXZ 00423c30 f i Graphmw.obj
 0001:00022c50       ?VaryPercent@PaletteMgrIndex@@UBEHXZ 00423c50 f i Graphmw.obj
 0001:00022c80       ?VaryPause@PaletteMgrIndex@@UAEXXZ 00423c80 f i Graphmw.obj
 0001:00022cb0       ??_EPaletteMgrIWin@@UAEPAXI@Z 00423cb0 f i Graphmw.obj
 0001:00022cb0       ??_GPaletteMgrIWin@@UAEPAXI@Z 00423cb0 f i Graphmw.obj
 0001:00022ce0       ??1PaletteMgrIWin@@UAE@XZ  00423ce0 f i Graphmw.obj
 0001:00022d30       ??0PaletteMgrTWin@@QAE@XZ  00423d30 f i Graphmw.obj
 0001:00022d90       ??0PaletteMgrTrue@@QAE@XZ  00423d90 f i Graphmw.obj
 0001:00022db0       ??_GPaletteMgrTrue@@UAEPAXI@Z 00423db0 f i Graphmw.obj
 0001:00022db0       ??_EPaletteMgrTrue@@UAEPAXI@Z 00423db0 f i Graphmw.obj
 0001:00022de0       ??1PaletteMgrTrue@@UAE@XZ  00423de0 f i Graphmw.obj
 0001:00022e00       ?UpdateHardware@PaletteMgrTWin@@UAEHXZ 00423e00 f i Graphmw.obj
 0001:00022e00       ?UpdateHardware@PaletteMgrIWin@@UAEHXZ 00423e00 f i Graphmw.obj
 0001:00022e30       ??_GPaletteMgrTWin@@UAEPAXI@Z 00423e30 f i Graphmw.obj
 0001:00022e30       ??_EPaletteMgrTWin@@UAEPAXI@Z 00423e30 f i Graphmw.obj
 0001:00022e60       ??1PaletteMgrTWin@@UAE@XZ  00423e60 f i Graphmw.obj
 0001:00022eb0       ?ScreenCount@GraphicsMgrWin@@UBEHXZ 00423eb0 f i Graphmw.obj
 0001:00022ec0       ?VisibleScreen@GraphicsMgrWin@@UAEAAVScreen@@XZ 00423ec0 f i Graphmw.obj
 0001:00022ee0       ?ShakeScreen@GraphicsMgrWin@@UAEXHH@Z 00423ee0 f i Graphmw.obj
 0001:00022ef0       ?GPalette@GraphicsMgrWin@@UAEAAVPaletteMgr@@XZ 00423ef0 f i Graphmw.obj
 0001:00022f10       ?GCursor@GraphicsMgrWin@@UAEAAVSOL_Cursor@@XZ 00423f10 f i Graphmw.obj
 0001:00022f30       ?PriMap@GraphicsMgrWin@@UAEAAVBuffer@@XZ 00423f30 f i Graphmw.obj
 0001:00022f50       ?CalcLists@GraphicsMgrWin@@MAEXPAPAVDrawList@@PAPAVRectList@@AAVSOL_Rect@@@Z 00423f50 f i Graphmw.obj
 0001:00022f80       ?CurrBuffer@GraphicsMgrWin@@MAEPAVBuffer@@XZ 00423f80 f i Graphmw.obj
 0001:00022fa0       ?TrueColor@GraphicsMgrWin@@MBEHXZ 00423fa0 f i Graphmw.obj
 0001:00022fb0       ?UpdateScreen@GraphicsMgrWin@@UAEXXZ 00423fb0 f i Graphmw.obj
 0001:00022fd0       ??4Screen@@QAEAAV0@ABV0@@Z 00423fd0 f i Graphmw.obj
 0001:00023010       ?HotkeyRequest@@YAXXZ      00424010 f   Hotkey.obj
 0001:00023015       ?Hotkey@@YAXXZ             00424015 f   Hotkey.obj
 0001:00023020       ?MapToDir@KbdMgr@@UBEXPAVSOL_Event@@@Z 00424020 f   Kbdmgr.obj
 0001:000230c0       ?HandleKey@KbdMgrWin@@QAEHIGJ@Z 004240c0 f   Kbdmgrw.obj
 0001:00023284       ?KeyEvent@KbdMgrWin@@AAEXG@Z 00424284 f   Kbdmgrw.obj
 0001:000232d0       ?Get@KbdWin@@UAEGXZ        004242d0 f   Kbdw.obj
 0001:000232de       ?Modifiers@KbdWin@@UAEGXZ  004242de f   Kbdw.obj
 0001:00023339       ?Reset@KbdWin@@UAEXXZ      00424339 f   Kbdw.obj
 0001:00023350       ?KDummy@@YAXPAF@Z          00424350 f   Kernel.obj
 0001:00023360       ?InitLanguage@@YAXXZ       00424360 f   Language.obj
 0001:00023440       ?DrawThin@SOL_Line@@QAEXEHHVMemID@@H@Z 00424440 f   Line.obj
 0001:000239b8       ?DrawThick@SOL_Line@@QAEXEHHHVMemID@@H@Z 004249b8 f   Line.obj
 0001:000241f0       ?at@SOL_List@@QAEGH@Z      004251f0 f   List.obj
 0001:00024223       ?addAfter@SOL_List@@QAEHGG@Z 00425223 f   List.obj
 0001:0002428a       ?addBefore@SOL_List@@QAEHGG@Z 0042528a f   List.obj
 0001:000242ee       ?addToFront@SOL_List@@QAEXG@Z 004252ee f   List.obj
 0001:00024330       ?addToEnd@SOL_List@@QAEXG@Z 00425330 f   List.obj
 0001:0002437b       ?moveToFront@SOL_List@@QAEHG@Z 0042537b f   List.obj
 0001:000243b7       ?moveToEnd@SOL_List@@QAEHG@Z 004253b7 f   List.obj
 0001:000243f3       ?del@SOL_List@@QAEHG@Z     004253f3 f   List.obj
 0001:0002444d       ?sortByValue@SOL_List@@QAEXH@Z 0042544d f   List.obj
 0001:00024563       ?sortByProperty@SOL_List@@QAEXHH@Z 00425563 f   List.obj
 0001:0002469e       ?indexOf@SOL_List@@QAEHG@Z 0042569e f   List.obj
 0001:0002470b       ?lock@SOL_List@@QAEXXZ     0042570b f   List.obj
 0001:0002473c       ?unlock@SOL_List@@QAEXXZ   0042573c f   List.obj
 0001:0002476d       ?KList@@YAXPAF@Z           0042576d f   List.obj
 0001:00025730       ?createElements@SOL_List@@QAEXXZ 00426730 f i List.obj
 0001:00025780       ?unlock@Array@@QAEXXZ      00426780 f i List.obj
 0001:000257a0       ?Get@SOL_ListID@@QAEXXZ    004267a0 f i List.obj
 0001:00025800       ?KLongInt@@YAXPAF@Z        00426800 f   Longint.obj
 0001:00025c60       ??0LZSS@@QAE@XZ            00426c60 f   Lzss.obj
 0001:00025d1e       ??1LZSS@@QAE@XZ            00426d1e f   Lzss.obj
 0001:00025d7f       ?InitTree@LZSS@@AAEXXZ     00426d7f f   Lzss.obj
 0001:00025de4       ?InsertNode@LZSS@@AAEXF@Z  00426de4 f   Lzss.obj
 0001:00026071       ?DeleteNode@LZSS@@AAEXF@Z  00427071 f   Lzss.obj
 0001:0002628a       ?Encode@LZSS@@QAEJPADJ0@Z  0042728a f   Lzss.obj
 0001:0002665d       ?Decode@LZSS@@QAEJPADJ0J@Z 0042765d f   Lzss.obj
 0001:000268c0       ??0MagnifyView@@QAE@VObjectID@@PAV0@@Z 004278c0 f   Magnify.obj
 0001:00027133       ??1MagnifyView@@QAE@XZ     00428133 f   Magnify.obj
 0001:0002715f       ?FillData@MagnifyView@@QAEXVSOL_Point@@@Z 0042815f f   Magnify.obj
 0001:00027370       ?Update@MagnifyView@@QAEXXZ 00428370 f   Magnify.obj
 0001:00027810       ?SetInsetRect@ScreenItem@@QAEXABVSOL_Rect@@@Z 00428810 f i Magnify.obj
 0001:00027840       ?sqrt@@YAIK@Z              00428840 f   Math.obj
 0001:000278bd       ?LCGRandom@@YAKXZ          004288bd f   Math.obj
 0001:000278f5       ?LCGRandomA@@YAKXZ         004288f5 f   Math.obj
 0001:00027914       ?LCGRandomB@@YAKXZ         00428914 f   Math.obj
 0001:00027933       ?KAbs@@YAXPAF@Z            00428933 f   Math.obj
 0001:00027966       ?KSqrt@@YAXPAF@Z           00428966 f   Math.obj
 0001:000279a2       ?KMulDiv@@YAXPAF@Z         004289a2 f   Math.obj
 0001:00027a94       ?KGetAngle@@YAXPAF@Z       00428a94 f   Math.obj
 0001:00027aeb       ?KGetDistance@@YAXPAF@Z    00428aeb f   Math.obj
 0001:00027bbd       ?KSinMult@@YAXPAF@Z        00428bbd f   Math.obj
 0001:00027bdf       ?KCosMult@@YAXPAF@Z        00428bdf f   Math.obj
 0001:00027c01       ?KSinDiv@@YAXPAF@Z         00428c01 f   Math.obj
 0001:00027c23       ?KCosDiv@@YAXPAF@Z         00428c23 f   Math.obj
 0001:00027c45       ?KATan@@YAXPAF@Z           00428c45 f   Math.obj
 0001:00027c77       ?KRandom@@YAXPAF@Z         00428c77 f   Math.obj
 0001:00027d39       ?KRandomA@@YAXPAF@Z        00428d39 f   Math.obj
 0001:00027e0d       ?KReadNumber@@YAXPAF@Z     00428e0d f   Math.obj
 0001:00027e28       ?RPtToAngle@@YAHPAVSOL_Point@@0@Z 00428e28 f   Math.obj
 0001:00027e4f       ?ScaledSin@@YAJH@Z         00428e4f f   Math.obj
 0001:00027f33       ?ScaledCos@@YAJH@Z         00428f33 f   Math.obj
 0001:00027fd7       ?ATan@@YAHHHHH@Z           00428fd7 f   Math.obj
 0001:000281a0       ?CosDiv@@YAHHJ@Z           004291a0 f i Math.obj
 0001:000281d0       ?SinMult@@YAHHJ@Z          004291d0 f i Math.obj
 0001:000281f0       ?CosMult@@YAHHJ@Z          004291f0 f i Math.obj
 0001:00028210       ?SinDiv@@YAHHJ@Z           00429210 f i Math.obj
 0001:00028240       ?Attrs@MemID@@QBEIXZ       00429240 f   Memid.obj
 0001:0002825f       ?GetMemType@MemID@@QBE?AW4MemType@@XZ 0042925f f   Memid.obj
 0001:0002827e       ?GetMemTypeStr@MemID@@QBEPBDXZ 0042927e f   Memid.obj
 0001:0002829d       ?Clear@MemID@@QBEXXZ       0042929d f   Memid.obj
 0001:000282b2       ?Critical@MemID@@QBEXH@Z   004292b2 f   Memid.obj
 0001:000282d5       ?Fill@MemID@@QBEXE@Z       004292d5 f   Memid.obj
 0001:00028311       ?Lock@MemID@@QBEPAXXZ      00429311 f   Memid.obj
 0001:00028330       ?Unlock@MemID@@QBEPAXXZ    00429330 f   Memid.obj
 0001:0002834f       ?SetDiscardable@MemID@@QBEXXZ 0042934f f   Memid.obj
 0001:0002836e       ?SetNotDiscardable@MemID@@QBEXXZ 0042936e f   Memid.obj
 0001:0002838d       ?Realloc@MemID@@QBEPAXI@Z  0042938d f   Memid.obj
 0001:000283ba       ?Read@MemID@@QBEHH@Z       004293ba f   Memid.obj
 0001:000283ea       ?Read@MemID@@QBEHHII@Z     004293ea f   Memid.obj
 0001:00028414       ?Load@MemID@@QAEHW4MemType@@PADIW4ReservedHandle@@@Z 00429414 f   Memid.obj
 0001:0002849d       ?Size@MemID@@QBEIXZ        0042949d f   Memid.obj
 0001:000284e0       ?Critical@MemoryMgr@@QAEXGH@Z 004294e0 f i Memid.obj
 0001:00028530       ?SetDiscardable@MemoryMgr@@QAEXG@Z 00429530 f i Memid.obj
 0001:000285b0       ?SetNotDiscardable@MemoryMgr@@QAEXG@Z 004295b0 f i Memid.obj
 0001:00028630       ?GetMemType@MemoryMgr@@QAE?AW4MemType@@G@Z 00429630 f i Memid.obj
 0001:00028660       ?GetMemAttrs@MemoryMgr@@QAEIG@Z 00429660 f i Memid.obj
 0001:00028690       ??AMemID@@QBEAADI@Z        00429690 f i Memid.obj
 0001:00028713       ?CheckHeap@@YAXPADH@Z      00429713 f   Memmgr.obj
 0001:0002874e       ?_ValidateMemID@@YAXVMemID@@PADH@Z 0042974e f   Memmgr.obj
 0001:000288d7       ?DescribePrevMemID@@YAXVMemID@@@Z 004298d7 f   Memmgr.obj
 0001:0002893b       ??0MemoryMgr@@QAE@XZ       0042993b f   Memmgr.obj
 0001:0002896c       ?Init@MemoryMgr@@QAEXI@Z   0042996c f   Memmgr.obj
 0001:00028c06       ?GetNewDescriptor@MemoryMgr@@QAEGW4ReservedHandle@@@Z 00429c06 f   Memmgr.obj
 0001:00028d49       ?GetMoreDescriptors@MemoryMgr@@QAEXI@Z 00429d49 f   Memmgr.obj
 0001:00028d69       ?FreeDescriptor@MemoryMgr@@QAEXG@Z 00429d69 f   Memmgr.obj
 0001:00028dea       ?Alloc@MemoryMgr@@QAEGIIIPAUMemClient@@DW4ReservedHandle@@@Z 00429dea f   Memmgr.obj
 0001:000290dd       ?Free@MemoryMgr@@QAEXG@Z   0042a0dd f   Memmgr.obj
 0001:0002937a       ?FreeMemory@MemoryMgr@@QAEIXZ 0042a37a f   Memmgr.obj
 0001:00029390       ?TotalMemory@MemoryMgr@@QAEIXZ 0042a390 f   Memmgr.obj
 0001:000293f8       ?Purge@MemoryMgr@@QAEGI@Z  0042a3f8 f   Memmgr.obj
 0001:00029408       ?Pack@MemoryMgr@@QAEII@Z   0042a408 f   Memmgr.obj
 0001:00029418       ?Lock@MemoryMgr@@QAEPAXG@Z 0042a418 f   Memmgr.obj
 0001:000294da       ?Unlock@MemoryMgr@@QAEPAXG@Z 0042a4da f   Memmgr.obj
 0001:00029582       ?Realloc@MemoryMgr@@QAEXGI@Z 0042a582 f   Memmgr.obj
 0001:00029713       ?Split@MemoryMgr@@QAEGGHIIPAUMemClient@@@Z 0042a713 f   Memmgr.obj
 0001:00029723       ??4Descriptor@@QAEAAV0@ABVSaveDescriptor@@@Z 0042a723 f   Memmgr.obj
 0001:00029761       ?KPurge@@YAXPAF@Z          0042a761 f   Memmgr.obj
 0001:00029786       ?KMemoryInfo@@YAXPAF@Z     0042a786 f   Memmgr.obj
 0001:00029873       ?GetHandle@MemoryMgr@@QAEGPAX@Z 0042a873 f   Memmgr.obj
 0001:00029883       ?NotValid@MemoryMgr@@QAEXG@Z 0042a883 f   Memmgr.obj
 0001:00029950       ??_GMemoryMgr@@UAEPAXI@Z   0042a950 f i Memmgr.obj
 0001:00029950       ??_EMemoryMgr@@UAEPAXI@Z   0042a950 f i Memmgr.obj
 0001:00029980       ??1MemoryMgr@@UAE@XZ       0042a980 f i Memmgr.obj
 0001:000299a0       ??0Descriptor@@QAE@XZ      0042a9a0 f i Memmgr.obj
 0001:000299d0       ??0MemInfo@@QAE@XZ         0042a9d0 f i Memmgr.obj
 0001:000299f0       ??2Descriptor@@SAPAXIPAX@Z 0042a9f0 f i Memmgr.obj
 0001:00029a00       ?GetSysMemAvail@MemoryMgrWin@@UAEIXZ 0042aa00 f   Memmgrw.obj
 0001:00029a10       ?GetSysMem@MemoryMgrWin@@UAEPADI@Z 0042aa10 f   Memmgrw.obj
 0001:00029a68       ??1MemoryMgrWin@@UAE@XZ    0042aa68 f   Memmgrw.obj
 0001:00029ae0       ?GetConvMemAvail@MemoryMgrWin@@UAEIXZ 0042aae0 f   Memmgrw.obj
 0001:00029aed       ?GetConvMem@MemoryMgrWin@@UAEPADI@Z 0042aaed f   Memmgrw.obj
 0001:00029b04       ?FreeConvMem@MemoryMgrWin@@UAEXPAD@Z 0042ab04 f   Memmgrw.obj
 0001:00029b19       ?GetWindowsMemory@@YAXXZ   0042ab19 f   Memmgrw.obj
 0001:00029b32       ?AllocWinMem@@YAPAXHH@Z    0042ab32 f   Memmgrw.obj
 0001:00029b39       ?FreeWinMem@@YAXPAXH@Z     0042ab39 f   Memmgrw.obj
 0001:00029b3e       ?BaseMem@@YAHXZ            0042ab3e f   Memmgrw.obj
 0001:00029b45       ?ExtendedMem@@YAHXZ        0042ab45 f   Memmgrw.obj
 0001:00029b50       ??_EMemoryMgrWin@@UAEPAXI@Z 0042ab50 f i Memmgrw.obj
 0001:00029b50       ??_GMemoryMgrWin@@UAEPAXI@Z 0042ab50 f i Memmgrw.obj
 0001:00029b80       ?GetMemTypeFromStr@@YA?AW4MemType@@PBD@Z 0042ab80 f   Memtype.obj
 0001:00029b93       ?GetSCITypeFromStr@@YA?AW4MemType@@PBD@Z 0042ab93 f   Memtype.obj
 0001:00029ba6       ?GetMemTypeStr@@YAPBDW4MemType@@@Z 0042aba6 f   Memtype.obj
 0001:00029bb9       ?GetSCIMemTypeStr@@YAPBDW4MemType@@@Z 0042abb9 f   Memtype.obj
 0001:00029bcc       ?AddStat@MemTypes@@QAEXW4MemType@@IHHHH@Z 0042abcc f   Memtype.obj
 0001:00029c42       ?ClearStats@MemTypes@@QAEXXZ 0042ac42 f   Memtype.obj
 0001:00029c8d       ?FindMemTypeDesc@MemTypes@@QAEPAVMemTypeDesc@@W4MemType@@@Z 0042ac8d f   Memtype.obj
 0001:00029cd6       ?GetTypeFromStr@MemTypes@@QAE?AW4MemType@@PBD@Z 0042acd6 f   Memtype.obj
 0001:00029d2d       ?GetSCITypeFromStr@MemTypes@@QAE?AW4MemType@@PBD@Z 0042ad2d f   Memtype.obj
 0001:00029d84       ?GetMemTypeStr@MemTypes@@QAEPBDW4MemType@@@Z 0042ad84 f   Memtype.obj
 0001:00029dcc       ?GetSCIMemTypeStr@MemTypes@@QAEPBDW4MemType@@@Z 0042adcc f   Memtype.obj
 0001:00029e14       ?Compare@MemTypes@@CAHPBX0@Z 0042ae14 f   Memtype.obj
 0001:00029e38       ?MakeStatsStr@MemTypes@@QAE?AVTextID@@XZ 0042ae38 f   Memtype.obj
 0001:00029ef5       ?GetMemTypeStr@MemoryMgr@@QAEPBDG@Z 0042aef5 f   Memtype.obj
 0001:00029f1a       ?MakeMemTypeDspStr@MemoryMgr@@QAE?AVTextID@@XZ 0042af1a f   Memtype.obj
 0001:0002a00f       ?TotalType@MemoryMgr@@QAEHW4MemType@@@Z 0042b00f f   Memtype.obj
 0001:0002a081       ?MakeMemIDListStr@MemoryMgr@@QAE?AVTextID@@HPAHH@Z 0042b081 f   Memtype.obj
 0001:0002a150       ?Update@MemTypeStat@@QAEXIHHHH@Z 0042b150 f i Memtype.obj
 0001:0002a210       ?Clear@MemTypeStat@@QAEXXZ 0042b210 f i Memtype.obj
 0001:0002a280       ?MakeStr@MemTypeStat@@QAEPADXZ 0042b280 f i Memtype.obj
 0001:0002a4b9       ?KMessage@@YAXPAF@Z        0042b4b9 f   Message.obj
 0001:0002ae54       ?Init@MsgStack@@QAEXGEEEE@Z 0042be54 f   Message.obj
 0001:0002ae8d       ?Push@MsgStack@@QAEXEEEE@Z 0042be8d f   Message.obj
 0001:0002af11       ?Top@MsgStack@@QAE?AUMsgEntry@@XZ 0042bf11 f   Message.obj
 0001:0002af6b       ?Pop@MsgStack@@QAEHXZ      0042bf6b f   Message.obj
 0001:0002af93       ?IncSeq@MsgStack@@QAEXXZ   0042bf93 f   Message.obj
 0001:0002afba       ??0MsgStackStack@@QAE@XZ   0042bfba f   Message.obj
 0001:0002afe4       ?Push@MsgStackStack@@QAEXAAUMsgStack@@@Z 0042bfe4 f   Message.obj
 0001:0002b05c       ?Pop@MsgStackStack@@QAE?AUMsgStack@@XZ 0042c05c f   Message.obj
 0001:0002b0f0       ?Get@MsgStackID@@QAEXXZ    0042c0f0 f i Message.obj
 0001:0002b130       ?KBaseSetter@@YAXPAF@Z     0042c130 f   Motion.obj
 0001:0002b3f5       ?KCelRect@@YAXPAF@Z        0042c3f5 f   Motion.obj
 0001:0002b632       ?KDirLoop@@YAXPAF@Z        0042c632 f   Motion.obj
 0001:0002b65a       ?KInitBresen@@YAXPAF@Z     0042c65a f   Motion.obj
 0001:0002b9ad       ?KDoBresen@@YAXPAF@Z       0042c9ad f   Motion.obj
 0001:0002bca1       ?KSetJump@@YAXPAF@Z        0042cca1 f   Motion.obj
 0001:0002be54       ?KCantBeHere@@YAXPAF@Z     0042ce54 f   Motion.obj
 0001:0002c0c0       ?GetIndexedPropAddr@ObjectID@@QBEPBFH@Z 0042d0c0 f i Motion.obj
 0001:0002c109       ?KHaveMouse@@YAXPAF@Z      0042d109 f   Mouse.obj
 0001:0002c138       ?KSetCursor@@YAXPAF@Z      0042d138 f   Mouse.obj
 0001:0002c2c8       ?KVibrateMouse@@YAXPAF@Z   0042d2c8 f   Mouse.obj
 0001:0002c31f       ?KSetHotRectangles@@YAXPAF@Z 0042d31f f   Mouse.obj
 0001:0002c3af       ?SetupHotRectangles@SOL_Mouse@@UAEXHVMemID@@@Z 0042d3af f   Mouse.obj
 0001:0002c3e6       ?CheckHotRectangles@SOL_Mouse@@UAEXAAVSOL_Point@@@Z 0042d3e6 f   Mouse.obj
 0001:0002c55b       ??0MouseWin@@QAE@XZ        0042d55b f   Mousew.obj
 0001:0002c5e2       ??1MouseWin@@UAE@XZ        0042d5e2 f   Mousew.obj
 0001:0002c5fe       ?GlobalPos@MouseWin@@UBEHPAVSOL_Point@@@Z 0042d5fe f   Mousew.obj
 0001:0002c61d       ?GlobalPosSci@MouseWin@@UBEHPAVSOL_Point@@@Z 0042d61d f   Mousew.obj
 0001:0002c65e       ?Exists@MouseWin@@UBEHXZ   0042d65e f   Mousew.obj
 0001:0002c66e       ?SetPos@MouseWin@@UAEXABVSOL_Point@@@Z 0042d66e f   Mousew.obj
 0001:0002c689       ?SetRestrictRect@MouseWin@@UAEXABVSOL_Rect@@@Z 0042d689 f   Mousew.obj
 0001:0002c6b8       ?ClearRestrictRect@MouseWin@@UAEXXZ 0042d6b8 f   Mousew.obj
 0001:0002c6ee       ?WinMouseButton@MouseWin@@QAEXIABVSOL_Point@@@Z 0042d6ee f   Mousew.obj
 0001:0002c835       ??0MouseWinClr@@QAE@XZ     0042d835 f   Mousew.obj
 0001:0002c8e7       ??1MouseWinClr@@UAE@XZ     0042d8e7 f   Mousew.obj
 0001:0002c950       ?GlobalPos@MouseWinClr@@UBEHPAVSOL_Point@@@Z 0042d950 f   Mousew.obj
 0001:0002c978       ?GlobalPosSci@MouseWinClr@@UBEHPAVSOL_Point@@@Z 0042d978 f   Mousew.obj
 0001:0002c9e8       ?GetSwiftInfo@MouseWinClr@@UBEHPAH000@Z 0042d9e8 f   Mousew.obj
 0001:0002ca2a       ?Exists@MouseWinClr@@UBEHXZ 0042da2a f   Mousew.obj
 0001:0002ca3a       ?SetRestrictRect@MouseWinClr@@UAEXABVSOL_Rect@@@Z 0042da3a f   Mousew.obj
 0001:0002cb36       ?ClearRestrictRect@MouseWinClr@@UAEXXZ 0042db36 f   Mousew.obj
 0001:0002cb78       ?Setup@MouseWinClr@@UAEXAAVSOL_Cursor@@@Z 0042db78 f   Mousew.obj
 0001:0002cb8d       ?SetPos@MouseWinClr@@UAEXABVSOL_Point@@@Z 0042db8d f   Mousew.obj
 0001:0002cd39       ?IsSwift@MouseWinClr@@UBEHXZ 0042dd39 f   Mousew.obj
 0001:0002cd49       ?WinMouseButton@MouseWinClr@@QAEXIABVSOL_Point@@@Z 0042dd49 f   Mousew.obj
 0001:0002ce30       ??1SOL_Mouse@@UAE@XZ       0042de30 f i Mousew.obj
 0001:0002ce50       ??1PointerDevice@@UAE@XZ   0042de50 f i Mousew.obj
 0001:0002ce70       ??_GPointerDevice@@UAEPAXI@Z 0042de70 f i Mousew.obj
 0001:0002ce70       ??_EPointerDevice@@UAEPAXI@Z 0042de70 f i Mousew.obj
 0001:0002cea0       ?GetSwiftInfo@SOL_Mouse@@UBEHPAH000@Z 0042dea0 f i Mousew.obj
 0001:0002ceb0       ?IsSwift@SOL_Mouse@@UBEHXZ 0042deb0 f i Mousew.obj
 0001:0002cec0       ?Vibrate@SOL_Mouse@@UBEXHHH@Z 0042dec0 f i Mousew.obj
 0001:0002ced0       ?SetHotRectangleStatus@SOL_Mouse@@UAEXH@Z 0042ded0 f i Mousew.obj
 0001:0002cef0       ??_ESOL_Mouse@@UAEPAXI@Z   0042def0 f i Mousew.obj
 0001:0002cef0       ??_GSOL_Mouse@@UAEPAXI@Z   0042def0 f i Mousew.obj
 0001:0002cf20       ??_GMouseWin@@UAEPAXI@Z    0042df20 f i Mousew.obj
 0001:0002cf20       ??_EMouseWin@@UAEPAXI@Z    0042df20 f i Mousew.obj
 0001:0002cf50       ??0SOL_Mouse@@QAE@XZ       0042df50 f i Mousew.obj
 0001:0002cf70       ??0PointerDevice@@QAE@XZ   0042df70 f i Mousew.obj
 0001:0002cf90       ??_EMouseWinClr@@UAEPAXI@Z 0042df90 f i Mousew.obj
 0001:0002cf90       ??_GMouseWinClr@@UAEPAXI@Z 0042df90 f i Mousew.obj
 0001:0002cfc0       ?KSetVideoMode@@YAXPAF@Z   0042dfc0 f   Moview.obj
 0001:0002cfd3       ?KShowMovie@@YAXPAF@Z      0042dfd3 f   Moview.obj
 0001:0002d332       _AviOpen                   0042e332 f   Moview.obj
 0001:0002d4b3       _AviSetPalette             0042e4b3 f   Moview.obj
 0001:0002d574       _AviClose                  0042e574 f   Moview.obj
 0001:0002d5fe       _AviPut                    0042e5fe f   Moview.obj
 0001:0002d9e4       _AviPutDouble              0042e9e4 f   Moview.obj
 0001:0002dd16       _AviPlay                   0042ed16 f   Moview.obj
 0001:0002dee6       _AviWaitEvent              0042eee6 f   Moview.obj
 0001:0002dfe6       _AviStop                   0042efe6 f   Moview.obj
 0001:0002e046       _AviPause                  0042f046 f   Moview.obj
 0001:0002e0aa       _AviCue                    0042f0aa f   Moview.obj
 0001:0002e0fe       _AviSeek                   0042f0fe f   Moview.obj
 0001:0002e166       _AviNotify                 0042f166 f   Moview.obj
 0001:0002e17b       _AviResume                 0042f17b f   Moview.obj
 0001:0002e1df       ?InitMovie@@YAXXZ          0042f1df f   Moview.obj
 0001:0002e1e4       ?TermMovie@@YAXXZ          0042f1e4 f   Moview.obj
 0001:0002e1e9       _AviGetLength              0042f1e9 f   Moview.obj
 0001:0002e24f       _AviGetPosition            0042f24f f   Moview.obj
 0001:0002e29a       _AviGetFramesSkipped       0042f29a f   Moview.obj
 0001:0002e2e5       _AviGetStatus              0042f2e5 f   Moview.obj
 0001:0002e300       ??0MsgMgr@@QAE@XZ          0042f300 f   Msg.obj
 0001:0002e342       ?Init@MsgMgr@@UAEXXZ       0042f342 f   Msg.obj
 0001:0002e3ec       ?AddFatalStr@MsgMgr@@QAEXPAD@Z 0042f3ec f   Msg.obj
 0001:0002e48e       ?AddPMIP@MsgMgr@@QAEXPAD@Z 0042f48e f   Msg.obj
 0001:0002e4e3       ?AddSrcLoc@MsgMgr@@IAEXPAD0H@Z 0042f4e3 f   Msg.obj
 0001:0002e518       ?Alert@MsgMgr@@QAAHHZZ     0042f518 f   Msg.obj
 0001:0002e551       ?Alert@MsgMgr@@QAAHPADZZ   0042f551 f   Msg.obj
 0001:0002e58a       ?Alert@MsgMgr@@QAAHDPADHHZZ 0042f58a f   Msg.obj
 0001:0002e5cb       ?Alert@MsgMgr@@QAAHDPADH0ZZ 0042f5cb f   Msg.obj
 0001:0002e60c       ?AlertOutput@MsgMgr@@MAEHPAD@Z 0042f60c f   Msg.obj
 0001:0002e62f       ?Dump@MsgMgr@@QAAXPADZZ    0042f62f f   Msg.obj
 0001:0002e69e       ?Fatal@MsgMgr@@QAAXHZZ     0042f69e f   Msg.obj
 0001:0002e6d7       ?Fatal@MsgMgr@@QAAXPADZZ   0042f6d7 f   Msg.obj
 0001:0002e710       ?Fatal@MsgMgr@@QAAXDPADHHZZ 0042f710 f   Msg.obj
 0001:0002e751       ?Fatal@MsgMgr@@QAAXDPADH0ZZ 0042f751 f   Msg.obj
 0001:0002e792       ?print@@YAXHPADZZ          0042f792 f   Msg.obj
 0001:0002e7e8       ?FatalOutput@MsgMgr@@MAEXPAD@Z 0042f7e8 f   Msg.obj
 0001:0002eb00       ?Get@MsgMgr@@UAEPADHPAD@Z  0042fb00 f   Msg.obj
 0001:0002ebc1       ?Make@MsgMgr@@IAEPADPADHH0@Z 0042fbc1 f   Msg.obj
 0001:0002ec69       ?Make@MsgMgr@@IAEPADHPAD@Z 0042fc69 f   Msg.obj
 0001:0002ecf4       ?Make@MsgMgr@@IAEPADPADH00@Z 0042fcf4 f   Msg.obj
 0001:0002ed36       ?Make@MsgMgr@@IAEPADPAD0@Z 0042fd36 f   Msg.obj
 0001:0002ed61       ?Mono@MsgMgr@@QAAXPADZZ    0042fd61 f   Msg.obj
 0001:0002ed7f       ?MonoArgs@MsgMgr@@QAEXPAD0@Z 0042fd7f f   Msg.obj
 0001:0002edb6       ?MonoPause@MsgMgr@@QAAXPADZZ 0042fdb6 f   Msg.obj
 0001:0002ee0d       ?MonoStr@MsgMgr@@QAEXPAD@Z 0042fe0d f   Msg.obj
 0001:0002ee29       ?OpenFile@MsgMgr@@IAEHXZ   0042fe29 f   Msg.obj
 0001:0002ee54       ?Read@MsgMgr@@IAEPADHPADH@Z 0042fe54 f   Msg.obj
 0001:0002f118       ?SetQuitStr@MsgMgr@@QAEXPAD@Z 00430118 f   Msg.obj
 0001:0002f13b       ?SetSCIFatalStr@MsgMgr@@QAEXPAD@Z 0043013b f   Msg.obj
 0001:0002f15e       ?AssertFail@@YAHPADH0@Z    0043015e f   Msg.obj
 0001:0002f1af       ?KSetQuitStr@@YAXPAF@Z     004301af f   Msg.obj
 0001:0002f1da       ?KSetFatalStr@@YAXPAF@Z    004301da f   Msg.obj
 0001:0002f24e       ?KMonoOut@@YAXPAF@Z        0043024e f   Msg.obj
 0001:0002f29f       ?Printf@@YAHPADZZ          0043029f f   Msg.obj
 0001:0002f300       ?Name@ObjectID@@QBEPBDXZ   00430300 f i Msg.obj
 0001:0002f330       ??1MsgMgrWin@@QAE@XZ       00430330 f   Msgw.obj
 0001:0002f38e       ?MonoOutput@MsgMgrWin@@UAEXPAD@Z 0043038e f   Msgw.obj
 0001:0002f3c7       ?MonoPosition@MsgMgrWin@@UAEXHH@Z 004303c7 f   Msgw.obj
 0001:0002f45e       ?KNetwork@@YAXPAF@Z        0043045e f   Networkw.obj
 0001:0002f8b6       ?KSID@@YAXPAF@Z            004308b6 f   Networkw.obj
 0001:0002f8fd       ?NetConnect@@YAHPADH@Z     004308fd f   Networkw.obj
 0001:0002fcdc       ?NetConnectIP@@YAHHHHHH@Z  00430cdc f   Networkw.obj
 0001:0002fde6       ?NetDisconnect@@YAHXZ      00430de6 f   Networkw.obj
 0001:0002fe21       ?NetSend@@YAHPAFH@Z        00430e21 f   Networkw.obj
 0001:00030362       ?CNetSend@@YAHPADZZ        00431362 f   Networkw.obj
 0001:0003074b       ?CNetFastSend@@YIHHPAE@Z   0043174b f   Networkw.obj
 0001:000307db       ?PollSocket@@YAHXZ         004317db f   Networkw.obj
 0001:00030b72       ?NetTerminate@@YAXXZ       00431b72 f   Networkw.obj
 0001:00030bb4       ?FlushSocket@@YAXXZ        00431bb4 f   Networkw.obj
 0001:00030cb0       ??0Array@@QAE@HW4ArrayType@@@Z 00431cb0 f i Networkw.obj
 0001:00030cf0       ??0CSCI_Object@@QAE@XZ     00431cf0 f i Networkw.obj
 0001:00030d10       ??0CSCI_WorldObject@@QAE@XZ 00431d10 f i Networkw.obj
 0001:00030d30       ??0CSCI_Actor@@QAE@XZ      00431d30 f i Networkw.obj
 0001:00030d50       ??0CSCI_Prop@@QAE@XZ       00431d50 f i Networkw.obj
 0001:00030d70       ??0CSCI_View@@QAE@XZ       00431d70 f i Networkw.obj
 0001:00030d90       ?get_nServID@CSCI_WorldObject@@QAEHXZ 00431d90 f i Networkw.obj
 0001:00030dc0       ?get_pServIDLo@CSCI_WorldObject@@QAEFXZ 00431dc0 f i Networkw.obj
 0001:00030de0       ?get_pServIDHi@CSCI_WorldObject@@QAEFXZ 00431de0 f i Networkw.obj
 0001:00030e00       ?Data@OCArray@@QAEPAEXZ    00431e00 f i Networkw.obj
 0001:00030e00       ?_Mynode@const_iterator@?$_Tree@HU?$pair@$$CBHVCSCI_WorldObject@@@std@@U_Kfn@?$map@HVCSCI_WorldObject@@U?$less@H@std@@V?$allocator@VCSCI_WorldObject@@@3@@2@U?$less@H@2@V?$allocator@VCSCI_WorldObject@@@2@@std@@QBEPAU_Node@23@XZ 00431e00 f i Networkw.obj
 0001:00030e00       ?_Mynode@const_iterator@?$list@PAVCSkinCtrl@@V?$allocator@PAVCSkinCtrl@@@std@@@std@@QBEPAU_Node@23@XZ 00431e00 f i Networkw.obj
 0001:00030e00       ?Type@Bitmap@@QBEHXZ       00431e00 f i Networkw.obj
 0001:00030e00       ?getFriend@CListData@@QAEHXZ 00431e00 f i Networkw.obj
 0001:00030e00       ?_Mynode@const_iterator@?$list@PAVCVerbRequest@@V?$allocator@PAVCVerbRequest@@@std@@@std@@QBEPAU_Node@23@XZ 00431e00 f i Networkw.obj
 0001:00030e00       ?_Mynode@const_iterator@?$_Tree@VCSkinObj@@U?$pair@$$CBVCSkinObj@@PAVCFastScrollCtrl@@@std@@U_Kfn@?$map@VCSkinObj@@PAVCFastScrollCtrl@@U?$less@VCSkinObj@@@std@@V?$allocator@PAVCFastScrollCtrl@@@4@@3@U?$less@VCSkinObj@@@3@V?$allocator@PAVCFastScrollCtrl@@@3@@std@@QBEPAU_Node@23@XZ 00431e00 f i Networkw.obj
 0001:00030e00       ??B?$_com_ptr_t@V?$_com_IIID@UISkinObjectDisp@@$1?_GUID_6cfc9ba1_fe87_11d2_9dcf_ed29fafe371d@@3U__s_GUID@@A@@@@QBEPAUISkinObjectDisp@@XZ 00431e00 f i Networkw.obj
 0001:00030e00       ?_Mynode@const_iterator@?$list@PAVCMailMsg@@V?$allocator@PAVCMailMsg@@@std@@@std@@QBEPAU_Node@23@XZ 00431e00 f i Networkw.obj
 0001:00030e00       ??BCString@@QBEPBDXZ       00431e00 f i Networkw.obj
 0001:00030e00       ?_Mynode@const_iterator@?$_Tree@PAVCSkinWnd@@PAV1@U_Kfn@?$set@PAVCSkinWnd@@U?$less@PAVCSkinWnd@@@std@@V?$allocator@PAVCSkinWnd@@@3@@std@@U?$less@PAVCSkinWnd@@@4@V?$allocator@PAVCSkinWnd@@@4@@std@@QBEPAU_Node@23@XZ 00431e00 f i Networkw.obj
 0001:00030e00       ?_Mynode@const_iterator@?$list@PADV?$allocator@PAD@std@@@std@@QBEPAU_Node@23@XZ 00431e00 f i Networkw.obj
 0001:00030e00       ?SI@DrawItem@@QAEAAVScreenItem@@XZ 00431e00 f i Networkw.obj
 0001:00030e00       ?_Mynode@const_iterator@?$_Tree@PAUHWND__@@U?$pair@QAUHWND__@@PAVCSkinWnd@@@std@@U_Kfn@?$map@PAUHWND__@@PAVCSkinWnd@@U?$less@PAUHWND__@@@std@@V?$allocator@PAVCSkinWnd@@@4@@3@U?$less@PAUHWND__@@@3@V?$allocator@PAVCSkinWnd@@@3@@std@@QBEPAU_Node@23@XZ 00431e00 f i Networkw.obj
 0001:00030e00       ?GetName@CPrivateTell@@QAEPADXZ 00431e00 f i Networkw.obj
 0001:00030e00       ?_Mynode@const_iterator@?$_Tree@HU?$pair@$$CBHPAVCMailMsgWnd@@@std@@U_Kfn@?$map@HPAVCMailMsgWnd@@U?$less@H@std@@V?$allocator@PAVCMailMsgWnd@@@3@@2@U?$less@H@2@V?$allocator@PAVCMailMsgWnd@@@2@@std@@QBEPAU_Node@23@XZ 00431e00 f i Networkw.obj
 0001:00030e00       ?_Mynode@const_iterator@?$_Tree@V?$basic_string@DU?$char_traits@D@std@@V?$allocator@D@2@@std@@U?$pair@$$CBV?$basic_string@DU?$char_traits@D@std@@V?$allocator@D@2@@std@@PAVCPrivateTell@@@2@U_Kfn@?$map@V?$basic_string@DU?$char_traits@D@std@@V?$allocator@D@2@@std@@PAVCPrivateTell@@U?$less@V?$basic_string@DU?$char_traits@D@std@@V?$allocator@D@2@@std@@@2@V?$allocator@PAVCPrivateTell@@@2@@2@U?$less@V?$basic_string@DU?$char_traits@D@std@@V?$allocator@D@2@@std@@@2@V?$allocator@PAVCPrivateTell@@@2@@std@@QBEPAU_Node@23@XZ 00431e00 f i Networkw.obj
 0001:00030e00       ?_Mynode@const_iterator@?$_Tree@PAUHWND__@@U?$pair@QAUHWND__@@PAVCDropTarget@@@std@@U_Kfn@?$map@PAUHWND__@@PAVCDropTarget@@U?$less@PAUHWND__@@@std@@V?$allocator@PAVCDropTarget@@@4@@3@U?$less@PAUHWND__@@@3@V?$allocator@PAVCDropTarget@@@3@@std@@QBEPAU_Node@23@XZ 00431e00 f i Networkw.obj
 0001:00030e00       ?_Mynode@const_iterator@?$_Tree@VCSCI_WorldObject@@U?$pair@$$CBVCSCI_WorldObject@@PAVCInventoryDlg@@@std@@U_Kfn@?$map@VCSCI_WorldObject@@PAVCInventoryDlg@@U?$less@VCSCI_WorldObject@@@std@@V?$allocator@PAVCInventoryDlg@@@4@@3@U?$less@VCSCI_WorldObject@@@3@V?$allocator@PAVCInventoryDlg@@@3@@std@@QBEPAU_Node@23@XZ 00431e00 f i Networkw.obj
 0001:00030e00       ?Length@DrawList@@QBEHXZ   00431e00 f i Networkw.obj
 0001:00030e00       ?_Mynode@const_iterator@?$_Tree@PAVCSkinCtrl@@PAV1@U_Kfn@?$set@PAVCSkinCtrl@@U?$less@PAVCSkinCtrl@@@std@@V?$allocator@PAVCSkinCtrl@@@3@@std@@U?$less@PAVCSkinCtrl@@@4@V?$allocator@PAVCSkinCtrl@@@4@@std@@QBEPAU_Node@23@XZ 00431e00 f i Networkw.obj
 0001:00030e00       ?_Mynode@const_iterator@?$_Tree@VCSCI_Object@@U?$pair@$$CBVCSCI_Object@@PAVCNoButtonDlg@@@std@@U_Kfn@?$map@VCSCI_Object@@PAVCNoButtonDlg@@U?$less@VCSCI_Object@@@std@@V?$allocator@PAVCNoButtonDlg@@@4@@3@U?$less@VCSCI_Object@@@3@V?$allocator@PAVCNoButtonDlg@@@3@@std@@QBEPAU_Node@23@XZ 00431e00 f i Networkw.obj
 0001:00030e00       ?_Mynode@const_iterator@?$_Tree@PAUHWND__@@U?$pair@QAUHWND__@@PAVCMouseWheelable@@@std@@U_Kfn@?$map@PAUHWND__@@PAVCMouseWheelable@@U?$less@PAUHWND__@@@std@@V?$allocator@PAVCMouseWheelable@@@4@@3@U?$less@PAUHWND__@@@3@V?$allocator@PAVCMouseWheelable@@@3@@std@@QBEPAU_Node@23@XZ 00431e00 f i Networkw.obj
 0001:00030e00       ?_Mynode@const_iterator@?$_Tree@HU?$pair@$$CBHPAVCVerbBtn@@@std@@U_Kfn@?$map@HPAVCVerbBtn@@U?$less@H@std@@V?$allocator@PAVCVerbBtn@@@3@@2@U?$less@H@2@V?$allocator@PAVCVerbBtn@@@2@@std@@QBEPAU_Node@23@XZ 00431e00 f i Networkw.obj
 0001:00030e00       ?_Mynode@const_iterator@?$_Tree@VCString@@U?$pair@$$CBVCString@@VCPerson@@@std@@U_Kfn@?$map@VCString@@VCPerson@@U?$less@VCString@@@std@@V?$allocator@VCPerson@@@4@@3@U?$less@VCString@@@3@V?$allocator@VCPerson@@@3@@std@@QBEPAU_Node@23@XZ 00431e00 f i Networkw.obj
 0001:00030e00       ?_Mynode@const_iterator@?$_Tree@HU?$pair@$$CBHPAVCVerb@@@std@@U_Kfn@?$map@HPAVCVerb@@U?$less@H@std@@V?$allocator@PAVCVerb@@@3@@2@U?$less@H@2@V?$allocator@PAVCVerb@@@2@@std@@QBEPAU_Node@23@XZ 00431e00 f i Networkw.obj
 0001:00030e00       ?_Mynode@const_iterator@?$list@PAVCLookAtItem@@V?$allocator@PAVCLookAtItem@@@std@@@std@@QBEPAU_Node@23@XZ 00431e00 f i Networkw.obj
 0001:00030e00       ?_Mynode@const_iterator@?$_Tree@V?$basic_string@DU?$char_traits@D@std@@V?$allocator@D@2@@std@@U?$pair@$$CBV?$basic_string@DU?$char_traits@D@std@@V?$allocator@D@2@@std@@H@2@U_Kfn@?$map@V?$basic_string@DU?$char_traits@D@std@@V?$allocator@D@2@@std@@HU?$less@V?$basic_string@DU?$char_traits@D@std@@V?$allocator@D@2@@std@@@2@V?$allocator@H@2@@2@U?$less@V?$basic_string@DU?$char_traits@D@std@@V?$allocator@D@2@@std@@@2@V?$allocator@H@2@@std@@QBEPAU_Node@23@XZ 00431e00 f i Networkw.obj
 0001:00030e00       ?_Mynode@const_iterator@?$_Tree@HU?$pair@$$CBHPAVCMailMsg@@@std@@U_Kfn@?$map@HPAVCMailMsg@@U?$less@H@std@@V?$allocator@PAVCMailMsg@@@3@@2@U?$less@H@2@V?$allocator@PAVCMailMsg@@@2@@std@@QBEPAU_Node@23@XZ 00431e00 f i Networkw.obj
 0001:00030e00       ?_Mynode@const_iterator@?$list@PAVCListData@@V?$allocator@PAVCListData@@@std@@@std@@QBEPAU_Node@23@XZ 00431e00 f i Networkw.obj
 0001:00030e00       ??BCComBSTR@ATL@@QBEPAGXZ  00431e00 f i Networkw.obj
 0001:00030e00       ?_Mynode@const_iterator@?$list@PAVCInventoryDlg@@V?$allocator@PAVCInventoryDlg@@@std@@@std@@QBEPAU_Node@23@XZ 00431e00 f i Networkw.obj
 0001:00030e00       ?_Mynode@const_iterator@?$_Tree@V?$basic_string@DU?$char_traits@D@std@@V?$allocator@D@2@@std@@U?$pair@$$CBV?$basic_string@DU?$char_traits@D@std@@V?$allocator@D@2@@std@@VCPoint@@@2@U_Kfn@?$map@V?$basic_string@DU?$char_traits@D@std@@V?$allocator@D@2@@std@@VCPoint@@U?$less@V?$basic_string@DU?$char_traits@D@std@@V?$allocator@D@2@@std@@@2@V?$allocator@VCPoint@@@2@@2@U?$less@V?$basic_string@DU?$char_traits@D@std@@V?$allocator@D@2@@std@@@2@V?$allocator@VCPoint@@@2@@std@@QBEPAU_Node@23@XZ 00431e00 f i Networkw.obj
 0001:00030e00       ?_Mynode@const_iterator@?$_Tree@VCSkinObj@@U?$pair@$$CBVCSkinObj@@PAVCSkinCtrl@@@std@@U_Kfn@?$map@VCSkinObj@@PAVCSkinCtrl@@U?$less@VCSkinObj@@@std@@V?$allocator@PAVCSkinCtrl@@@4@@3@U?$less@VCSkinObj@@@3@V?$allocator@PAVCSkinCtrl@@@3@@std@@QBEPAU_Node@23@XZ 00431e00 f i Networkw.obj
 0001:00030e00       ?_Mynode@const_iterator@?$list@PAVCSkinWnd@@V?$allocator@PAVCSkinWnd@@@std@@@std@@QBEPAU_Node@23@XZ 00431e00 f i Networkw.obj
 0001:00030e10       ?Size@CPackedData@@QAEHXZ  00431e10 f i Networkw.obj
 0001:00030e49       ?NewRoom@RmResList@@QAEXG@Z 00431e49 f   Newroom.obj
 0001:00030ea1       ?KNewRoom@@YAXPAF@Z        00431ea1 f   Newroom.obj
 0001:00030ec0       ??0Object@@QAE@VMemID@@0II@Z 00431ec0 f   Object.obj
 0001:0003103f       ??0Object@@QAE@VMemID@@0@Z 0043203f f   Object.obj
 0001:000311f3       ??1Object@@QAE@XZ          004321f3 f   Object.obj
 0001:000312de       ?AddToObjects@Object@@QAEXXZ 004322de f   Object.obj
 0001:0003134d       ?DeleteFromObjects@Object@@QAEXXZ 0043234d f   Object.obj
 0001:000313df       ?Name@Object@@QAEPBDXZ     004323df f   Object.obj
 0001:00031450       ?RespondsTo@Object@@QAEHG@Z 00432450 f   Object.obj
 0001:0003147f       ?Get@ObjectID@@QAEXVMemID@@II@Z 0043247f f   Object.obj
 0001:000314f5       ?Get@ObjectID@@QAEXV1@@Z   004324f5 f   Object.obj
 0001:0003156e       ?Free@ObjectID@@QAEXXZ     0043256e f   Object.obj
 0001:000315c7       ?Clone@ObjectID@@QAE?AV1@XZ 004325c7 f   Object.obj
 0001:00031601       ??0SelectorDict@@QAE@XZ    00432601 f   Object.obj
 0001:00031636       ??1SelectorDict@@QAE@XZ    00432636 f   Object.obj
 0001:000316f3       ?add@SelectorDict@@QAEXGII@Z 004326f3 f   Object.obj
 0001:000318a3       ?get@SelectorDict@@QAEHG@Z 004328a3 f   Object.obj
 0001:00031941       ?copy@SelectorDict@@QAEXPAV1@@Z 00432941 f   Object.obj
 0001:00031a55       ?GetClass@@YA?AVObjectID@@PBD@Z 00432a55 f   Object.obj
 0001:00031ac1       ?GetSelector@@YAGPBD@Z     00432ac1 f   Object.obj
 0001:00031b15       ?GetSelectorName@@YAPBDGPAD@Z 00432b15 f   Object.obj
 0001:00031b58       _LoadPropOffsets           00432b58 f   Object.obj
 0001:00031bbd       ?KIsObject@@YAXPAF@Z       00432bbd f   Object.obj
 0001:00031be1       ?KRespondsTo@@YAXPAF@Z     00432be1 f   Object.obj
 0001:00031c0d       ?KClone@@YAXPAF@Z          00432c0d f   Object.obj
 0001:00031cae       ?KDisposeClone@@YAXPAF@Z   00432cae f   Object.obj
 0001:00031cf0       ?KFindSelector@@YAXPAF@Z   00432cf0 f   Object.obj
 0001:00031d30       ?KFindClass@@YAXPAF@Z      00432d30 f   Object.obj
 0001:00031d7b       ?KIsKindOf@@YAXPAF@Z       00432d7b f   Object.obj
 0001:00031e40       ??_GSelectorDict@@QAEPAXI@Z 00432e40 f i Object.obj
 0001:00031e70       ?Get@FakeObjectID@@QAEXIIIPAUMemClient@@DW4ReservedHandle@@@Z 00432e70 f i Object.obj
 0001:00031ea0       ??_GObject@@QAEPAXI@Z      00432ea0 f i Object.obj
 0001:00031ed0       ?selectorsSize@SelectorDict@@QAEHXZ 00432ed0 f i Object.obj
 0001:00031ef0       ?offsetsSize@SelectorDict@@QAEHXZ 00432ef0 f i Object.obj
 0001:00031ef0       ?scriptsSize@SelectorDict@@QAEHXZ 00432ef0 f i Object.obj
 0001:00031f10       ?Info@Object@@QAEFXZ       00432f10 f i Object.obj
 0001:00031f30       ?KPackData@@YAXPAF@Z       00432f30 f   Packdata.obj
 0001:00032482       ??0PackedData@@QAE@VObjectID@@@Z 00433482 f   Packdata.obj
 0001:00032535       ??1PackedData@@UAE@XZ      00433535 f   Packdata.obj
 0001:00032554       ?getBits@PackedData@@QAEHH@Z 00433554 f   Packdata.obj
 0001:00032637       ?putBits@PackedData@@QAEXHH@Z 00433637 f   Packdata.obj
 0001:00032766       ?getByte@PackedData@@QAEEXZ 00433766 f   Packdata.obj
 0001:000327d9       ?putByte@PackedData@@QAEXE@Z 004337d9 f   Packdata.obj
 0001:00032860       ?getWord@PackedData@@QAEFXZ 00433860 f   Packdata.obj
 0001:00032892       ?putWord@PackedData@@QAEXF@Z 00433892 f   Packdata.obj
 0001:000328c7       ?getLong@PackedData@@QAEHXZ 004338c7 f   Packdata.obj
 0001:0003291a       ?putLong@PackedData@@QAEXH@Z 0043391a f   Packdata.obj
 0001:00032976       ?getString@PackedData@@QAE?AVTextID@@H@Z 00433976 f   Packdata.obj
 0001:00032a89       ?getCharString@PackedData@@QAEPADH@Z 00433a89 f   Packdata.obj
 0001:00032b87       ?putString@PackedData@@QAEXPADH@Z 00433b87 f   Packdata.obj
 0001:00032bd2       ?putArray@PackedData@@QAEXPAXH@Z 00433bd2 f   Packdata.obj
 0001:00032bef       ?getArray@PackedData@@QAEXPADH@Z 00433bef f   Packdata.obj
 0001:00032cc0       ??_GPackedData@@UAEPAXI@Z  00433cc0 f i Packdata.obj
 0001:00032cc0       ??_EPackedData@@UAEPAXI@Z  00433cc0 f i Packdata.obj
 0001:00032cf0       ??0SOLPalette@@QAE@ABVHunkPalette@@@Z 00433cf0 f   Palette.obj
 0001:00032d21       ??0SOLPalette@@QAE@ABV0@@Z 00433d21 f   Palette.obj
 0001:00032d77       ??0SOLPalette@@QAE@XZ      00433d77 f   Palette.obj
 0001:00032dd5       ??4SOLPalette@@QAEAAV0@ABVHunkPalette@@@Z 00433dd5 f   Palette.obj
 0001:00032f62       ??4SOLPalette@@QAEAAV0@ABV0@@Z 00433f62 f   Palette.obj
 0001:00032fa3       ??8SOLPalette@@QBEHABV0@@Z 00433fa3 f   Palette.obj
 0001:00032fff       ?Match@SOLPalette@@QBEHABVRgb24@@@Z 00433fff f   Palette.obj
 0001:000330e1       ?Match@SOLPalette@@QBEHABVRgb24@@HPAHPBE@Z 004340e1 f   Palette.obj
 0001:000331df       ?Compare@SOLPalette@@QBEHABV1@PAE@Z 004341df f   Palette.obj
 0001:00033258       ?Merge@SOLPalette@@QAEXABV1@@Z 00434258 f   Palette.obj
 0001:000332a6       ?Init@HunkPalette@@QAEXPAX@Z 004342a6 f   Palette.obj
 0001:000332fd       ?SetVersion@HunkPalette@@QAEXH@Z 004342fd f   Palette.obj
 0001:0003338a       ?KPalVary@@YAXPAF@Z        0043438a f   Palette.obj
 0001:00033a27       ?KPalette@@YAXPAF@Z        00434a27 f   Palette.obj
 0001:00033bb3       ?KPalCycle@@YAXPAF@Z       00434bb3 f   Palette.obj
 0001:00033df0       ??0Rgb24F@@QAE@EEEE@Z      00434df0 f i Palette.obj
 0001:00033e20       ??0Rgb24@@QAE@EEE@Z        00434e20 f i Palette.obj
 0001:00033e50       ?PalAddr@HunkPalette@@QBEPAUCompPal@1@XZ 00434e50 f i Palette.obj
 0001:00033e70       ??9Rgb24F@@QBEHABV0@@Z     00434e70 f i Palette.obj
 0001:00033e90       ??8Rgb24F@@QBEHABV0@@Z     00434e90 f i Palette.obj
 0001:00033f00       ?sqr@@YAHH@Z               00434f00 f i Palette.obj
 0001:00033f10       ??0PaletteMgrIndex@@QAE@XZ 00434f10 f   Palmgri.obj
 0001:000340c1       ??1PaletteMgrIndex@@UAE@XZ 004350c1 f   Palmgri.obj
 0001:0003417c       ?Submit@PaletteMgrIndex@@UAEXAAVHunkPalette@@@Z 0043517c f   Palmgri.obj
 0001:00034248       ?Submit@PaletteMgrIndex@@UAEXABVSOLPalette@@@Z 00435248 f   Palmgri.obj
 0001:000342d8       ?ApplyAll@PaletteMgrIndex@@IAEXXZ 004352d8 f   Palmgri.obj
 0001:000342fb       ?SetCycle@PaletteMgrIndex@@UAEXHHHH@Z 004352fb f   Palmgri.obj
 0001:000345af       ?DoCycle@PaletteMgrIndex@@MAEXHH@Z 004355af f   Palmgri.obj
 0001:000346a8       ?ApplyCycles@PaletteMgrIndex@@IAEXXZ 004356a8 f   Palmgri.obj
 0001:00034964       ?ApplyAllCycles@PaletteMgrIndex@@IAEXXZ 00435964 f   Palmgri.obj
 0001:00034b2a       ?CycleOn@PaletteMgrIndex@@UAEXH@Z 00435b2a f   Palmgri.obj
 0001:00034bd5       ?CycleAllOn@PaletteMgrIndex@@UAEXXZ 00435bd5 f   Palmgri.obj
 0001:00034c52       ?CycleAllPause@PaletteMgrIndex@@UAEXXZ 00435c52 f   Palmgri.obj
 0001:00034cdd       ?CyclePause@PaletteMgrIndex@@UAEXH@Z 00435cdd f   Palmgri.obj
 0001:00034d55       ?CycleOff@PaletteMgrIndex@@UAEXH@Z 00435d55 f   Palmgri.obj
 0001:00034e1d       ?CycleAllOff@PaletteMgrIndex@@UAEXXZ 00435e1d f   Palmgri.obj
 0001:00034e9b       ?SetTarget@PaletteMgrIndex@@UAEXABVSOLPalette@@@Z 00435e9b f   Palmgri.obj
 0001:00034f2f       ?MergeTarget@PaletteMgrIndex@@UAEXABVSOLPalette@@@Z 00435f2f f   Palmgri.obj
 0001:00034fcb       ?SetStart@PaletteMgrIndex@@UAEXABVSOLPalette@@@Z 00435fcb f   Palmgri.obj
 0001:0003505f       ?MergeStart@PaletteMgrIndex@@UAEXABVSOLPalette@@@Z 0043605f f   Palmgri.obj
 0001:000350fb       ?SetVary@PaletteMgrIndex@@UAEXABVSOLPalette@@HHHH@Z 004360fb f   Palmgri.obj
 0001:00035268       ?SetVaryPercent@PaletteMgrIndex@@UAEXHHHH@Z 00436268 f   Palmgri.obj
 0001:0003535e       ?SetVaryTime@PaletteMgrIndex@@UAEXH@Z 0043635e f   Palmgri.obj
 0001:00035427       ?ApplyVary@PaletteMgrIndex@@IAEXXZ 00436427 f   Palmgri.obj
 0001:00035706       ?VaryOn@PaletteMgrIndex@@UAEXXZ 00436706 f   Palmgri.obj
 0001:00035783       ?VaryOff@PaletteMgrIndex@@UAEXXZ 00436783 f   Palmgri.obj
 0001:00035816       ?SetFade@PaletteMgrIndex@@UAEXHHH@Z 00436816 f   Palmgri.obj
 0001:0003584d       ?ApplyFade@PaletteMgrIndex@@IAEXXZ 0043684d f   Palmgri.obj
 0001:000359ad       ?FadeOff@PaletteMgrIndex@@UAEXXZ 004369ad f   Palmgri.obj
 0001:000359e5       ?UpdateFFrame@PaletteMgrIndex@@UAEHXZ 004369e5 f   Palmgri.obj
 0001:00035a74       ?UpdateForFrame@PaletteMgrIndex@@UAEHXZ 00436a74 f   Palmgri.obj
 0001:00035ac4       ?SetGamma@PaletteMgrIndex@@UAEXH@Z 00436ac4 f   Palmgri.obj
 0001:00035add       ?GammaOff@PaletteMgrIndex@@UAEXXZ 00436add f   Palmgri.obj
 0001:00035b00       ??1PaletteMgr@@UAE@XZ      00436b00 f i Palmgri.obj
 0001:00035b20       ??_EPaletteMgr@@UAEPAXI@Z  00436b20 f i Palmgri.obj
 0001:00035b20       ??_GPaletteMgr@@UAEPAXI@Z  00436b20 f i Palmgri.obj
 0001:00035b50       ??_EPaletteMgrIndex@@UAEPAXI@Z 00436b50 f i Palmgri.obj
 0001:00035b50       ??_GPaletteMgrIndex@@UAEPAXI@Z 00436b50 f i Palmgri.obj
 0001:00035b80       ??0PaletteMgr@@QAE@XZ      00436b80 f i Palmgri.obj
 0001:00035ba0       ??9SOLPalette@@QBEHABV0@@Z 00436ba0 f i Palmgri.obj
 0001:00035bc0       ?GRemapper@GraphicsMgr@@QAEAAVRemap@@XZ 00436bc0 f i Palmgri.obj
 0001:00035be0       ?UpdateForFrame@PaletteMgrTrue@@UAEHXZ 00436be0 f   Palmgrt.obj
 0001:00035c30       ?ApplyAll@PaletteMgrTrue@@IAEXXZ 00436c30 f   Palmgrt.obj
 0001:00035c53       ?ApplyCycles@PaletteMgrTrue@@IAEXXZ 00436c53 f   Palmgrt.obj
 0001:00035dc1       ?ApplyVary@PaletteMgrTrue@@IAEXXZ 00436dc1 f   Palmgrt.obj
 0001:00035e83       ?ApplyFade@PaletteMgrTrue@@IAEXXZ 00436e83 f   Palmgrt.obj
 0001:00035e90       ?InitPalette@@YAXXZ        00436e90 f   Palmgrw.obj
 0001:00035faa       ?TermPalette@@YAXXZ        00436faa f   Palmgrw.obj
 0001:00035fdc       ?UpdatePalette@@YAHAAVSOLPalette@@ABV1@H@Z 00436fdc f   Palmgrw.obj
 0001:0003624b       ?ClearSystemPalette@@YAXXZ 0043724b f   Palmgrw.obj
 0001:00036370       ?KPicNotValid@@YAXPAF@Z    00437370 f   Picture.obj
 0001:00036375       ?KShow@@YAXPAF@Z           00437375 f   Picture.obj
 0001:0003637a       ?KDrawPic@@YAXPAF@Z        0043737a f   Picture.obj
 0001:00036380       ??0SOL_Plane@@QAE@VObjectID@@@Z 00437380 f   Plane.obj
 0001:0003659f       ??0SOL_Plane@@QAE@ABV0@@Z  0043759f f   Plane.obj
 0001:000366ba       ??0SOL_Plane@@QAE@ABVSOL_Rect@@@Z 004376ba f   Plane.obj
 0001:0003682f       ??4SOL_Plane@@QAEAAV0@AAVObjectID@@@Z 0043782f f   Plane.obj
 0001:00036943       ??4SOL_Plane@@QAEAAV0@ABV0@@Z 00437943 f   Plane.obj
 0001:00036a2e       ?UpdateRedrawAllCount@SOL_Plane@@QAEXXZ 00437a2e f   Plane.obj
 0001:00036a4f       ?UpdatePlane@SOL_Plane@@QAEXPAV1@@Z 00437a4f f   Plane.obj
 0001:00036c25       ?NewScreenDim@SOL_Plane@@QAEXVSOL_Rect@@@Z 00437c25 f   Plane.obj
 0001:00036c79       ?SetType@SOL_Plane@@QAEXXZ 00437c79 f   Plane.obj
 0001:00036d04       ?ChangePic@SOL_Plane@@IAEXXZ 00437d04 f   Plane.obj
 0001:00036ed2       ?AddPic@SOL_Plane@@QAEHHABVSOL_Point@@HH@Z 00437ed2 f   Plane.obj
 0001:00037075       ?DeleteAllPics@SOL_Plane@@IAEXXZ 00438075 f   Plane.obj
 0001:00037181       ?DeletePic@SOL_Plane@@QAEXHH@Z 00438181 f   Plane.obj
 0001:000371a3       ?DeletePic@SOL_Plane@@QAEXH@Z 004381a3 f   Plane.obj
 0001:00037269       ?ScrollScreenItems@SOL_Plane@@QAEXHHH@Z 00438269 f   Plane.obj
 0001:00037350       ?GetPicResolution@SOL_Plane@@IAEXXZ 00438350 f   Plane.obj
 0001:0003736f       ?SetOnScreen@SOL_Plane@@QAEXABVSOL_Rect@@@Z 0043836f f   Plane.obj
 0001:0003738b       ?Move@SOL_Plane@@QAEXABVSOL_Point@@@Z 0043838b f   Plane.obj
 0001:000373c2       ?MoveDelta@SOL_Plane@@QAEXHH@Z 004383c2 f   Plane.obj
 0001:00037417       ?MoveTo@SOL_Plane@@QAEXVSOL_Point@@@Z 00438417 f   Plane.obj
 0001:000374c6       ?ConvGameRectToPlaneRect@SOL_Plane@@QAEXXZ 004384c6 f   Plane.obj
 0001:00037587       ?ResizePlane@SOL_Plane@@QAEXHH@Z 00438587 f   Plane.obj
 0001:00037667       ?AddScreenItem@SOL_Plane@@QAEXPAVScreenItem@@@Z 00438667 f   Plane.obj
 0001:00037683       ?AbortScreenItem@SOL_Plane@@QAEXPBVScreenItem@@@Z 00438683 f   Plane.obj
 0001:0003769f       ?TopScreenItem@SOL_Plane@@QBEHXZ 0043869f f   Plane.obj
 0001:0003775c       ?NowSeen@SOL_Plane@@QAEHVMemID@@AAVSOL_Rect@@@Z 0043875c f   Plane.obj
 0001:000377b4       ?CalcLists@SOL_Plane@@QAEXPAV1@AAVPlaneList@@AAVDrawList@@AAVRectList@@@Z 004387b4 f   Plane.obj
 0001:00038166       ?RedrawAll@SOL_Plane@@QAEXPAV1@AAVPlaneList@@AAVDrawList@@AAVRectList@@@Z 00439166 f   Plane.obj
 0001:000382da       ?RemapMarkRedraw@SOL_Plane@@QAEXXZ 004392da f   Plane.obj
 0001:000383a1       ?BreakDrawListByPlanes@SOL_Plane@@IAEXAAVDrawList@@AAVPlaneList@@@Z 004393a1 f   Plane.obj
 0001:000384eb       ?BreakEraseListByPlanes@SOL_Plane@@IAEXAAVRectList@@AAVPlaneList@@@Z 004394eb f   Plane.obj
 0001:00038612       ?DecSIArrayCounts@SOL_Plane@@IAEXPAV1@H@Z 00439612 f   Plane.obj
 0001:00038841       ?KGlobalToLocal@@YAXPAF@Z  00439841 f   Plane.obj
 0001:000388b8       ?GlobalToLocalGame@@YAHHAAVSOL_Point@@@Z 004398b8 f   Plane.obj
 0001:000389b8       ?KLocalToGlobal@@YAXPAF@Z  004399b8 f   Plane.obj
 0001:00038a2f       ?LocalGameToGlobal@@YAHHAAVSOL_Point@@@Z 00439a2f f   Plane.obj
 0001:00038b2f       ?FilterUpEraseRects@SOL_Plane@@QAEXAAVDrawList@@AAVRectList@@@Z 00439b2f f   Plane.obj
 0001:00038bf5       ?FilterDownEraseRects@SOL_Plane@@QAEXAAVDrawList@@AAVRectList@@1@Z 00439bf5 f   Plane.obj
 0001:00038de9       ?FilterUpDrawRects@SOL_Plane@@QAEXAAVDrawList@@0@Z 00439de9 f   Plane.obj
 0001:00038eb6       ?MergeToDrawList@SOL_Plane@@IAEXHAAVSOL_Rect@@AAVDrawList@@@Z 00439eb6 f   Plane.obj
 0001:0003919a       ?UpdateTheirEraseList@SOL_Plane@@IAEXAAVSOL_Rect@@HAAVRectList@@@Z 0043a19a f   Plane.obj
 0001:00039214       ?CheckIntegrity@SOL_Plane@@QAEXXZ 0043a214 f   Plane.obj
 0001:000392b1       ?MergeToRectList@@YAXABVSOL_Rect@@AAVRectList@@@Z 0043a2b1 f   Plane.obj
 0001:00039510       ?TranslateMacColor@@YAXAAE@Z 0043a510 f i Plane.obj
 0001:00039520       ??9SOL_Point@@QBEHABV0@@Z  0043a520 f i Plane.obj
 0001:00039560       ??9SOL_Rect@@QBEHABV0@@Z   0043a560 f i Plane.obj
 0001:00039580       ??8SOL_Rect@@QBEHABV0@@Z   0043a580 f i Plane.obj
 0001:000395d0       ?Type@SingleRemap@Remap@@QBE?AW4RemapType@@XZ 0043a5d0 f i Plane.obj
 0001:000395d0       ?PicMirror@SOL_Plane@@QBEHXZ 0043a5d0 f i Plane.obj
 0001:000395f0       ?Pos@CelObjPic@@QBE?AVSOL_Point@@XZ 0043a5f0 f i Plane.obj
 0001:00039610       ?SetPicResNum@ScreenItem@@QAEXH@Z 0043a610 f i Plane.obj
 0001:00039630       ?SetUserMirror@ScreenItem@@QAEXH@Z 0043a630 f i Plane.obj
 0001:00039650       ?Exists@ScreenItemList@@QBEHH@Z 0043a650 f i Plane.obj
 0001:00039690       ??AScreenItemList@@QBEABVScreenItem@@H@Z 0043a690 f i Plane.obj
 0001:000396b0       ?UpdateCount@ScreenItem@@QBEHXZ 0043a6b0 f i Plane.obj
 0001:000396d0       ?DoUpdate@ScreenItem@@QAEXABVSOL_Plane@@@Z 0043a6d0 f i Plane.obj
 0001:00039700       ?Exists@DrawList@@QBEHH@Z  0043a700 f i Plane.obj
 0001:00039740       ?RemapState@ScreenItem@@QAEHXZ 0043a740 f i Plane.obj
 0001:00039760       ?RemapState@CelObj@@QBEHXZ 0043a760 f i Plane.obj
 0001:00039780       ?IsTransparent@SOL_Plane@@QBEHXZ 0043a780 f i Plane.obj
 0001:000397a0       ?IsPictureSkip@SOL_Plane@@QBEHXZ 0043a7a0 f i Plane.obj
 0001:000397c0       ?DecUpdateCount@ScreenItem@@QAEXXZ 0043a7c0 f i Plane.obj
 0001:000397c0       ?DecEraseCount@SOL_Plane@@QAEXXZ 0043a7c0 f i Plane.obj
 0001:000397e0       ?DecAddCount@ScreenItem@@QAEXXZ 0043a7e0 f i Plane.obj
 0001:00039800       ?DecDeleteCount@ScreenItem@@QAEXXZ 0043a800 f i Plane.obj
 0001:00039820       ?GameRect@SOL_Plane@@QBEABVSOL_Rect@@XZ 0043a820 f i Plane.obj
 0001:00039840       ?Includes@SOL_Rect@@QAEHABV1@@Z 0043a840 f i Plane.obj
 0001:000398a0       ?KPlatform@@YAXPAF@Z       0043a8a0 f   Platfrmw.obj
 0001:000399d1       ?KGetSierraProfileInt@@YAXPAF@Z 0043a9d1 f   Platfrmw.obj
 0001:00039a23       ?KGetSierraProfileString@@YAXPAF@Z 0043aa23 f   Platfrmw.obj
 0001:00039aa5       ?KSetWindowsOption@@YAXPAF@Z 0043aaa5 f   Platfrmw.obj
 0001:00039b16       ?KGetWindowsOption@@YAXPAF@Z 0043ab16 f   Platfrmw.obj
 0001:00039b50       ??0PlaneList@@QAE@XZ       0043ab50 f   Plist.obj
 0001:00039b6b       ??1PlaneList@@QAE@XZ       0043ab6b f   Plist.obj
 0001:00039bc8       ??0PlaneList@@QAE@ABV0@@Z  0043abc8 f   Plist.obj
 0001:00039c81       ??4PlaneList@@QAEABV0@ABV0@@Z 0043ac81 f   Plist.obj
 0001:00039d42       ?Add@PlaneList@@QAEHPAVSOL_Plane@@@Z 0043ad42 f   Plist.obj
 0001:00039e16       ?Delete@PlaneList@@QAEXH@Z 0043ae16 f   Plist.obj
 0001:00039ede       ?Search@PlaneList@@QBEHI@Z 0043aede f   Plist.obj
 0001:00039f2a       ?Clear@PlaneList@@QAEXXZ   0043af2a f   Plist.obj
 0001:00039f94       ?Sort@PlaneList@@QAEXXZ    0043af94 f   Plist.obj
 0001:0003a09a       ?TopPlane@PlaneList@@QBEHXZ 0043b09a f   Plist.obj
 0001:0003a0ca       ?TopSCIPlane@PlaneList@@QBEHXZ 0043b0ca f   Plist.obj
 0001:0003a140       ??_GSOL_Plane@@QAEPAXI@Z   0043b140 f i Plist.obj
 0001:0003a170       ??1SOL_Plane@@QAE@XZ       0043b170 f i Plist.obj
 0001:0003a1a9       ?pmStackClear@@YAXXZ       0043b1a9 f   PMachine.obj
 0001:0003a1e8       ?pmTossMemID@@YAXXZ        0043b1e8 f   PMachine.obj
 0001:0003a2c0       ?pmQuickMessage_asm@@YAXXZ 0043b2c0 f   PMachine.obj
 0001:0003a59e       ?pmQuickMessage@@YAXIIPAX@Z 0043b59e f   PMachine.obj
 0001:0003a5bc       ?invokeMethod@@YAJIIIPAX@Z 0043b5bc f   PMachine.obj
 0001:0003a62a       ?pmRun@@YAXXZ              0043b62a f   PMachine.obj
 0001:0003a738       ?pmEnd@@YAXXZ              0043b738 f   PMachine.obj
 0001:0003a746       ?pmCheckIntegrity@@YA_NPAD@Z 0043b746 f   PMachine.obj
 0001:0003a79b       ?pmPushMany@@YAXGIPAF@Z    0043b79b f   PMachine.obj
 0001:0003a7d3       ?pmCall@@YAXXZ             0043b7d3 f   PMachine.obj
 0001:0003a829       ?pmDispatch@@YAXXZ         0043b829 f   PMachine.obj
 0001:0003a90d       ?OP_bnot@@YAXXZ            0043b90d f   PMachine.obj
 0001:0003a919       ?OP_add@@YAXXZ             0043b919 f   PMachine.obj
 0001:0003a929       ?OP_sub@@YAXXZ             0043b929 f   PMachine.obj
 0001:0003a93f       ?OP_mul@@YAXXZ             0043b93f f   PMachine.obj
 0001:0003a94f       ?OP_div@@YAXXZ             0043b94f f   PMachine.obj
 0001:0003a985       ?OP_mod@@YAXXZ             0043b985 f   PMachine.obj
 0001:0003a9c1       ?OP_shr@@YAXXZ             0043b9c1 f   PMachine.obj
 0001:0003a9d5       ?OP_shl@@YAXXZ             0043b9d5 f   PMachine.obj
 0001:0003a9e9       ?OP_xor@@YAXXZ             0043b9e9 f   PMachine.obj
 0001:0003a9f9       ?OP_and@@YAXXZ             0043b9f9 f   PMachine.obj
 0001:0003aa09       ?OP_or@@YAXXZ              0043ba09 f   PMachine.obj
 0001:0003aa19       ?OP_neg@@YAXXZ             0043ba19 f   PMachine.obj
 0001:0003aa25       ?OP_not@@YAXXZ             0043ba25 f   PMachine.obj
 0001:0003aa38       ?OP_eq@@YAXXZ              0043ba38 f   PMachine.obj
 0001:0003aa56       ?OP_ne@@YAXXZ              0043ba56 f   PMachine.obj
 0001:0003aa74       ?OP_gt@@YAXXZ              0043ba74 f   PMachine.obj
 0001:0003aa92       ?OP_ge@@YAXXZ              0043ba92 f   PMachine.obj
 0001:0003aab0       ?OP_lt@@YAXXZ              0043bab0 f   PMachine.obj
 0001:0003aace       ?OP_le@@YAXXZ              0043bace f   PMachine.obj
 0001:0003aaec       ?OP_ugt@@YAXXZ             0043baec f   PMachine.obj
 0001:0003ab0a       ?OP_uge@@YAXXZ             0043bb0a f   PMachine.obj
 0001:0003ab28       ?OP_ult@@YAXXZ             0043bb28 f   PMachine.obj
 0001:0003ab46       ?OP_ule@@YAXXZ             0043bb46 f   PMachine.obj
 0001:0003ab64       ?OP_bt_byte@@YAXXZ         0043bb64 f   PMachine.obj
 0001:0003ab7d       ?OP_bt_word@@YAXXZ         0043bb7d f   PMachine.obj
 0001:0003ab96       ?OP_bnt_byte@@YAXXZ        0043bb96 f   PMachine.obj
 0001:0003abaf       ?OP_bnt_word@@YAXXZ        0043bbaf f   PMachine.obj
 0001:0003abc8       ?OP_jmp_byte@@YAXXZ        0043bbc8 f   PMachine.obj
 0001:0003abdb       ?OP_jmp_word@@YAXXZ        0043bbdb f   PMachine.obj
 0001:0003abee       ?OP_loadi_byte@@YAXXZ      0043bbee f   PMachine.obj
 0001:0003abfe       ?OP_loadi_word@@YAXXZ      0043bbfe f   PMachine.obj
 0001:0003ac0e       ?OP_push@@YAXXZ            0043bc0e f   PMachine.obj
 0001:0003ac1e       ?OP_pushi_byte@@YAXXZ      0043bc1e f   PMachine.obj
 0001:0003ac35       ?OP_pushi_word@@YAXXZ      0043bc35 f   PMachine.obj
 0001:0003ac4b       ?OP_toss@@YAXXZ            0043bc4b f   PMachine.obj
 0001:0003ac5e       ?OP_dup@@YAXXZ             0043bc5e f   PMachine.obj
 0001:0003ac71       ?OP_link_byte@@YAXXZ       0043bc71 f   PMachine.obj
 0001:0003ac91       ?OP_link_word@@YAXXZ       0043bc91 f   PMachine.obj
 0001:0003acb1       ?OP_call_byte@@YAXXZ       0043bcb1 f   PMachine.obj
 0001:0003ad29       ?OP_call_word@@YAXXZ       0043bd29 f   PMachine.obj
 0001:0003ada1       ?OP_callk_byte@@YAXXZ      0043bda1 f   PMachine.obj
 0001:0003ae97       ?OP_callk_word@@YAXXZ      0043be97 f   PMachine.obj
 0001:0003af8d       ?OP_callb_byte@@YAXXZ      0043bf8d f   PMachine.obj
 0001:0003afb8       ?OP_callb_word@@YAXXZ      0043bfb8 f   PMachine.obj
 0001:0003afe3       ?OP_calle_byte@@YAXXZ      0043bfe3 f   PMachine.obj
 0001:0003b00d       ?OP_calle_word@@YAXXZ      0043c00d f   PMachine.obj
 0001:0003b037       ?OP_ret@@YAXXZ             0043c037 f   PMachine.obj
 0001:0003b038       ?OP_send_byte@@YAXXZ       0043c038 f   PMachine.obj
 0001:0003b080       ?OP_class_byte@@YAXXZ      0043c080 f   PMachine.obj
 0001:0003b0ad       ?OP_class_word@@YAXXZ      0043c0ad f   PMachine.obj
 0001:0003b0da       ?OP_self@@YAXXZ            0043c0da f   PMachine.obj
 0001:0003b104       ?OP_super_byte@@YAXXZ      0043c104 f   PMachine.obj
 0001:0003b145       ?OP_super_word@@YAXXZ      0043c145 f   PMachine.obj
 0001:0003b185       ?OP_rest_byte@@YAXXZ       0043c185 f   PMachine.obj
 0001:0003b1c6       ?OP_lea_byte@@YAXXZ        0043c1c6 f   PMachine.obj
 0001:0003b1e9       ?OP_lea_word@@YAXXZ        0043c1e9 f   PMachine.obj
 0001:0003b20c       ?OP_selfID@@YAXXZ          0043c20c f   PMachine.obj
 0001:0003b21d       ?OP_pprev@@YAXXZ           0043c21d f   PMachine.obj
 0001:0003b233       ?OP_pToa_byte@@YAXXZ       0043c233 f   PMachine.obj
 0001:0003b262       ?OP_pToa_word@@YAXXZ       0043c262 f   PMachine.obj
 0001:0003b291       ?OP_aTop_byte@@YAXXZ       0043c291 f   PMachine.obj
 0001:0003b2d1       ?OP_aTop_word@@YAXXZ       0043c2d1 f   PMachine.obj
 0001:0003b311       ?OP_pTos_byte@@YAXXZ       0043c311 f   PMachine.obj
 0001:0003b346       ?OP_pTos_word@@YAXXZ       0043c346 f   PMachine.obj
 0001:0003b37b       ?OP_sTop_byte@@YAXXZ       0043c37b f   PMachine.obj
 0001:0003b3c1       ?OP_sTop_word@@YAXXZ       0043c3c1 f   PMachine.obj
 0001:0003b407       ?OP_ipToa_byte@@YAXXZ      0043c407 f   PMachine.obj
 0001:0003b44a       ?OP_ipToa_word@@YAXXZ      0043c44a f   PMachine.obj
 0001:0003b48d       ?OP_dpToa_byte@@YAXXZ      0043c48d f   PMachine.obj
 0001:0003b4d0       ?OP_dpToa_word@@YAXXZ      0043c4d0 f   PMachine.obj
 0001:0003b513       ?OP_ipTos_byte@@YAXXZ      0043c513 f   PMachine.obj
 0001:0003b55c       ?OP_ipTos_word@@YAXXZ      0043c55c f   PMachine.obj
 0001:0003b5a5       ?OP_dpTos_byte@@YAXXZ      0043c5a5 f   PMachine.obj
 0001:0003b5ee       ?OP_dpTos_word@@YAXXZ      0043c5ee f   PMachine.obj
 0001:0003b637       ?OP_lofsa@@YAXXZ           0043c637 f   PMachine.obj
 0001:0003b647       ?OP_lofss@@YAXXZ           0043c647 f   PMachine.obj
 0001:0003b65d       ?OP_push0@@YAXXZ           0043c65d f   PMachine.obj
 0001:0003b66f       ?OP_push1@@YAXXZ           0043c66f f   PMachine.obj
 0001:0003b681       ?OP_push2@@YAXXZ           0043c681 f   PMachine.obj
 0001:0003b693       ?OP_pushSelf@@YAXXZ        0043c693 f   PMachine.obj
 0001:0003b6aa       ?OP_lag_byte@@YAXXZ        0043c6aa f   PMachine.obj
 0001:0003b6c5       ?OP_lag_word@@YAXXZ        0043c6c5 f   PMachine.obj
 0001:0003b6e0       ?OP_lal_byte@@YAXXZ        0043c6e0 f   PMachine.obj
 0001:0003b711       ?OP_lal_word@@YAXXZ        0043c711 f   PMachine.obj
 0001:0003b742       ?OP_lat_byte@@YAXXZ        0043c742 f   PMachine.obj
 0001:0003b75e       ?OP_lat_word@@YAXXZ        0043c75e f   PMachine.obj
 0001:0003b77a       ?OP_lap_byte@@YAXXZ        0043c77a f   PMachine.obj
 0001:0003b796       ?OP_lap_word@@YAXXZ        0043c796 f   PMachine.obj
 0001:0003b7b2       ?OP_lsg_byte@@YAXXZ        0043c7b2 f   PMachine.obj
 0001:0003b7d3       ?OP_lsg_word@@YAXXZ        0043c7d3 f   PMachine.obj
 0001:0003b7f4       ?OP_lsl_byte@@YAXXZ        0043c7f4 f   PMachine.obj
 0001:0003b82b       ?OP_lsl_word@@YAXXZ        0043c82b f   PMachine.obj
 0001:0003b862       ?OP_lst_byte@@YAXXZ        0043c862 f   PMachine.obj
 0001:0003b884       ?OP_lst_word@@YAXXZ        0043c884 f   PMachine.obj
 0001:0003b8a6       ?OP_lsp_byte@@YAXXZ        0043c8a6 f   PMachine.obj
 0001:0003b8c8       ?OP_lsp_word@@YAXXZ        0043c8c8 f   PMachine.obj
 0001:0003b8ea       ?OP_lagi_byte@@YAXXZ       0043c8ea f   PMachine.obj
 0001:0003b907       ?OP_lagi_word@@YAXXZ       0043c907 f   PMachine.obj
 0001:0003b924       ?OP_lali_byte@@YAXXZ       0043c924 f   PMachine.obj
 0001:0003b951       ?OP_lali_word@@YAXXZ       0043c951 f   PMachine.obj
 0001:0003b97e       ?OP_lati_byte@@YAXXZ       0043c97e f   PMachine.obj
 0001:0003b99c       ?OP_lati_word@@YAXXZ       0043c99c f   PMachine.obj
 0001:0003b9ba       ?OP_lapi_byte@@YAXXZ       0043c9ba f   PMachine.obj
 0001:0003b9d8       ?OP_lapi_word@@YAXXZ       0043c9d8 f   PMachine.obj
 0001:0003b9f6       ?OP_lsgi_byte@@YAXXZ       0043c9f6 f   PMachine.obj
 0001:0003ba19       ?OP_lsgi_word@@YAXXZ       0043ca19 f   PMachine.obj
 0001:0003ba3c       ?OP_lsli_byte@@YAXXZ       0043ca3c f   PMachine.obj
 0001:0003ba6f       ?OP_lsli_word@@YAXXZ       0043ca6f f   PMachine.obj
 0001:0003baa2       ?OP_lsti_byte@@YAXXZ       0043caa2 f   PMachine.obj
 0001:0003bac6       ?OP_lsti_word@@YAXXZ       0043cac6 f   PMachine.obj
 0001:0003baea       ?OP_lspi_byte@@YAXXZ       0043caea f   PMachine.obj
 0001:0003bb0e       ?OP_lspi_word@@YAXXZ       0043cb0e f   PMachine.obj
 0001:0003bb32       ?OP_sag_byte@@YAXXZ        0043cb32 f   PMachine.obj
 0001:0003bb4d       ?OP_sag_word@@YAXXZ        0043cb4d f   PMachine.obj
 0001:0003bb68       ?OP_sal_byte@@YAXXZ        0043cb68 f   PMachine.obj
 0001:0003bb93       ?OP_sal_word@@YAXXZ        0043cb93 f   PMachine.obj
 0001:0003bbbe       ?OP_sat_byte@@YAXXZ        0043cbbe f   PMachine.obj
 0001:0003bbda       ?OP_sat_word@@YAXXZ        0043cbda f   PMachine.obj
 0001:0003bbf6       ?OP_sap_byte@@YAXXZ        0043cbf6 f   PMachine.obj
 0001:0003bc12       ?OP_sap_word@@YAXXZ        0043cc12 f   PMachine.obj
 0001:0003bc2e       ?OP_ssg_byte@@YAXXZ        0043cc2e f   PMachine.obj
 0001:0003bc4f       ?OP_ssg_word@@YAXXZ        0043cc4f f   PMachine.obj
 0001:0003bc70       ?OP_ssl_byte@@YAXXZ        0043cc70 f   PMachine.obj
 0001:0003bca1       ?OP_ssl_word@@YAXXZ        0043cca1 f   PMachine.obj
 0001:0003bcd2       ?OP_sst_byte@@YAXXZ        0043ccd2 f   PMachine.obj
 0001:0003bcf4       ?OP_sst_word@@YAXXZ        0043ccf4 f   PMachine.obj
 0001:0003bd16       ?OP_ssp_byte@@YAXXZ        0043cd16 f   PMachine.obj
 0001:0003bd38       ?OP_ssp_word@@YAXXZ        0043cd38 f   PMachine.obj
 0001:0003bd5a       ?OP_sagi_byte@@YAXXZ       0043cd5a f   PMachine.obj
 0001:0003bd7d       ?OP_sagi_word@@YAXXZ       0043cd7d f   PMachine.obj
 0001:0003bda0       ?OP_sali_byte@@YAXXZ       0043cda0 f   PMachine.obj
 0001:0003bdd3       ?OP_sali_word@@YAXXZ       0043cdd3 f   PMachine.obj
 0001:0003be06       ?OP_sati_byte@@YAXXZ       0043ce06 f   PMachine.obj
 0001:0003be2a       ?OP_sati_word@@YAXXZ       0043ce2a f   PMachine.obj
 0001:0003be4e       ?OP_sapi_byte@@YAXXZ       0043ce4e f   PMachine.obj
 0001:0003be72       ?OP_sapi_word@@YAXXZ       0043ce72 f   PMachine.obj
 0001:0003be96       ?OP_ssgi_byte@@YAXXZ       0043ce96 f   PMachine.obj
 0001:0003beb9       ?OP_ssgi_word@@YAXXZ       0043ceb9 f   PMachine.obj
 0001:0003bedc       ?OP_ssli_byte@@YAXXZ       0043cedc f   PMachine.obj
 0001:0003bf0f       ?OP_ssli_word@@YAXXZ       0043cf0f f   PMachine.obj
 0001:0003bf42       ?OP_ssti_byte@@YAXXZ       0043cf42 f   PMachine.obj
 0001:0003bf66       ?OP_ssti_word@@YAXXZ       0043cf66 f   PMachine.obj
 0001:0003bf8a       ?OP_sspi_byte@@YAXXZ       0043cf8a f   PMachine.obj
 0001:0003bfae       ?OP_sspi_word@@YAXXZ       0043cfae f   PMachine.obj
 0001:0003bfd2       ?OP_iag_byte@@YAXXZ        0043cfd2 f   PMachine.obj
 0001:0003bff0       ?OP_iag_word@@YAXXZ        0043cff0 f   PMachine.obj
 0001:0003c00e       ?OP_ial_byte@@YAXXZ        0043d00e f   PMachine.obj
 0001:0003c03c       ?OP_ial_word@@YAXXZ        0043d03c f   PMachine.obj
 0001:0003c06a       ?OP_iat_byte@@YAXXZ        0043d06a f   PMachine.obj
 0001:0003c089       ?OP_iat_word@@YAXXZ        0043d089 f   PMachine.obj
 0001:0003c0a8       ?OP_iap_byte@@YAXXZ        0043d0a8 f   PMachine.obj
 0001:0003c0c7       ?OP_iap_word@@YAXXZ        0043d0c7 f   PMachine.obj
 0001:0003c0e6       ?OP_isg_byte@@YAXXZ        0043d0e6 f   PMachine.obj
 0001:0003c10a       ?OP_isg_word@@YAXXZ        0043d10a f   PMachine.obj
 0001:0003c12e       ?OP_isl_byte@@YAXXZ        0043d12e f   PMachine.obj
 0001:0003c162       ?OP_isl_word@@YAXXZ        0043d162 f   PMachine.obj
 0001:0003c196       ?OP_ist_byte@@YAXXZ        0043d196 f   PMachine.obj
 0001:0003c1bb       ?OP_ist_word@@YAXXZ        0043d1bb f   PMachine.obj
 0001:0003c1e0       ?OP_isp_byte@@YAXXZ        0043d1e0 f   PMachine.obj
 0001:0003c205       ?OP_isp_word@@YAXXZ        0043d205 f   PMachine.obj
 0001:0003c22a       ?OP_iagi_byte@@YAXXZ       0043d22a f   PMachine.obj
 0001:0003c24a       ?OP_iagi_word@@YAXXZ       0043d24a f   PMachine.obj
 0001:0003c26a       ?OP_iali_byte@@YAXXZ       0043d26a f   PMachine.obj
 0001:0003c29a       ?OP_iali_word@@YAXXZ       0043d29a f   PMachine.obj
 0001:0003c2ca       ?OP_iati_byte@@YAXXZ       0043d2ca f   PMachine.obj
 0001:0003c2eb       ?OP_iati_word@@YAXXZ       0043d2eb f   PMachine.obj
 0001:0003c30c       ?OP_iapi_byte@@YAXXZ       0043d30c f   PMachine.obj
 0001:0003c32d       ?OP_iapi_word@@YAXXZ       0043d32d f   PMachine.obj
 0001:0003c34e       ?OP_isgi_byte@@YAXXZ       0043d34e f   PMachine.obj
 0001:0003c374       ?OP_isgi_word@@YAXXZ       0043d374 f   PMachine.obj
 0001:0003c39a       ?OP_isli_byte@@YAXXZ       0043d39a f   PMachine.obj
 0001:0003c3d0       ?OP_isli_word@@YAXXZ       0043d3d0 f   PMachine.obj
 0001:0003c406       ?OP_isti_byte@@YAXXZ       0043d406 f   PMachine.obj
 0001:0003c42d       ?OP_isti_word@@YAXXZ       0043d42d f   PMachine.obj
 0001:0003c454       ?OP_ispi_byte@@YAXXZ       0043d454 f   PMachine.obj
 0001:0003c47b       ?OP_ispi_word@@YAXXZ       0043d47b f   PMachine.obj
 0001:0003c4a2       ?OP_dag_byte@@YAXXZ        0043d4a2 f   PMachine.obj
 0001:0003c4c0       ?OP_dag_word@@YAXXZ        0043d4c0 f   PMachine.obj
 0001:0003c4de       ?OP_dal_byte@@YAXXZ        0043d4de f   PMachine.obj
 0001:0003c50c       ?OP_dal_word@@YAXXZ        0043d50c f   PMachine.obj
 0001:0003c53a       ?OP_dat_byte@@YAXXZ        0043d53a f   PMachine.obj
 0001:0003c559       ?OP_dat_word@@YAXXZ        0043d559 f   PMachine.obj
 0001:0003c578       ?OP_dap_byte@@YAXXZ        0043d578 f   PMachine.obj
 0001:0003c597       ?OP_dap_word@@YAXXZ        0043d597 f   PMachine.obj
 0001:0003c5b6       ?OP_dsg_byte@@YAXXZ        0043d5b6 f   PMachine.obj
 0001:0003c5da       ?OP_dsg_word@@YAXXZ        0043d5da f   PMachine.obj
 0001:0003c5fe       ?OP_dsl_byte@@YAXXZ        0043d5fe f   PMachine.obj
 0001:0003c632       ?OP_dsl_word@@YAXXZ        0043d632 f   PMachine.obj
 0001:0003c666       ?OP_dst_byte@@YAXXZ        0043d666 f   PMachine.obj
 0001:0003c68b       ?OP_dst_word@@YAXXZ        0043d68b f   PMachine.obj
 0001:0003c6b0       ?OP_dsp_byte@@YAXXZ        0043d6b0 f   PMachine.obj
 0001:0003c6d5       ?OP_dsp_word@@YAXXZ        0043d6d5 f   PMachine.obj
 0001:0003c6fa       ?OP_dagi_byte@@YAXXZ       0043d6fa f   PMachine.obj
 0001:0003c71a       ?OP_dagi_word@@YAXXZ       0043d71a f   PMachine.obj
 0001:0003c73a       ?OP_dali_byte@@YAXXZ       0043d73a f   PMachine.obj
 0001:0003c76a       ?OP_dali_word@@YAXXZ       0043d76a f   PMachine.obj
 0001:0003c79a       ?OP_dati_byte@@YAXXZ       0043d79a f   PMachine.obj
 0001:0003c7bb       ?OP_dati_word@@YAXXZ       0043d7bb f   PMachine.obj
 0001:0003c7dc       ?OP_dapi_byte@@YAXXZ       0043d7dc f   PMachine.obj
 0001:0003c7fd       ?OP_dapi_word@@YAXXZ       0043d7fd f   PMachine.obj
 0001:0003c81e       ?OP_dsgi_byte@@YAXXZ       0043d81e f   PMachine.obj
 0001:0003c844       ?OP_dsgi_word@@YAXXZ       0043d844 f   PMachine.obj
 0001:0003c86a       ?OP_dsli_byte@@YAXXZ       0043d86a f   PMachine.obj
 0001:0003c8a0       ?OP_dsli_word@@YAXXZ       0043d8a0 f   PMachine.obj
 0001:0003c8d6       ?OP_dsti_byte@@YAXXZ       0043d8d6 f   PMachine.obj
 0001:0003c8fd       ?OP_dsti_word@@YAXXZ       0043d8fd f   PMachine.obj
 0001:0003c924       ?OP_dspi_byte@@YAXXZ       0043d924 f   PMachine.obj
 0001:0003c94b       ?OP_dspi_word@@YAXXZ       0043d94b f   PMachine.obj
 0001:0003c972       ?OP_filename@@YAXXZ        0043d972 f   PMachine.obj
 0001:0003c99c       ?OP_linenum@@YAXXZ         0043d99c f   PMachine.obj
 0001:0003c9b4       ?BadOp@@YAXXZ              0043d9b4 f   PMachine.obj
 0001:0003c9e0       ??0PMachine@@QAE@XZ        0043d9e0 f i PMachine.obj
 0001:0003ca10       ?Lock@FakeVariableID@@QBEPAUVariable@@XZ 0043da10 f i PMachine.obj
 0001:0003ca10       ?lock@Array@@QAEXXZ        0043da10 f i PMachine.obj
 0001:0003ca30       ?MergePolygonsF@@YA?AVMemID@@PAUSCI_Point@@HPAVSOL_PolygonF@@@Z 0043da30 f   Polyfuse.obj
 0001:0003cedc       ?MergePolygonF@@YAHPAVFPoint@@AAHAAVSOL_PolygonF@@@Z 0043dedc f   Polyfuse.obj
 0001:0003e09f       ?PatchNodeF@@YAHAAVPolyPatchF@@HPAVFPoint@@@Z 0043f09f f   Polyfuse.obj
 0001:0003e15b       ?DominatesF@@YAHAAVPolyPatchF@@0PAVFPoint@@@Z 0043f15b f   Polyfuse.obj
 0001:0003e590       ??0FPoint@@QAE@XZ          0043f590 f i Polyfuse.obj
 0001:0003e5c0       ??4SCI_Point@@QAEAAU0@ABVFPoint@@@Z 0043f5c0 f i Polyfuse.obj
 0001:0003e6d0       ??4FPoint@@QAEAAV0@ABUSCI_Point@@@Z 0043f6d0 f i Polyfuse.obj
 0001:0003e710       ??4FPoint@@QAEAAV0@ABV0@@Z 0043f710 f i Polyfuse.obj
 0001:0003e710       ??0FPoint@@QAE@ABV0@@Z     0043f710 f i Polyfuse.obj
 0001:0003e750       ??GFPoint@@QBE?AV0@ABV0@@Z 0043f750 f i Polyfuse.obj
 0001:0003e7a0       ??0FPoint@@QAE@NN@Z        0043f7a0 f i Polyfuse.obj
 0001:0003e7d0       ??DFPoint@@QBENABV0@@Z     0043f7d0 f i Polyfuse.obj
 0001:0003e800       ??TFPoint@@QBEHABV0@@Z     0043f800 f i Polyfuse.obj
 0001:0003e860       ??8FPoint@@QBEHABV0@@Z     0043f860 f i Polyfuse.obj
 0001:0003e8b0       ??9FPoint@@QBEHABV0@@Z     0043f8b0 f i Polyfuse.obj
 0001:0003e900       ??0PolyPatchF@@QAE@XZ      0043f900 f i Polyfuse.obj
 0001:0003e930       ?DistanceSquaredF@@YANAAVFPoint@@0@Z 0043f930 f i Polyfuse.obj
 0001:0003e992       ?PointInterior@@YAHAAUSCI_Point@@PAU1@H@Z 0043f992 f   Polygon.obj
 0001:0003ec93       ?GetPath@@YA?AVMemID@@AAUSCI_Point@@0PAVSOL_Polygon@@H0@Z 0043fc93 f   Polygon.obj
 0001:0003f6cd       ?StartPath@@YAXAAUSCI_Point@@PAU1@@Z 004406cd f   Polygon.obj
 0001:0003f769       ?EndPath@@YAXAAUSCI_Point@@PAU1@@Z 00440769 f   Polygon.obj
 0001:0003f7c1       ?CopyPath@@YA?AVMemID@@PAUSCI_Point@@@Z 004407c1 f   Polygon.obj
 0001:0003f862       ?InvertPolygon@@YAXPAUSCI_Point@@H@Z 00440862 f   Polygon.obj
 0001:0003f8e0       ?NearPoint@@YAHAAUSCI_Point@@PAU1@H1H@Z 004408e0 f   Polygon.obj
 0001:0003fbb6       ?TestClockwise@@YAHPAUSCI_Point@@H@Z 00440bb6 f   Polygon.obj
 0001:0003fd43       ?AvoidPath@@YAXAAUSCI_Point@@0PAVSOL_Polygon@@HPAU1@@Z 00440d43 f   Polygon.obj
 0001:00040047       ?FreeNodePath@@YAXPAVPolyNode@@@Z 00441047 f   Polygon.obj
 0001:0004007f       ?AvoidPolygons@@YAPAVPolyNode@@AAUSCI_Point@@0PAVSOL_Polygon@@@Z 0044107f f   Polygon.obj
 0001:000402f3       ?ReducePolygonList@@YAXPAVSOL_Polygon@@PAVPolyNode@@@Z 004412f3 f   Polygon.obj
 0001:000403c4       ?RemoveNode@@YAXPAVSOL_Polygon@@H@Z 004413c4 f   Polygon.obj
 0001:0004040b       ?GetPolyDirections@@YAHPAVPolyNode@@@Z 0044140b f   Polygon.obj
 0001:00040474       ?GetPolyDistance@@YAHPAUSCI_Point@@@Z 00441474 f   Polygon.obj
 0001:000404eb       ?SetPolyDirections@@YAXPAVPolyNode@@HH@Z 004414eb f   Polygon.obj
 0001:000405ed       ?OptimizePath@@YAXAAUSCI_Point@@0PAU1@PAVPolyNode@@PAVSOL_Polygon@@H@Z 004415ed f   Polygon.obj
 0001:0004096c       ?PolygonPath@@YAHAAUSCI_Point@@0PAU1@H11PAH2@Z 0044196c f   Polygon.obj
 0001:00040ab7       ?NodeDistance@@YAHHHHPAUSCI_Point@@HAAU1@1PAH@Z 00441ab7 f   Polygon.obj
 0001:00040beb       ?IntersectPolygon@@YAHAAUSCI_Point@@0PAU1@H11PAH2@Z 00441beb f   Polygon.obj
 0001:0004140d       ?NodeTest@@YAHAAUSCI_Point@@000@Z 0044240d f   Polygon.obj
 0001:000414c8       ?BuildPolygonList@@YA?AVMemID@@USOL_ListID@@H@Z 004424c8 f   Polygon.obj
 0001:000416c1       ?DeletePolygon@@YAXPAVSOL_Polygon@@H@Z 004426c1 f   Polygon.obj
 0001:0004170c       ?AddPolygon@@YAXVMemID@@PAUSCI_Point@@HE@Z 0044270c f   Polygon.obj
 0001:000417d4       ?IntersectSegments@@YAHAAUSCI_Point@@000PAU1@@Z 004427d4 f   Polygon.obj
 0001:00041e61       ?RemoveColinearLines@@YAXPAUSCI_Point@@PAH@Z 00442e61 f   Polygon.obj
 0001:00041fc0       ?DistanceEstimate@@YAHAAUSCI_Point@@0PAH@Z 00442fc0 f   Polygon.obj
 0001:0004205d       ?LineOnPlaneEdge@@YAHAAUSCI_Point@@0@Z 0044305d f   Polygon.obj
 0001:0004210c       ?RemoveDuplicatePoints@@YAXPAUSCI_Point@@PAH@Z 0044310c f   Polygon.obj
 0001:000421ad       ?BuildPolygonListF@@YA?AVMemID@@USOL_ListID@@H@Z 004431ad f   Polygon.obj
 0001:000424b1       ?RemoveDuplicatePointsF@@YAXPAVFPoint@@PAH@Z 004434b1 f   Polygon.obj
 0001:000426bb       ?IntersectSegmentsF@@YAHAAVFPoint@@000PAV1@H@Z 004436bb f   Polygon.obj
 0001:00042ee5       ?RemoveColinearLinesF@@YAXPAVFPoint@@PAH@Z 00443ee5 f   Polygon.obj
 0001:00043065       ?PolyIsInPolyF@@YAHPAVFPoint@@H0H@Z 00444065 f   Polygon.obj
 0001:00043249       ?PointInteriorF@@YAHAAVFPoint@@PAV1@H@Z 00444249 f   Polygon.obj
 0001:00043583       ?KMergePoly@@YAXPAF@Z      00444583 f   Polygon.obj
 0001:00043845       ?KInPolygon@@YAXPAF@Z      00444845 f   Polygon.obj
 0001:00043936       ?KAvoidPath@@YAXPAF@Z      00444936 f   Polygon.obj
 0001:00043b3b       ?KTestPoly@@YAXPAF@Z       00444b3b f   Polygon.obj
 0001:00043c30       ??0SCI_Point@@QAE@XZ       00444c30 f i Polygon.obj
 0001:00043c50       ??0SCI_Point@@QAE@ABU0@@Z  00444c50 f i Polygon.obj
 0001:00043c50       ??4SCI_Point@@QAEAAU0@ABU0@@Z 00444c50 f i Polygon.obj
 0001:00043c80       ??GSCI_Point@@QBE?AU0@ABU0@@Z 00444c80 f i Polygon.obj
 0001:00043cd0       ??0SCI_Point@@QAE@HH@Z     00444cd0 f i Polygon.obj
 0001:00043d00       ??GSCI_Point@@QBE?AU0@XZ   00444d00 f i Polygon.obj
 0001:00043d40       ??TSCI_Point@@QBEHABU0@@Z  00444d40 f i Polygon.obj
 0001:00043d90       ??8SCI_Point@@QBEHABU0@@Z  00444d90 f i Polygon.obj
 0001:00043de0       ??DSCI_Point@@QBEHABU0@@Z  00444de0 f i Polygon.obj
 0001:00043e10       ??9SCI_Point@@QBEHABU0@@Z  00444e10 f i Polygon.obj
 0001:00043e60       ??0PolyNode@@QAE@USCI_Point@@0HHHPAU1@H@Z 00444e60 f i Polygon.obj
 0001:00043ef0       ??HSCI_Point@@QBE?AU0@ABU0@@Z 00444ef0 f i Polygon.obj
 0001:00043f40       ??ZSCI_Point@@QAEAAU0@ABU0@@Z 00444f40 f i Polygon.obj
 0001:00043f80       ??HFPoint@@QBE?AV0@ABV0@@Z 00444f80 f i Polygon.obj
 0001:00043fd0       ??GFPoint@@QBE?AV0@XZ      00444fd0 f i Polygon.obj
 0001:00044010       ??0Ratio@@QAE@ABV0@@Z      00445010 f   Ratio.obj
 0001:00044036       ?Normalize@Ratio@@QAEXXZ   00445036 f   Ratio.obj
 0001:00044131       ??8Ratio@@QBEHABV0@@Z      00445131 f   Ratio.obj
 0001:0004415f       ??9Ratio@@QBEHABV0@@Z      0044515f f   Ratio.obj
 0001:0004417d       ??ORatio@@QBEHABV0@@Z      0044517d f   Ratio.obj
 0001:000441d0       ?Intersect@SOL_Rect@@QBEHABV1@PAV1@@Z 004451d0 f   Rect.obj
 0001:0004428c       ?Split@SOL_Rect@@QAEHAAV1@PAV1@@Z 0044528c f   Rect.obj
 0001:00044452       ?IsWithin@SOL_Rect@@QBEHHH@Z 00445452 f   Rect.obj
 0001:000444b0       ?IsValid@SOL_Rect@@QBEHXZ  004454b0 f i Rect.obj
 0001:000444e0       ??0RectList@@QAE@XZ        004454e0 f   Rectlist.obj
 0001:000444fb       ??1RectList@@QAE@XZ        004454fb f   Rectlist.obj
 0001:00044542       ??0RectList@@QAE@ABV0@@Z   00445542 f   Rectlist.obj
 0001:00044616       ??4RectList@@QAEABV0@ABV0@@Z 00445616 f   Rectlist.obj
 0001:00044724       ?Add@RectList@@QAEXABVSOL_Rect@@@Z 00445724 f   Rectlist.obj
 0001:000447e1       ?Delete@RectList@@QAEXH@Z  004457e1 f   Rectlist.obj
 0001:00044815       ?Pack@RectList@@QAEHXZ     00445815 f   Rectlist.obj
 0001:000448a4       ?Clear@RectList@@QAEXXZ    004458a4 f   Rectlist.obj
 0001:00044910       ??0Remap@@QAE@XZ           00445910 f   Remap.obj
 0001:00044a0c       ??1Remap@@UAE@XZ           00445a0c f   Remap.obj
 0001:00044a6b       ?RemapOff@Remap@@QAEXH@Z   00445a6b f   Remap.obj
 0001:00044c13       ?RemapByRange@Remap@@QAEXHHHHH@Z 00445c13 f   Remap.obj
 0001:00044daa       ?RemapByPercent@Remap@@QAEXHHH@Z 00445daa f   Remap.obj
 0001:00044f05       ?RemapToGray@Remap@@QAEXHHH@Z 00445f05 f   Remap.obj
 0001:00045067       ?RemapToPercentGray@Remap@@QAEXHHHH@Z 00446067 f   Remap.obj
 0001:000451bb       ?RemapAllTables@Remap@@QAEHH@Z 004461bb f   Remap.obj
 0001:00045220       ?DontMapToRange@Remap@@QAEXHH@Z 00446220 f   Remap.obj
 0001:0004524e       ?KRemapColors@@YAXPAF@Z    0044624e f   Remap.obj
 0001:0004549b       ??0SingleRemap@Remap@@QAE@PAE@Z 0044649b f   Remap.obj
 0001:0004560e       ?ByRange@SingleRemap@Remap@@QAEHXZ 0044660e f   Remap.obj
 0001:000456a8       ?ByPercent@SingleRemap@Remap@@QAEHXZ 004466a8 f   Remap.obj
 0001:00045954       ?ToGray@SingleRemap@Remap@@QAEHXZ 00446954 f   Remap.obj
 0001:00045c0c       ?ToPercentGray@SingleRemap@Remap@@QAEHXZ 00446c0c f   Remap.obj
 0001:00045f54       ?Apply@SingleRemap@Remap@@IAEHPAE@Z 00446f54 f   Remap.obj
 0001:00046586       ?Update@SingleRemap@Remap@@QAEHH@Z 00447586 f   Remap.obj
 0001:00046628       ?Match@SingleRemap@Remap@@QAEHPAVRgb24@@HABV3@HAAH@Z 00447628 f   Remap.obj
 0001:00046720       ??_GRemap@@UAEPAXI@Z       00447720 f i Remap.obj
 0001:00046720       ??_ERemap@@UAEPAXI@Z       00447720 f i Remap.obj
 0001:00046750       ??_GSingleRemap@Remap@@QAEPAXI@Z 00447750 f i Remap.obj
 0001:00046780       ??1SingleRemap@Remap@@QAE@XZ 00447780 f i Remap.obj
 0001:00046790       ?InRange@Remap@@IAEHH@Z    00447790 f i Remap.obj
 0001:000467d0       ??9Rgb24@@QBEHABV0@@Z      004477d0 f i Remap.obj
 0001:00046830       ?Lum@Rgb24@@QBEEXZ         00447830 f i Remap.obj
 0001:00046870       ?Dist@Rgb24@@QBEHABV1@@Z   00447870 f i Remap.obj
 0001:00047439       ??0ResourceMgr@@QAE@XZ     00448439 f   Resource.obj
 0001:000474a6       ??1ResourceMgr@@UAE@XZ     004484a6 f   Resource.obj
 0001:000474fc       ?Open@ResourceMgr@@UAEHW4MemType@@GPAD@Z 004484fc f   Resource.obj
 0001:0004752f       ?Close@ResourceMgr@@UAEHH@Z 0044852f f   Resource.obj
 0001:00047566       ?Get@ResourceMgr@@UAE?AVMemID@@W4MemType@@GH@Z 00448566 f   Resource.obj
 0001:0004776c       ?GetExtType@ResourceMgr@@QAE?AW4MemType@@PAD@Z 0044876c f   Resource.obj
 0001:000477d0       ?Check@ResourceMgr@@UAEHW4MemType@@G@Z 004487d0 f   Resource.obj
 0001:0004784b       ?Lock@ResourceMgr@@UAEXW4MemType@@G@Z 0044884b f   Resource.obj
 0001:00047894       ?SetNotDiscardable@ResourceMgr@@UAEXW4MemType@@G@Z 00448894 f   Resource.obj
 0001:000478dd       ?SetDiscardable@ResourceMgr@@UAEXW4MemType@@G@Z 004488dd f   Resource.obj
 0001:00047926       ?MakeDebugDisplayStr@ResourceMgr@@UAE?AVTextID@@XZ 00448926 f   Resource.obj
 0001:000479b7       ?Unlock@ResourceMgr@@UAEXW4MemType@@G@Z 004489b7 f   Resource.obj
 0001:00047a00       ?Release@ResourceMgr@@UAEXW4MemType@@G@Z 00448a00 f   Resource.obj
 0001:00047a49       ?Find@ResourceMgr@@UAE?AVMemID@@W4MemType@@G@Z 00448a49 f   Resource.obj
 0001:00047be5       ?FindType@ResourceMgr@@UAEGW4MemType@@@Z 00448be5 f   Resource.obj
 0001:00047c2f       ?MakeName@ResourceMgr@@UAEPADW4MemType@@G@Z 00448c2f f   Resource.obj
 0001:00047c6a       ?Free@ResourceMgr@@UAEXW4MemType@@G@Z 00448c6a f   Resource.obj
 0001:00047d6d       ?GetIndex@ResourceMgr@@MAEHW4MemType@@G@Z 00448d6d f   Resource.obj
 0001:00047df7       ?AddIndex@ResourceMgr@@MAEHW4MemType@@G@Z 00448df7 f   Resource.obj
 0001:00047f06       ?DeleteIndex@ResourceMgr@@MAEXW4MemType@@G@Z 00448f06 f   Resource.obj
 0001:00047ffd       ?InitResourceMgr@ResourceMgr@@MAEXXZ 00448ffd f   Resource.obj
 0001:00048026       ?LoadResSums@ResourceMgr@@QAEXXZ 00449026 f   Resource.obj
 0001:000481d1       ?LoadResMaps@ResourceMgr@@UAEXXZ 004491d1 f   Resource.obj
 0001:000485ec       ?OpenVolume@ResourceMgr@@UAEHH@Z 004495ec f   Resource.obj
 0001:000487f0       ?VolumeOpen@ResourceMgr@@UAEHH@Z 004497f0 f   Resource.obj
 0001:00048845       ?GetResMapID@ResourceMgr@@UAE?AVMemID@@H@Z 00449845 f   Resource.obj
 0001:0004886c       ?BuildPatchTables@ResourceMgr@@UAEXXZ 0044986c f   Resource.obj
 0001:00048da5       ?DecompBuffer@ResourceMgr@@QAE?AVMemID@@H@Z 00449da5 f   Resource.obj
 0001:00048dbf       ?SetLanguage@ResourceMgr@@QAEXPAD@Z 00449dbf f   Resource.obj
 0001:00048f70       ?KSetLanguage@@YAXPAF@Z    00449f70 f   Resource.obj
 0001:00048fb8       ?KLoad@@YAXPAF@Z           00449fb8 f   Resource.obj
 0001:0004901b       ?KUnload@@YAXPAF@Z         0044a01b f   Resource.obj
 0001:00049060       ?KFlushResources@@YAXPAF@Z 0044a060 f   Resource.obj
 0001:00049065       ?KLock@@YAXPAF@Z           0044a065 f   Resource.obj
 0001:000490f5       ?KResCheck@@YAXPAF@Z       0044a0f5 f   Resource.obj
 0001:000491a0       ??0ResView@@QAE@XZ         0044a1a0 f i Resource.obj
 0001:000491d0       ?IsSupported@SOL_ResType@@UBEHXZ 0044a1d0 f i Resource.obj
 0001:000491f0       ?GetAttrs@SOL_ResType@@UBEIXZ 0044a1f0 f i Resource.obj
 0001:00049200       ?GetFileType@SOL_ResType@@MBE?AW4MemType@@XZ 0044a200 f i Resource.obj
 0001:00049220       ?GetType@ResView@@UBE?AW4MemType@@XZ 0044a220 f i Resource.obj
 0001:00049230       ??0ResPic@@QAE@XZ          0044a230 f i Resource.obj
 0001:00049260       ?GetType@ResPic@@UBE?AW4MemType@@XZ 0044a260 f i Resource.obj
 0001:00049270       ??0ResChunk@@QAE@XZ        0044a270 f i Resource.obj
 0001:000492a0       ?GetType@ResChunk@@UBE?AW4MemType@@XZ 0044a2a0 f i Resource.obj
 0001:000492b0       ??0ResScript@@QAE@XZ       0044a2b0 f i Resource.obj
 0001:000492e0       ?GetType@ResScript@@UBE?AW4MemType@@XZ 0044a2e0 f i Resource.obj
 0001:000492f0       ??0ResSound@@QAE@XZ        0044a2f0 f i Resource.obj
 0001:00049320       ?GetType@ResSound@@UBE?AW4MemType@@XZ 0044a320 f i Resource.obj
 0001:00049330       ??0ResVocab@@QAE@XZ        0044a330 f i Resource.obj
 0001:00049360       ?GetType@ResVocab@@UBE?AW4MemType@@XZ 0044a360 f i Resource.obj
 0001:00049370       ??0ResPatch@@QAE@XZ        0044a370 f i Resource.obj
 0001:000493a0       ?GetType@ResPatch@@UBE?AW4MemType@@XZ 0044a3a0 f i Resource.obj
 0001:000493b0       ??0ResFont@@QAE@XZ         0044a3b0 f i Resource.obj
 0001:000493e0       ?GetType@ResFont@@UBE?AW4MemType@@XZ 0044a3e0 f i Resource.obj
 0001:000493f0       ??0ResPal@@QAE@XZ          0044a3f0 f i Resource.obj
 0001:00049420       ?GetType@ResPal@@UBE?AW4MemType@@XZ 0044a420 f i Resource.obj
 0001:00049430       ??0ResHeap@@QAE@XZ         0044a430 f i Resource.obj
 0001:00049460       ?GetType@ResHeap@@UBE?AW4MemType@@XZ 0044a460 f i Resource.obj
 0001:00049470       ??0ResMsg@@QAE@XZ          0044a470 f i Resource.obj
 0001:000494a0       ?GetType@ResMsg@@UBE?AW4MemType@@XZ 0044a4a0 f i Resource.obj
 0001:000494b0       ??0ResAudio@@QAE@XZ        0044a4b0 f i Resource.obj
 0001:000494e0       ?GetType@ResAudio@@UBE?AW4MemType@@XZ 0044a4e0 f i Resource.obj
 0001:000494f0       ??0ResWave@@QAE@XZ         0044a4f0 f i Resource.obj
 0001:00049520       ?GetType@ResWave@@UBE?AW4MemType@@XZ 0044a520 f i Resource.obj
 0001:00049530       ??0ResAudio36@@QAE@XZ      0044a530 f i Resource.obj
 0001:00049560       ?GetType@ResAudio36@@UBE?AW4MemType@@XZ 0044a560 f i Resource.obj
 0001:00049570       ??0ResSync@@QAE@XZ         0044a570 f i Resource.obj
 0001:000495a0       ?GetType@ResSync@@UBE?AW4MemType@@XZ 0044a5a0 f i Resource.obj
 0001:000495b0       ??0ResSync36@@QAE@XZ       0044a5b0 f i Resource.obj
 0001:000495e0       ?GetType@ResSync36@@UBE?AW4MemType@@XZ 0044a5e0 f i Resource.obj
 0001:000495f0       ??0ResMap@@QAE@XZ          0044a5f0 f i Resource.obj
 0001:00049620       ?GetType@ResMap@@UBE?AW4MemType@@XZ 0044a620 f i Resource.obj
 0001:00049630       ??0ResMsgTranslation@@QAE@XZ 0044a630 f i Resource.obj
 0001:00049660       ?GetType@ResMsgTranslation@@UBE?AW4MemType@@XZ 0044a660 f i Resource.obj
 0001:00049670       ?GetFileType@ResMsgTranslation@@UBE?AW4MemType@@XZ 0044a670 f i Resource.obj
 0001:00049680       ??0ResRobot@@QAE@XZ        0044a680 f i Resource.obj
 0001:000496b0       ?GetType@ResRobot@@UBE?AW4MemType@@XZ 0044a6b0 f i Resource.obj
 0001:000496c0       ??0ResVMD@@QAE@XZ          0044a6c0 f i Resource.obj
 0001:000496f0       ?GetType@ResVMD@@UBE?AW4MemType@@XZ 0044a6f0 f i Resource.obj
 0001:00049700       ??0ResourceList@@QAE@PAVSOL_ResType@@W4ReservedHandle@@H@Z 0044a700 f i Resource.obj
 0001:00049750       ??0ResourceList@@QAE@ABU0@@Z 0044a750 f i Resource.obj
 0001:000497b0       ??0ObjectID@@QAE@ABVMemID@@@Z 0044a7b0 f i Resource.obj
 0001:000497b0       ??0ScrollEntryID@@QAE@ABV0@@Z 0044a7b0 f i Resource.obj
 0001:000497b0       ??0SOL_ListID@@QAE@ABU0@@Z 0044a7b0 f i Resource.obj
 0001:000497b0       ??0ResTagID@@QAE@ABU0@@Z   0044a7b0 f i Resource.obj
 0001:000497b0       ??0VariableID@@QAE@ABVMemID@@@Z 0044a7b0 f i Resource.obj
 0001:000497b0       ??0DispatchTblID@@QAE@ABVMemID@@@Z 0044a7b0 f i Resource.obj
 0001:000497b0       ??0ArrayID@@QAE@AAVMemID@@@Z 0044a7b0 f i Resource.obj
 0001:000497d0       ?Check@ResourceMgr@@MAEHPAVSOL_ResType@@G@Z 0044a7d0 f i Resource.obj
 0001:000497f0       ?Load@ResourceMgr@@MAEXPAVSOL_ResType@@AAUResTag@@H@Z 0044a7f0 f i Resource.obj
 0001:00049810       ?Get@ResourceList@@QAEXXZ  0044a810 f i Resource.obj
 0001:00049850       ?Get@FakeResTagID@@QAEXIW4ReservedHandle@@I@Z 0044a850 f i Resource.obj
 0001:00049880       ??_EResourceMgr@@UAEPAXI@Z 0044a880 f i Resource.obj
 0001:00049880       ??_GResourceMgr@@UAEPAXI@Z 0044a880 f i Resource.obj
 0001:000498b0       ??0MemClient@@QAE@XZ       0044a8b0 f i Resource.obj
 0001:000498d0       ?Free@ResourceList@@QAEXXZ 0044a8d0 f i Resource.obj
 0001:00049900       ?SCI16ToSCI32ResType@@YAXAAW4MemType@@@Z 0044a900 f i Resource.obj
 0001:00049920       ??0ResTag@@QAE@ABU0@@Z     0044a920 f i Resource.obj
 0001:00049950       ?MakeDebugSummaryStr@ResourceList@@QAEXAAVTextID@@@Z 0044a950 f i Resource.obj
 0001:000499f0       ?MakeDebugDetailStr@ResourceList@@QAEXAAVTextID@@@Z 0044a9f0 f i Resource.obj
 0001:00049b20       ??AResTagID@@QAEAAUResTag@@H@Z 0044ab20 f i Resource.obj
 0001:00049b40       ??0SOL_ResType@@QAE@PAD0@Z 0044ab40 f   Restype.obj
 0001:00049b78       ?Check@SOL_ResType@@UAEHG@Z 0044ab78 f   Restype.obj
 0001:00049bba       ?Load@SOL_ResType@@UAEXAAUResTag@@H@Z 0044abba f   Restype.obj
 0001:00049e7d       ?Decompress@SOL_ResType@@MBEXAAUResTag@@@Z 0044ae7d f   Restype.obj
 0001:0004a135       ?Open@SOL_ResType@@UAEHGPAD@Z 0044b135 f   Restype.obj
 0001:0004a73c       ?CanOpen@SOL_ResType@@QAEHGPAD@Z 0044b73c f   Restype.obj
 0001:0004ab07       ?Close@SOL_ResType@@UBEHH@Z 0044bb07 f   Restype.obj
 0001:0004ab44       ?MakeName@SOL_ResType@@UBEXPAD0G@Z 0044bb44 f   Restype.obj
 0001:0004ab97       ?MakeName@SOL_ResType@@MBEXPAD00@Z 0044bb97 f   Restype.obj
 0001:0004ac9b       ?MakeWildName@SOL_ResType@@UBEXPAD0@Z 0044bc9b f   Restype.obj
 0001:0004acc0       ?GetFileSize@SOL_ResType@@MBEJXZ 0044bcc0 f   Restype.obj
 0001:0004ad0c       ?ConfirmType@SOL_ResType@@MBEXW4MemType@@@Z 0044bd0c f   Restype.obj
 0001:0004adb2       ?Read@SOL_ResType@@MBEHPAXH@Z 0044bdb2 f   Restype.obj
 0001:0004add6       ?SeekToData@SOL_ResType@@MBEHXZ 0044bdd6 f   Restype.obj
 0001:0004ae1c       ?FindDirEntry@SOL_ResType@@UBEHGPAH@Z 0044be1c f   Restype.obj
 0001:0004af88       ?FindPatchEntry@SOL_ResType@@UBEHG@Z 0044bf88 f   Restype.obj
 0001:0004b010       ?FindPatch36Entry@SOL_ResType@@MBEHPAD@Z 0044c010 f   Restype.obj
 0001:0004b094       ?CheckPatches@SOL_ResType@@UBEHG@Z 0044c094 f   Restype.obj
 0001:0004b0bb       ?SeekToData@ResView@@MBEHXZ 0044c0bb f   Restype.obj
 0001:0004b104       ?SeekToData@ResPic@@MBEHXZ 0044c104 f   Restype.obj
 0001:0004b147       ?SeekToData@ResPal@@MBEHXZ 0044c147 f   Restype.obj
 0001:0004b18d       ?SeekToData@ResWave@@MBEHXZ 0044c18d f   Restype.obj
 0001:0004b19a       ?SeekToData@ResAudio@@MBEHXZ 0044c19a f   Restype.obj
 0001:0004b1a7       ?SeekToData@ResAudio36@@MBEHXZ 0044c1a7 f   Restype.obj
 0001:0004b1b4       ?SeekToData@ResVMD@@MBEHXZ 0044c1b4 f   Restype.obj
 0001:0004b1e0       ?GetType@SOL_ResType@@UBE?AW4MemType@@XZ 0044c1e0 f i Restype.obj
 0001:0004b1f0       ?Init@SCI@@MAEXHQAPAD@Z    0044c1f0 f   Sci.obj
 0001:0004b383       ?InitPlane@SCI@@MAEXXZ     0044c383 f   Sci.obj
 0001:0004b423       ?MakeFontMgr@SCI@@MAEPAVFontMgr@@XZ 0044c423 f   Sci.obj
 0001:0004b497       ?MakeResourceMgr@SCI@@MAEPAVResourceMgr@@XZ 0044c497 f   Sci.obj
 0001:0004b504       ?Run@SCI@@UAEXHQAPAD@Z     0044c504 f   Sci.obj
 0001:0004b529       ??1SCI@@UAE@XZ             0044c529 f   Sci.obj
 0001:0004b690       ?UpdateBitmaps@CToonMakeWndBase@@UAEXXZ 0044c690 f i Sci.obj
 0001:0004b690       ?PaintStarting@CursorWin@@UAEXXZ 0044c690 f i Sci.obj
 0001:0004b690       ?Previous@CSkinWnd@@UAEXXZ 0044c690 f i Sci.obj
 0001:0004b690       ?Next@CToonMakeWndBase@@UAEXXZ 0044c690 f i Sci.obj
 0001:0004b690       ?InitExceptions@SCI@@MAEXXZ 0044c690 f i Sci.obj
 0001:0004b690       ?Next@CSkinWnd@@UAEXXZ     0044c690 f i Sci.obj
 0001:0004b690       ?DonePainting@CursorWin@@UAEXXZ 0044c690 f i Sci.obj
 0001:0004b690       ?UpdateStats@CToonMakeWndBase@@UAEXXZ 0044c690 f i Sci.obj
 0001:0004b690       ?ClearLastScreen@GraphicsMgrWin@@UAEXXZ 0044c690 f i Sci.obj
 0001:0004b690       ??1Array@@QAE@XZ           0044c690 f i Sci.obj
 0001:0004b690       ?Refresh@CTabDlgBtn@@UAEXXZ 0044c690 f i Sci.obj
 0001:0004b690       ?UpdateMe@CScrollable@@UAEXXZ 0044c690 f i Sci.obj
 0001:0004b690       ?UpdateText@CToonMakeWndBase@@UAEXXZ 0044c690 f i Sci.obj
 0001:0004b690       ?Previous@CToonMakeWndBase@@UAEXXZ 0044c690 f i Sci.obj
 0001:0004b690       ?FlushKeyboard@EventMgrWin@@MAEXXZ 0044c690 f i Sci.obj
 0001:0004b6a0       ??_GSCI@@UAEPAXI@Z         0044c6a0 f i Sci.obj
 0001:0004b6a0       ??_ESCI@@UAEPAXI@Z         0044c6a0 f i Sci.obj
 0001:0004b70f       ?InitAudio@SCIWin@@UAEXXZ  0044c70f f   Sciw.obj
 0001:0004b71a       ?InitInterrupts@SCIWin@@UAEXXZ 0044c71a f   Sciw.obj
 0001:0004b725       ?InitPalette@SCIWin@@UAEXXZ 0044c725 f   Sciw.obj
 0001:0004b834       ?InitSound@SCIWin@@UAEXXZ  0044c834 f   Sciw.obj
 0001:0004b83f       ?MakeConfigMgr@SCIWin@@UAEPAVConfigMgr@@HQAPAD@Z 0044c83f f   Sciw.obj
 0001:0004b8d3       ?MakeEventMgr@SCIWin@@UAEPAUEventMgr@@XZ 0044c8d3 f   Sciw.obj
 0001:0004b940       ?MakeGraphicsMgr@SCIWin@@UAEPAVGraphicsMgr@@XZ 0044c940 f   Sciw.obj
 0001:0004b9ce       ?MakeMemoryMgr@SCIWin@@UAEPAVMemoryMgr@@XZ 0044c9ce f   Sciw.obj
 0001:0004ba38       ?MakeMouse@SCIWin@@UAEPAVSOL_Mouse@@XZ 0044ca38 f   Sciw.obj
 0001:0004bb2a       ?MakeMsgMgr@SCIWin@@UAEPAVMsgMgr@@XZ 0044cb2a f   Sciw.obj
 0001:0004bb97       ?MakeTimeMgr@SCIWin@@UAEPAVTimeMgr@@XZ 0044cb97 f   Sciw.obj
 0001:0004bc01       ?scimain@@YAHHQAPAD@Z      0044cc01 f   Sciw.obj
 0001:0004bc30       ??1SCIWin@@UAE@XZ          0044cc30 f i Sciw.obj
 0001:0004bc50       ??0SCIWin@@QAE@XZ          0044cc50 f i Sciw.obj
 0001:0004bc70       ??_GSCIWin@@UAEPAXI@Z      0044cc70 f i Sciw.obj
 0001:0004bc70       ??_ESCIWin@@UAEPAXI@Z      0044cc70 f i Sciw.obj
 0001:0004bca0       ??0SCI@@QAE@XZ             0044cca0 f i Sciw.obj
 0001:0004bcc0       ??0MemoryMgrWin@@QAE@XZ    0044ccc0 f i Sciw.obj
 0001:0004bcf0       ??0MsgMgrWin@@QAE@XZ       0044ccf0 f i Sciw.obj
 0001:0004bd10       ?crashHandler@@YGJPAU_EXCEPTION_POINTERS@@@Z 0044cd10 f   Sciwin.obj
 0001:0004c184       ?AsyncEventCheck@@YAXXZ    0044d184 f   Sciwin.obj
 0001:0004c210       ?ReadCommandLine@@YAXPAD@Z 0044d210 f   Sciwin.obj
 0001:0004c36b       ?GetProfileInfo@@YAXXZ     0044d36b f   Sciwin.obj
 0001:0004c370       ?GetTFOption@@YAHPADH@Z    0044d370 f   Sciwin.obj
 0001:0004c3cb       ?GetIntOption@@YAHPADH@Z   0044d3cb f   Sciwin.obj
 0001:0004c4bc       ?GetNumToken@@YAHPADHH@Z   0044d4bc f   Sciwin.obj
 0001:0004c55c       ?GetStrToken@@YAHPADH0@Z   0044d55c f   Sciwin.obj
 0001:0004c5f2       ?GetScreenInfo@@YAXXZ      0044d5f2 f   Sciwin.obj
 0001:0004c962       ?CheckConfig@@YAXXZ        0044d962 f   Sciwin.obj
 0001:0004c9dc       ?MBox@@YAXPAD0@Z           0044d9dc f   Sciwin.obj
 0001:0004ca14       ?MBox2@@YAHPAD0@Z          0044da14 f   Sciwin.obj
 0001:0004ca56       ?SciDisplay@@YAXPADHHHHH@Z 0044da56 f   Sciwin.obj
 0001:0004cab7       ?WndProc@@YGJPAUHWND__@@IGJ@Z 0044dab7 f   Sciwin.obj
 0001:0004d241       ?doDialog@@YAHH@Z          0044e241 f   Sciwin.obj
 0001:0004d27a       ?testDlgProc@@YGHPAUHWND__@@IIJ@Z 0044e27a f   Sciwin.obj
 0001:0004d2f3       ?genericDialogHandler@@YGHPAUHWND__@@IIJ@Z 0044e2f3 f   Sciwin.obj
 0001:0004d3b0       ?SetPaintFlag@MouseWinClr@@QAEXXZ 0044e3b0 f i Sciwin.obj
 0001:0004d3d0       ?AbortPlane@Screen@@QAEXPBVSOL_Plane@@@Z 0044e3d0 f   Screen.obj
 0001:0004d418       ?AddPlane@Screen@@QAEXPAVSOL_Plane@@@Z 0044e418 f   Screen.obj
 0001:0004d49f       ?AddPic@Screen@@QAEHJHABVSOL_Point@@H@Z 0044e49f f   Screen.obj
 0001:0004d502       ?DeletePic@Screen@@QAEXJHH@Z 0044e502 f   Screen.obj
 0001:0004d55f       ?ScrollScreenItems@Screen@@QAEXJHHH@Z 0044e55f f   Screen.obj
 0001:0004d5c0       ?CheckIntegrity@Screen@@QAEXXZ 0044e5c0 f   Screen.obj
 0001:0004d601       ?AddScreenItem@Screen@@QAEXPAVScreenItem@@@Z 0044e601 f   Screen.obj
 0001:0004d663       ?NewScreenDim@Screen@@QAEXHH@Z 0044e663 f   Screen.obj
 0001:0004d706       ?Clear@Screen@@QAEXXZ      0044e706 f   Screen.obj
 0001:0004d727       ?PlaneRect@Screen@@QBEXHAAVSOL_Rect@@@Z 0044e727 f   Screen.obj
 0001:0004d788       ?TopScreenItem@Screen@@QBEHH@Z 0044e788 f   Screen.obj
 0001:0004d7e0       ?CalcLists@Screen@@QAEXAAV1@QAPAVDrawList@@QAPAVRectList@@ABVSOL_Rect@@@Z 0044e7e0 f   Screen.obj
 0001:0004e940       ?RemapMarkRedraw@Screen@@QAEXXZ 0044f940 f   Screen.obj
 0001:0004e987       ?GetScreenItem@Screen@@QAEPAVScreenItem@@HJ@Z 0044f987 f   Screen.obj
 0001:0004e9ea       ?GetPlane@Screen@@QAEPAVSOL_Plane@@H@Z 0044f9ea f   Screen.obj
 0001:0004ea20       ??APlaneList@@QBEABVSOL_Plane@@H@Z 0044fa20 f i Screen.obj
 0001:0004ea40       ?DeleteCount@SOL_Plane@@QBEHXZ 0044fa40 f i Screen.obj
 0001:0004ea40       ?FixedPri@ScreenItem@@QBEHXZ 0044fa40 f i Screen.obj
 0001:0004ea60       ?PriorityCount@SOL_Plane@@QAEHXZ 0044fa60 f i Screen.obj
 0001:0004ea80       ?RedrawAllCount@SOL_Plane@@QBEHXZ 0044fa80 f i Screen.obj
 0001:0004eaa0       ?UpdateCount@SOL_Plane@@QBEHXZ 0044faa0 f i Screen.obj
 0001:0004eac0       ?DecAddCount@SOL_Plane@@QAEXXZ 0044fac0 f i Screen.obj
 0001:0004eae0       ?DecDeleteCount@SOL_Plane@@QAEXXZ 0044fae0 f i Screen.obj
 0001:0004eb00       ?DecPriorityCount@SOL_Plane@@QAEXXZ 0044fb00 f i Screen.obj
 0001:0004eb20       ?DecUpdateCount@SOL_Plane@@QAEXXZ 0044fb20 f i Screen.obj
 0001:0004ebe4       ??0Entrys@@QAE@XZ          0044fbe4 f   Script.obj
 0001:0004ec19       ??1Entrys@@QAE@XZ          0044fc19 f   Script.obj
 0001:0004ec74       ?Add@Entrys@@QAE?AVMemID@@PAVEntry@@@Z 0044fc74 f   Script.obj
 0001:0004ed27       ?Find@Entrys@@QAEPAVEntry@@I@Z 0044fd27 f   Script.obj
 0001:0004eda0       ?Fixup@Entrys@@QAEXI@Z     0044fda0 f   Script.obj
 0001:0004ee41       ?GetFirst@Entrys@@QAEPAVEntry@@XZ 0044fe41 f   Script.obj
 0001:0004ee5e       ?GetNext@Entrys@@QAEPAVEntry@@XZ 0044fe5e f   Script.obj
 0001:0004ee98       ?GetFirstObject@Entrys@@QAE?AVObjectID@@XZ 0044fe98 f   Script.obj
 0001:0004eec9       ?GetNextObject@Entrys@@QAE?AVObjectID@@XZ 0044fec9 f   Script.obj
 0001:0004ef5a       _GetDispatchEntry          0044ff5a f   Script.obj
 0001:0004efe2       ?LoadScript@@YA?AUScriptID@@I@Z 0044ffe2 f   Script.obj
 0001:0004fcbe       ?ReloadScript@@YAXUScriptID@@@Z 00450cbe f   Script.obj
 0001:0004fdcd       ?ScriptPtr@@YA?AUScriptID@@I@Z 00450dcd f   Script.obj
 0001:0004fea5       _GetClass                  00450ea5 f   Script.obj
 0001:0004ff55       ?GetClassByName@@YAGPAD@Z  00450f55 f   Script.obj
 0001:0004fff6       _LoadClassTbl              00450ff6 f   Script.obj
 0001:000500d1       ?DisposeAllScripts@@YAXXZ  004510d1 f   Script.obj
 0001:00050319       ?KScriptID@@YAXPAF@Z       00451319 f   Script.obj
 0001:0005036c       ?KDisposeScript@@YAXPAF@Z  0045136c f   Script.obj
 0001:000503e0       ??0FakeVariableID@@QAE@XZ  004513e0 f i Script.obj
 0001:000503e0       ??0FakeResTagID@@QAE@XZ    004513e0 f i Script.obj
 0001:000503e0       ??0FakeClassTblID@@QAE@XZ  004513e0 f i Script.obj
 0001:000503e0       ??0ResMaps@@QAE@XZ         004513e0 f i Script.obj
 0001:000503e0       ??0FakeDispatchTblID@@QAE@XZ 004513e0 f i Script.obj
 0001:000503e0       ??0ScriptID@@QAE@XZ        004513e0 f i Script.obj
 0001:000503e0       ??0FakeArrayID@@QAE@XZ     004513e0 f i Script.obj
 0001:000503e0       ??0FakeObjectID@@QAE@XZ    004513e0 f i Script.obj
 0001:000503e0       ??0FakeSOL_ListID@@QAE@XZ  004513e0 f i Script.obj
 0001:000503e0       ??0FakeScrollWindowID@@QAE@XZ 004513e0 f i Script.obj
 0001:000503e0       ??0FakeScriptEntryID@@QAE@XZ 004513e0 f i Script.obj
 0001:000503e0       ??0FakeScrollEntryID@@QAE@XZ 004513e0 f i Script.obj
 0001:000503e0       ??0MsgStackID@@QAE@XZ      004513e0 f i Script.obj
 0001:00050400       ??1?$map@V?$basic_string@DU?$char_traits@D@std@@V?$allocator@D@2@@std@@HU?$less@V?$basic_string@DU?$char_traits@D@std@@V?$allocator@D@2@@std@@@2@V?$allocator@H@2@@std@@QAE@XZ 00451400 f i Script.obj
 0001:00050420       ?Contains@Entry@@QAEHI@Z   00451420 f i Script.obj
 0001:00050460       ??ADispatchTblID@@QAEAATDispatchEntry@@H@Z 00451460 f i Script.obj
 0001:00050480       ??0ScriptID@@QAE@ABU0@@Z   00451480 f i Script.obj
 0001:000504a0       ??0ScriptHeapID@@QAE@ABVMemID@@@Z 004514a0 f i Script.obj
 0001:000504c0       ?Unlock@ScriptHeapID@@QBEPAUScriptHeap@@XZ 004514c0 f i Script.obj
 0001:000504c0       ?Unlock@ScriptHunkID@@QBEPAUScriptHunk@@XZ 004514c0 f i Script.obj
 0001:000504e0       ?Get@FakeScriptEntryID@@QAEXIIIPAUMemClient@@DW4ReservedHandle@@@Z 004514e0 f i Script.obj
 0001:00050510       ?Get@ScriptID@@QAEXXZ      00451510 f i Script.obj
 0001:00050570       ??0Script@@QAE@XZ          00451570 f i Script.obj
 0001:000505e0       ??AClassTblID@@QAEAAUClassTblEntry@@H@Z 004515e0 f i Script.obj
 0001:00050600       ??DFakeClassTblID@@QBEPAUClassTbl@@XZ 00451600 f i Script.obj
 0001:00050620       ??0CSCI_Object@@QAE@ABVObjectID@@@Z 00451620 f i Script.obj
 0001:00050620       ??0CSCI_Object@@QAE@ABVMemID@@@Z 00451620 f i Script.obj
 0001:00050640       ?get_name@CSCI_Object@@QAE?AVStringID@@XZ 00451640 f i Script.obj
 0001:00050680       ??0ObjectIDEntry@@QAE@VMemID@@AAI@Z 00451680 f i Script.obj
 0001:00050700       ?Size@Object@@QAEFXZ       00451700 f i Script.obj
 0001:00050720       ??0Entry@@QAE@IIW4MemType@@W4Type@ScriptEntry@@@Z 00451720 f i Script.obj
 0001:00050770       ?Fixup@Entry@@UAE?AVMemID@@PAVEntrys@@I@Z 00451770 f i Script.obj
 0001:000507d0       ??0StringIDEntry@@QAE@VMemID@@AAI@Z 004517d0 f i Script.obj
 0001:00050830       ??0Entry@@QAE@VMemID@@AAIIW4MemType@@W4Type@ScriptEntry@@I@Z 00451830 f i Script.obj
 0001:000508c0       ?Get@MemID@@QAEXW4MemType@@V1@III@Z 004518c0 f i Script.obj
 0001:00050910       ??0VariablesIDEntry@@QAE@VMemID@@AAII@Z 00451910 f i Script.obj
 0001:00050960       ??0CodeIDEntry@@QAE@VMemID@@AAII@Z 00451960 f i Script.obj
 0001:000509c0       ?Fixup@CodeIDEntry@@UAE?AVMemID@@PAVEntrys@@I@Z 004519c0 f i Script.obj
 0001:00050a20       ?AddFixup@CodeIDEntry@@QAEXVMemID@@I@Z 00451a20 f i Script.obj
 0001:00050ad0       ??0DispatchesIDEntry@@QAE@VMemID@@AAI@Z 00451ad0 f i Script.obj
 0001:00050b30       ?Get@FakeClassTblID@@QAEXIIIPAUMemClient@@DW4ReservedHandle@@@Z 00451b30 f i Script.obj
 0001:00050b60       ??AScriptEntryID@@QAEAAUScriptEntry@@H@Z 00451b60 f i Script.obj
 0001:00050b80       ??0?$map@V?$basic_string@DU?$char_traits@D@std@@V?$allocator@D@2@@std@@HU?$less@V?$basic_string@DU?$char_traits@D@std@@V?$allocator@D@2@@std@@@2@V?$allocator@H@2@@std@@QAE@ABU?$less@V?$basic_string@DU?$char_traits@D@std@@V?$allocator@D@2@@std@@@1@ABV?$allocator@H@1@@Z 00451b80 f i Script.obj
 0001:00050bb0       ??A?$map@V?$basic_string@DU?$char_traits@D@std@@V?$allocator@D@2@@std@@HU?$less@V?$basic_string@DU?$char_traits@D@std@@V?$allocator@D@2@@std@@@2@V?$allocator@H@2@@std@@QAEAAHABV?$basic_string@DU?$char_traits@D@std@@V?$allocator@D@2@@1@@Z 00451bb0 f i Script.obj
 0001:00050c40       ?find@?$map@V?$basic_string@DU?$char_traits@D@std@@V?$allocator@D@2@@std@@HU?$less@V?$basic_string@DU?$char_traits@D@std@@V?$allocator@D@2@@std@@@2@V?$allocator@H@2@@std@@QAE?AViterator@?$_Tree@V?$basic_string@DU?$char_traits@D@std@@V?$allocator@D@2@@std@@U?$pair@$$CBV?$basic_string@DU?$char_traits@D@std@@V?$allocator@D@2@@std@@H@2@U_Kfn@?$map@V?$basic_string@DU?$char_traits@D@std@@V?$allocator@D@2@@std@@HU?$less@V?$basic_string@DU?$char_traits@D@std@@V?$allocator@D@2@@std@@@2@V?$allocator@H@2@@2@U?$less@V?$basic_string@DU?$char_traits@D@std@@V?$allocator@D@2@@std@@@2@V?$allocator@H@2@@2@ABV?$basic_string@DU?$char_traits@D@std@@V?$allocator@D@2@@2@@Z 00451c40 f i Script.obj
 0001:00050c70       ??1?$_Tree@V?$basic_string@DU?$char_traits@D@std@@V?$allocator@D@2@@std@@U?$pair@$$CBV?$basic_string@DU?$char_traits@D@std@@V?$allocator@D@2@@std@@H@2@U_Kfn@?$map@V?$basic_string@DU?$char_traits@D@std@@V?$allocator@D@2@@std@@HU?$less@V?$basic_string@DU?$char_traits@D@std@@V?$allocator@D@2@@std@@@2@V?$allocator@H@2@@2@U?$less@V?$basic_string@DU?$char_traits@D@std@@V?$allocator@D@2@@std@@@2@V?$allocator@H@2@@std@@QAE@XZ 00451c70 f i Script.obj
 0001:00050d40       ??9iterator@?$_Tree@V?$basic_string@DU?$char_traits@D@std@@V?$allocator@D@2@@std@@U?$pair@$$CBV?$basic_string@DU?$char_traits@D@std@@V?$allocator@D@2@@std@@PAVCPrivateTell@@@2@U_Kfn@?$map@V?$basic_string@DU?$char_traits@D@std@@V?$allocator@D@2@@std@@PAVCPrivateTell@@U?$less@V?$basic_string@DU?$char_traits@D@std@@V?$allocator@D@2@@std@@@2@V?$allocator@PAVCPrivateTell@@@2@@2@U?$less@V?$basic_string@DU?$char_traits@D@std@@V?$allocator@D@2@@std@@@2@V?$allocator@PAVCPrivateTell@@@2@@std@@QBE_NABV012@@Z 00451d40 f i Script.obj
 0001:00050d40       ??9iterator@?$_Tree@V?$basic_string@DU?$char_traits@D@std@@V?$allocator@D@2@@std@@U?$pair@$$CBV?$basic_string@DU?$char_traits@D@std@@V?$allocator@D@2@@std@@H@2@U_Kfn@?$map@V?$basic_string@DU?$char_traits@D@std@@V?$allocator@D@2@@std@@HU?$less@V?$basic_string@DU?$char_traits@D@std@@V?$allocator@D@2@@std@@@2@V?$allocator@H@2@@2@U?$less@V?$basic_string@DU?$char_traits@D@std@@V?$allocator@D@2@@std@@@2@V?$allocator@H@2@@std@@QBE_NABV012@@Z 00451d40 f i Script.obj
 0001:00050d70       ?insert@?$map@V?$basic_string@DU?$char_traits@D@std@@V?$allocator@D@2@@std@@HU?$less@V?$basic_string@DU?$char_traits@D@std@@V?$allocator@D@2@@std@@@2@V?$allocator@H@2@@std@@QAE?AU?$pair@Viterator@?$_Tree@V?$basic_string@DU?$char_traits@D@std@@V?$allocator@D@2@@std@@U?$pair@$$CBV?$basic_string@DU?$char_traits@D@std@@V?$allocator@D@2@@std@@H@2@U_Kfn@?$map@V?$basic_string@DU?$char_traits@D@std@@V?$allocator@D@2@@std@@HU?$less@V?$basic_string@DU?$char_traits@D@std@@V?$allocator@D@2@@std@@@2@V?$allocator@H@2@@2@U?$less@V?$basic_string@DU?$char_traits@D@std@@V?$allocator@D@2@@std@@@2@V?$allocator@H@2@@std@@_N@2@ABU?$pair@$$CBV?$basic_string@DU?$char_traits@D@std@@V?$allocator@D@2@@std@@H@2@@Z 00451d70 f i Script.obj
 0001:00050dc0       ?_Value@?$_Tree@VCSkinObj@@U?$pair@$$CBVCSkinObj@@PAVCFastScrollCtrl@@@std@@U_Kfn@?$map@VCSkinObj@@PAVCFastScrollCtrl@@U?$less@VCSkinObj@@@std@@V?$allocator@PAVCFastScrollCtrl@@@4@@3@U?$less@VCSkinObj@@@3@V?$allocator@PAVCFastScrollCtrl@@@3@@std@@KAAAU?$pair@$$CBVCSkinObj@@PAVCFastScrollCtrl@@@2@PAU_Node@12@@Z 00451dc0 f i Script.obj
 0001:00050dc0       ?_Value@?$_Tree@HU?$pair@$$CBHVCSCI_WorldObject@@@std@@U_Kfn@?$map@HVCSCI_WorldObject@@U?$less@H@std@@V?$allocator@VCSCI_WorldObject@@@3@@2@U?$less@H@2@V?$allocator@VCSCI_WorldObject@@@2@@std@@KAAAU?$pair@$$CBHVCSCI_WorldObject@@@2@PAU_Node@12@@Z 00451dc0 f i Script.obj
 0001:00050dc0       ?_Value@?$_Tree@HU?$pair@$$CBHPAVCMailMsgWnd@@@std@@U_Kfn@?$map@HPAVCMailMsgWnd@@U?$less@H@std@@V?$allocator@PAVCMailMsgWnd@@@3@@2@U?$less@H@2@V?$allocator@PAVCMailMsgWnd@@@2@@std@@KAAAU?$pair@$$CBHPAVCMailMsgWnd@@@2@PAU_Node@12@@Z 00451dc0 f i Script.obj
 0001:00050dc0       ?_Value@?$_Tree@PAVCSkinWnd@@PAV1@U_Kfn@?$set@PAVCSkinWnd@@U?$less@PAVCSkinWnd@@@std@@V?$allocator@PAVCSkinWnd@@@3@@std@@U?$less@PAVCSkinWnd@@@4@V?$allocator@PAVCSkinWnd@@@4@@std@@KAAAPAVCSkinWnd@@PAU_Node@12@@Z 00451dc0 f i Script.obj
 0001:00050dc0       ?_Value@?$_Tree@VCSkinObj@@U?$pair@$$CBVCSkinObj@@PAVCSkinCtrl@@@std@@U_Kfn@?$map@VCSkinObj@@PAVCSkinCtrl@@U?$less@VCSkinObj@@@std@@V?$allocator@PAVCSkinCtrl@@@4@@3@U?$less@VCSkinObj@@@3@V?$allocator@PAVCSkinCtrl@@@3@@std@@KAAAU?$pair@$$CBVCSkinObj@@PAVCSkinCtrl@@@2@PAU_Node@12@@Z 00451dc0 f i Script.obj
 0001:00050dc0       ?_Value@?$_Tree@V?$basic_string@DU?$char_traits@D@std@@V?$allocator@D@2@@std@@U?$pair@$$CBV?$basic_string@DU?$char_traits@D@std@@V?$allocator@D@2@@std@@VCPoint@@@2@U_Kfn@?$map@V?$basic_string@DU?$char_traits@D@std@@V?$allocator@D@2@@std@@VCPoint@@U?$less@V?$basic_string@DU?$char_traits@D@std@@V?$allocator@D@2@@std@@@2@V?$allocator@VCPoint@@@2@@2@U?$less@V?$basic_string@DU?$char_traits@D@std@@V?$allocator@D@2@@std@@@2@V?$allocator@VCPoint@@@2@@std@@KAAAU?$pair@$$CBV?$basic_string@DU?$char_traits@D@std@@V?$allocator@D@2@@std@@VCPoint@@@2@PAU_Node@12@@Z 00451dc0 f i Script.obj
 0001:00050dc0       ?_Value@?$_Tree@PAUHWND__@@U?$pair@QAUHWND__@@PAVCMouseWheelable@@@std@@U_Kfn@?$map@PAUHWND__@@PAVCMouseWheelable@@U?$less@PAUHWND__@@@std@@V?$allocator@PAVCMouseWheelable@@@4@@3@U?$less@PAUHWND__@@@3@V?$allocator@PAVCMouseWheelable@@@3@@std@@KAAAU?$pair@QAUHWND__@@PAVCMouseWheelable@@@2@PAU_Node@12@@Z 00451dc0 f i Script.obj
 0001:00050dc0       ?_Value@?$_Tree@HU?$pair@$$CBHPAVCVerbBtn@@@std@@U_Kfn@?$map@HPAVCVerbBtn@@U?$less@H@std@@V?$allocator@PAVCVerbBtn@@@3@@2@U?$less@H@2@V?$allocator@PAVCVerbBtn@@@2@@std@@KAAAU?$pair@$$CBHPAVCVerbBtn@@@2@PAU_Node@12@@Z 00451dc0 f i Script.obj
 0001:00050dc0       ?_Value@?$_Tree@PAUHWND__@@U?$pair@QAUHWND__@@PAVCDropTarget@@@std@@U_Kfn@?$map@PAUHWND__@@PAVCDropTarget@@U?$less@PAUHWND__@@@std@@V?$allocator@PAVCDropTarget@@@4@@3@U?$less@PAUHWND__@@@3@V?$allocator@PAVCDropTarget@@@3@@std@@KAAAU?$pair@QAUHWND__@@PAVCDropTarget@@@2@PAU_Node@12@@Z 00451dc0 f i Script.obj
 0001:00050dc0       ?_Value@?$_Tree@PAUHWND__@@U?$pair@QAUHWND__@@PAVCSkinWnd@@@std@@U_Kfn@?$map@PAUHWND__@@PAVCSkinWnd@@U?$less@PAUHWND__@@@std@@V?$allocator@PAVCSkinWnd@@@4@@3@U?$less@PAUHWND__@@@3@V?$allocator@PAVCSkinWnd@@@3@@std@@KAAAU?$pair@QAUHWND__@@PAVCSkinWnd@@@2@PAU_Node@12@@Z 00451dc0 f i Script.obj
 0001:00050dc0       ?_Value@?$_Tree@VCSCI_Object@@U?$pair@$$CBVCSCI_Object@@PAVCNoButtonDlg@@@std@@U_Kfn@?$map@VCSCI_Object@@PAVCNoButtonDlg@@U?$less@VCSCI_Object@@@std@@V?$allocator@PAVCNoButtonDlg@@@4@@3@U?$less@VCSCI_Object@@@3@V?$allocator@PAVCNoButtonDlg@@@3@@std@@KAAAU?$pair@$$CBVCSCI_Object@@PAVCNoButtonDlg@@@2@PAU_Node@12@@Z 00451dc0 f i Script.obj
 0001:00050dc0       ?_Value@?$_Tree@VCString@@U?$pair@$$CBVCString@@VCPerson@@@std@@U_Kfn@?$map@VCString@@VCPerson@@U?$less@VCString@@@std@@V?$allocator@VCPerson@@@4@@3@U?$less@VCString@@@3@V?$allocator@VCPerson@@@3@@std@@KAAAU?$pair@$$CBVCString@@VCPerson@@@2@PAU_Node@12@@Z 00451dc0 f i Script.obj
 0001:00050dc0       ?_Value@?$_Tree@HU?$pair@$$CBHPAVCMailMsg@@@std@@U_Kfn@?$map@HPAVCMailMsg@@U?$less@H@std@@V?$allocator@PAVCMailMsg@@@3@@2@U?$less@H@2@V?$allocator@PAVCMailMsg@@@2@@std@@KAAAU?$pair@$$CBHPAVCMailMsg@@@2@PAU_Node@12@@Z 00451dc0 f i Script.obj
 0001:00050dc0       ?_Value@?$_Tree@V?$basic_string@DU?$char_traits@D@std@@V?$allocator@D@2@@std@@U?$pair@$$CBV?$basic_string@DU?$char_traits@D@std@@V?$allocator@D@2@@std@@H@2@U_Kfn@?$map@V?$basic_string@DU?$char_traits@D@std@@V?$allocator@D@2@@std@@HU?$less@V?$basic_string@DU?$char_traits@D@std@@V?$allocator@D@2@@std@@@2@V?$allocator@H@2@@2@U?$less@V?$basic_string@DU?$char_traits@D@std@@V?$allocator@D@2@@std@@@2@V?$allocator@H@2@@std@@KAAAU?$pair@$$CBV?$basic_string@DU?$char_traits@D@std@@V?$allocator@D@2@@std@@H@2@PAU_Node@12@@Z 00451dc0 f i Script.obj
 0001:00050dc0       ?_Value@?$_Tree@V?$basic_string@DU?$char_traits@D@std@@V?$allocator@D@2@@std@@U?$pair@$$CBV?$basic_string@DU?$char_traits@D@std@@V?$allocator@D@2@@std@@PAVCPrivateTell@@@2@U_Kfn@?$map@V?$basic_string@DU?$char_traits@D@std@@V?$allocator@D@2@@std@@PAVCPrivateTell@@U?$less@V?$basic_string@DU?$char_traits@D@std@@V?$allocator@D@2@@std@@@2@V?$allocator@PAVCPrivateTell@@@2@@2@U?$less@V?$basic_string@DU?$char_traits@D@std@@V?$allocator@D@2@@std@@@2@V?$allocator@PAVCPrivateTell@@@2@@std@@KAAAU?$pair@$$CBV?$basic_string@DU?$char_traits@D@std@@V?$allocator@D@2@@std@@PAVCPrivateTell@@@2@PAU_Node@12@@Z 00451dc0 f i Script.obj
 0001:00050dc0       ?_Value@?$_Tree@HU?$pair@$$CBHPAVCVerb@@@std@@U_Kfn@?$map@HPAVCVerb@@U?$less@H@std@@V?$allocator@PAVCVerb@@@3@@2@U?$less@H@2@V?$allocator@PAVCVerb@@@2@@std@@KAAAU?$pair@$$CBHPAVCVerb@@@2@PAU_Node@12@@Z 00451dc0 f i Script.obj
 0001:00050dc0       ?_Value@?$_Tree@PAVCSkinCtrl@@PAV1@U_Kfn@?$set@PAVCSkinCtrl@@U?$less@PAVCSkinCtrl@@@std@@V?$allocator@PAVCSkinCtrl@@@3@@std@@U?$less@PAVCSkinCtrl@@@4@V?$allocator@PAVCSkinCtrl@@@4@@std@@KAAAPAVCSkinCtrl@@PAU_Node@12@@Z 00451dc0 f i Script.obj
 0001:00050dc0       ?_Value@?$_Tree@VCSCI_WorldObject@@U?$pair@$$CBVCSCI_WorldObject@@PAVCInventoryDlg@@@std@@U_Kfn@?$map@VCSCI_WorldObject@@PAVCInventoryDlg@@U?$less@VCSCI_WorldObject@@@std@@V?$allocator@PAVCInventoryDlg@@@4@@3@U?$less@VCSCI_WorldObject@@@3@V?$allocator@PAVCInventoryDlg@@@3@@std@@KAAAU?$pair@$$CBVCSCI_WorldObject@@PAVCInventoryDlg@@@2@PAU_Node@12@@Z 00451dc0 f i Script.obj
 0001:00050dd0       ??0?$_Tree@V?$basic_string@DU?$char_traits@D@std@@V?$allocator@D@2@@std@@U?$pair@$$CBV?$basic_string@DU?$char_traits@D@std@@V?$allocator@D@2@@std@@H@2@U_Kfn@?$map@V?$basic_string@DU?$char_traits@D@std@@V?$allocator@D@2@@std@@HU?$less@V?$basic_string@DU?$char_traits@D@std@@V?$allocator@D@2@@std@@@2@V?$allocator@H@2@@2@U?$less@V?$basic_string@DU?$char_traits@D@std@@V?$allocator@D@2@@std@@@2@V?$allocator@H@2@@std@@QAE@ABU?$less@V?$basic_string@DU?$char_traits@D@std@@V?$allocator@D@2@@std@@@1@_NABV?$allocator@H@1@@Z 00451dd0 f i Script.obj
 0001:00050e10       ?erase@?$_Tree@V?$basic_string@DU?$char_traits@D@std@@V?$allocator@D@2@@std@@U?$pair@$$CBV?$basic_string@DU?$char_traits@D@std@@V?$allocator@D@2@@std@@H@2@U_Kfn@?$map@V?$basic_string@DU?$char_traits@D@std@@V?$allocator@D@2@@std@@HU?$less@V?$basic_string@DU?$char_traits@D@std@@V?$allocator@D@2@@std@@@2@V?$allocator@H@2@@2@U?$less@V?$basic_string@DU?$char_traits@D@std@@V?$allocator@D@2@@std@@@2@V?$allocator@H@2@@std@@QAE?AViterator@12@V312@0@Z 00451e10 f i Script.obj
 0001:00050f50       ?find@?$_Tree@V?$basic_string@DU?$char_traits@D@std@@V?$allocator@D@2@@std@@U?$pair@$$CBV?$basic_string@DU?$char_traits@D@std@@V?$allocator@D@2@@std@@H@2@U_Kfn@?$map@V?$basic_string@DU?$char_traits@D@std@@V?$allocator@D@2@@std@@HU?$less@V?$basic_string@DU?$char_traits@D@std@@V?$allocator@D@2@@std@@@2@V?$allocator@H@2@@2@U?$less@V?$basic_string@DU?$char_traits@D@std@@V?$allocator@D@2@@std@@@2@V?$allocator@H@2@@std@@QAE?AViterator@12@ABV?$basic_string@DU?$char_traits@D@std@@V?$allocator@D@2@@2@@Z 00451f50 f i Script.obj
 0001:00050ff0       ??R?$less@V?$basic_string@DU?$char_traits@D@std@@V?$allocator@D@2@@std@@@std@@QBE_NABV?$basic_string@DU?$char_traits@D@std@@V?$allocator@D@2@@1@0@Z 00451ff0 f i Script.obj
 0001:00051010       ?insert@?$_Tree@V?$basic_string@DU?$char_traits@D@std@@V?$allocator@D@2@@std@@U?$pair@$$CBV?$basic_string@DU?$char_traits@D@std@@V?$allocator@D@2@@std@@H@2@U_Kfn@?$map@V?$basic_string@DU?$char_traits@D@std@@V?$allocator@D@2@@std@@HU?$less@V?$basic_string@DU?$char_traits@D@std@@V?$allocator@D@2@@std@@@2@V?$allocator@H@2@@2@U?$less@V?$basic_string@DU?$char_traits@D@std@@V?$allocator@D@2@@std@@@2@V?$allocator@H@2@@std@@QAE?AU?$pair@Viterator@?$_Tree@V?$basic_string@DU?$char_traits@D@std@@V?$allocator@D@2@@std@@U?$pair@$$CBV?$basic_string@DU?$char_traits@D@std@@V?$allocator@D@2@@std@@H@2@U_Kfn@?$map@V?$basic_string@DU?$char_traits@D@std@@V?$allocator@D@2@@std@@HU?$less@V?$basic_string@DU?$char_traits@D@std@@V?$allocator@D@2@@std@@@2@V?$allocator@H@2@@2@U?$less@V?$basic_string@DU?$char_traits@D@std@@V?$allocator@D@2@@std@@@2@V?$allocator@H@2@@std@@_N@2@ABU?$pair@$$CBV?$basic_string@DU?$char_traits@D@std@@V?$allocator@D@2@@std@@H@2@@Z 00452010 f i Script.obj
 0001:00051250       ?erase@?$_Tree@V?$basic_string@DU?$char_traits@D@std@@V?$allocator@D@2@@std@@U?$pair@$$CBV?$basic_string@DU?$char_traits@D@std@@V?$allocator@D@2@@std@@H@2@U_Kfn@?$map@V?$basic_string@DU?$char_traits@D@std@@V?$allocator@D@2@@std@@HU?$less@V?$basic_string@DU?$char_traits@D@std@@V?$allocator@D@2@@std@@@2@V?$allocator@H@2@@2@U?$less@V?$basic_string@DU?$char_traits@D@std@@V?$allocator@D@2@@std@@@2@V?$allocator@H@2@@std@@QAE?AViterator@12@V312@@Z 00452250 f i Script.obj
 0001:00051aa0       ?lower_bound@?$_Tree@V?$basic_string@DU?$char_traits@D@std@@V?$allocator@D@2@@std@@U?$pair@$$CBV?$basic_string@DU?$char_traits@D@std@@V?$allocator@D@2@@std@@H@2@U_Kfn@?$map@V?$basic_string@DU?$char_traits@D@std@@V?$allocator@D@2@@std@@HU?$less@V?$basic_string@DU?$char_traits@D@std@@V?$allocator@D@2@@std@@@2@V?$allocator@H@2@@2@U?$less@V?$basic_string@DU?$char_traits@D@std@@V?$allocator@D@2@@std@@@2@V?$allocator@H@2@@std@@QAE?AViterator@12@ABV?$basic_string@DU?$char_traits@D@std@@V?$allocator@D@2@@2@@Z 00452aa0 f i Script.obj
 0001:00051ad0       ?_Erase@?$_Tree@V?$basic_string@DU?$char_traits@D@std@@V?$allocator@D@2@@std@@U?$pair@$$CBV?$basic_string@DU?$char_traits@D@std@@V?$allocator@D@2@@std@@H@2@U_Kfn@?$map@V?$basic_string@DU?$char_traits@D@std@@V?$allocator@D@2@@std@@HU?$less@V?$basic_string@DU?$char_traits@D@std@@V?$allocator@D@2@@std@@@2@V?$allocator@H@2@@2@U?$less@V?$basic_string@DU?$char_traits@D@std@@V?$allocator@D@2@@std@@@2@V?$allocator@H@2@@std@@IAEXPAU_Node@12@@Z 00452ad0 f i Script.obj
 0001:00051b90       ?_Init@?$_Tree@V?$basic_string@DU?$char_traits@D@std@@V?$allocator@D@2@@std@@U?$pair@$$CBV?$basic_string@DU?$char_traits@D@std@@V?$allocator@D@2@@std@@H@2@U_Kfn@?$map@V?$basic_string@DU?$char_traits@D@std@@V?$allocator@D@2@@std@@HU?$less@V?$basic_string@DU?$char_traits@D@std@@V?$allocator@D@2@@std@@@2@V?$allocator@H@2@@2@U?$less@V?$basic_string@DU?$char_traits@D@std@@V?$allocator@D@2@@std@@@2@V?$allocator@H@2@@std@@IAEXXZ 00452b90 f i Script.obj
 0001:00051c70       ??Eiterator@?$_Tree@V?$basic_string@DU?$char_traits@D@std@@V?$allocator@D@2@@std@@U?$pair@$$CBV?$basic_string@DU?$char_traits@D@std@@V?$allocator@D@2@@std@@H@2@U_Kfn@?$map@V?$basic_string@DU?$char_traits@D@std@@V?$allocator@D@2@@std@@HU?$less@V?$basic_string@DU?$char_traits@D@std@@V?$allocator@D@2@@std@@@2@V?$allocator@H@2@@2@U?$less@V?$basic_string@DU?$char_traits@D@std@@V?$allocator@D@2@@std@@@2@V?$allocator@H@2@@std@@QAE?AV012@H@Z 00452c70 f i Script.obj
 0001:00051ca0       ??R_Kfn@?$map@VCString@@VCPerson@@U?$less@VCString@@@std@@V?$allocator@VCPerson@@@4@@std@@QBEABVCString@@ABU?$pair@$$CBVCString@@VCPerson@@@2@@Z 00452ca0 f i Script.obj
 0001:00051ca0       ??R_Kfn@?$map@PAUHWND__@@PAVCDropTarget@@U?$less@PAUHWND__@@@std@@V?$allocator@PAVCDropTarget@@@4@@std@@QBEABQAUHWND__@@ABU?$pair@QAUHWND__@@PAVCDropTarget@@@2@@Z 00452ca0 f i Script.obj
 0001:00051ca0       ??R_Kfn@?$map@HVCSCI_WorldObject@@U?$less@H@std@@V?$allocator@VCSCI_WorldObject@@@3@@std@@QBEABHABU?$pair@$$CBHVCSCI_WorldObject@@@2@@Z 00452ca0 f i Script.obj
 0001:00051ca0       ??R_Kfn@?$map@V?$basic_string@DU?$char_traits@D@std@@V?$allocator@D@2@@std@@HU?$less@V?$basic_string@DU?$char_traits@D@std@@V?$allocator@D@2@@std@@@2@V?$allocator@H@2@@std@@QBEABV?$basic_string@DU?$char_traits@D@std@@V?$allocator@D@2@@2@ABU?$pair@$$CBV?$basic_string@DU?$char_traits@D@std@@V?$allocator@D@2@@std@@H@2@@Z 00452ca0 f i Script.obj
 0001:00051ca0       ??R_Kfn@?$map@VCSkinObj@@PAVCFastScrollCtrl@@U?$less@VCSkinObj@@@std@@V?$allocator@PAVCFastScrollCtrl@@@4@@std@@QBEABVCSkinObj@@ABU?$pair@$$CBVCSkinObj@@PAVCFastScrollCtrl@@@2@@Z 00452ca0 f i Script.obj
 0001:00051ca0       ??R_Kfn@?$map@HPAVCMailMsg@@U?$less@H@std@@V?$allocator@PAVCMailMsg@@@3@@std@@QBEABHABU?$pair@$$CBHPAVCMailMsg@@@2@@Z 00452ca0 f i Script.obj
 0001:00051ca0       ??R_Kfn@?$set@PAVCSkinWnd@@U?$less@PAVCSkinWnd@@@std@@V?$allocator@PAVCSkinWnd@@@3@@std@@QBEABQAVCSkinWnd@@ABQAV3@@Z 00452ca0 f i Script.obj
 0001:00051ca0       ??R_Kfn@?$map@VCSCI_Object@@PAVCNoButtonDlg@@U?$less@VCSCI_Object@@@std@@V?$allocator@PAVCNoButtonDlg@@@4@@std@@QBEABVCSCI_Object@@ABU?$pair@$$CBVCSCI_Object@@PAVCNoButtonDlg@@@2@@Z 00452ca0 f i Script.obj
 0001:00051ca0       ??R_Kfn@?$map@VCSkinObj@@PAVCSkinCtrl@@U?$less@VCSkinObj@@@std@@V?$allocator@PAVCSkinCtrl@@@4@@std@@QBEABVCSkinObj@@ABU?$pair@$$CBVCSkinObj@@PAVCSkinCtrl@@@2@@Z 00452ca0 f i Script.obj
 0001:00051ca0       ??R_Kfn@?$map@PAUHWND__@@PAVCSkinWnd@@U?$less@PAUHWND__@@@std@@V?$allocator@PAVCSkinWnd@@@4@@std@@QBEABQAUHWND__@@ABU?$pair@QAUHWND__@@PAVCSkinWnd@@@2@@Z 00452ca0 f i Script.obj
 0001:00051ca0       ??R_Kfn@?$set@PAVCSkinCtrl@@U?$less@PAVCSkinCtrl@@@std@@V?$allocator@PAVCSkinCtrl@@@3@@std@@QBEABQAVCSkinCtrl@@ABQAV3@@Z 00452ca0 f i Script.obj
 0001:00051ca0       ??R_Kfn@?$map@PAUHWND__@@PAVCMouseWheelable@@U?$less@PAUHWND__@@@std@@V?$allocator@PAVCMouseWheelable@@@4@@std@@QBEABQAUHWND__@@ABU?$pair@QAUHWND__@@PAVCMouseWheelable@@@2@@Z 00452ca0 f i Script.obj
 0001:00051ca0       ??R_Kfn@?$map@V?$basic_string@DU?$char_traits@D@std@@V?$allocator@D@2@@std@@PAVCPrivateTell@@U?$less@V?$basic_string@DU?$char_traits@D@std@@V?$allocator@D@2@@std@@@2@V?$allocator@PAVCPrivateTell@@@2@@std@@QBEABV?$basic_string@DU?$char_traits@D@std@@V?$allocator@D@2@@2@ABU?$pair@$$CBV?$basic_string@DU?$char_traits@D@std@@V?$allocator@D@2@@std@@PAVCPrivateTell@@@2@@Z 00452ca0 f i Script.obj
 0001:00051ca0       ??R_Kfn@?$map@HPAVCVerbBtn@@U?$less@H@std@@V?$allocator@PAVCVerbBtn@@@3@@std@@QBEABHABU?$pair@$$CBHPAVCVerbBtn@@@2@@Z 00452ca0 f i Script.obj
 0001:00051ca0       ??R_Kfn@?$map@HPAVCVerb@@U?$less@H@std@@V?$allocator@PAVCVerb@@@3@@std@@QBEABHABU?$pair@$$CBHPAVCVerb@@@2@@Z 00452ca0 f i Script.obj
 0001:00051ca0       ??R_Kfn@?$map@VCSCI_WorldObject@@PAVCInventoryDlg@@U?$less@VCSCI_WorldObject@@@std@@V?$allocator@PAVCInventoryDlg@@@4@@std@@QBEABVCSCI_WorldObject@@ABU?$pair@$$CBVCSCI_WorldObject@@PAVCInventoryDlg@@@2@@Z 00452ca0 f i Script.obj
 0001:00051ca0       ??R_Kfn@?$map@HPAVCMailMsgWnd@@U?$less@H@std@@V?$allocator@PAVCMailMsgWnd@@@3@@std@@QBEABHABU?$pair@$$CBHPAVCMailMsgWnd@@@2@@Z 00452ca0 f i Script.obj
 0001:00051ca0       ??R_Kfn@?$map@V?$basic_string@DU?$char_traits@D@std@@V?$allocator@D@2@@std@@VCPoint@@U?$less@V?$basic_string@DU?$char_traits@D@std@@V?$allocator@D@2@@std@@@2@V?$allocator@VCPoint@@@2@@std@@QBEABV?$basic_string@DU?$char_traits@D@std@@V?$allocator@D@2@@2@ABU?$pair@$$CBV?$basic_string@DU?$char_traits@D@std@@V?$allocator@D@2@@std@@VCPoint@@@2@@Z 00452ca0 f i Script.obj
 0001:00051cb0       ?_Insert@?$_Tree@V?$basic_string@DU?$char_traits@D@std@@V?$allocator@D@2@@std@@U?$pair@$$CBV?$basic_string@DU?$char_traits@D@std@@V?$allocator@D@2@@std@@H@2@U_Kfn@?$map@V?$basic_string@DU?$char_traits@D@std@@V?$allocator@D@2@@std@@HU?$less@V?$basic_string@DU?$char_traits@D@std@@V?$allocator@D@2@@std@@@2@V?$allocator@H@2@@2@U?$less@V?$basic_string@DU?$char_traits@D@std@@V?$allocator@D@2@@std@@@2@V?$allocator@H@2@@std@@IAE?AViterator@12@PAU_Node@12@0ABU?$pair@$$CBV?$basic_string@DU?$char_traits@D@std@@V?$allocator@D@2@@std@@H@2@@Z 00452cb0 f i Script.obj
 0001:00052180       ?_Lbound@?$_Tree@V?$basic_string@DU?$char_traits@D@std@@V?$allocator@D@2@@std@@U?$pair@$$CBV?$basic_string@DU?$char_traits@D@std@@V?$allocator@D@2@@std@@H@2@U_Kfn@?$map@V?$basic_string@DU?$char_traits@D@std@@V?$allocator@D@2@@std@@HU?$less@V?$basic_string@DU?$char_traits@D@std@@V?$allocator@D@2@@std@@@2@V?$allocator@H@2@@2@U?$less@V?$basic_string@DU?$char_traits@D@std@@V?$allocator@D@2@@std@@@2@V?$allocator@H@2@@std@@IBEPAU_Node@12@ABV?$basic_string@DU?$char_traits@D@std@@V?$allocator@D@2@@2@@Z 00453180 f i Script.obj
 0001:00052250       ?_Lrotate@?$_Tree@V?$basic_string@DU?$char_traits@D@std@@V?$allocator@D@2@@std@@U?$pair@$$CBV?$basic_string@DU?$char_traits@D@std@@V?$allocator@D@2@@std@@H@2@U_Kfn@?$map@V?$basic_string@DU?$char_traits@D@std@@V?$allocator@D@2@@std@@HU?$less@V?$basic_string@DU?$char_traits@D@std@@V?$allocator@D@2@@std@@@2@V?$allocator@H@2@@2@U?$less@V?$basic_string@DU?$char_traits@D@std@@V?$allocator@D@2@@std@@@2@V?$allocator@H@2@@std@@IAEXPAU_Node@12@@Z 00453250 f i Script.obj
 0001:000523c0       ?_Max@?$_Tree@V?$basic_string@DU?$char_traits@D@std@@V?$allocator@D@2@@std@@U?$pair@$$CBV?$basic_string@DU?$char_traits@D@std@@V?$allocator@D@2@@std@@H@2@U_Kfn@?$map@V?$basic_string@DU?$char_traits@D@std@@V?$allocator@D@2@@std@@HU?$less@V?$basic_string@DU?$char_traits@D@std@@V?$allocator@D@2@@std@@@2@V?$allocator@H@2@@2@U?$less@V?$basic_string@DU?$char_traits@D@std@@V?$allocator@D@2@@std@@@2@V?$allocator@H@2@@std@@KAPAU_Node@12@PAU312@@Z 004533c0 f i Script.obj
 0001:00052440       ?_Min@?$_Tree@V?$basic_string@DU?$char_traits@D@std@@V?$allocator@D@2@@std@@U?$pair@$$CBV?$basic_string@DU?$char_traits@D@std@@V?$allocator@D@2@@std@@H@2@U_Kfn@?$map@V?$basic_string@DU?$char_traits@D@std@@V?$allocator@D@2@@std@@HU?$less@V?$basic_string@DU?$char_traits@D@std@@V?$allocator@D@2@@std@@@2@V?$allocator@H@2@@2@U?$less@V?$basic_string@DU?$char_traits@D@std@@V?$allocator@D@2@@std@@@2@V?$allocator@H@2@@std@@KAPAU_Node@12@PAU312@@Z 00453440 f i Script.obj
 0001:000524c0       ?_Rrotate@?$_Tree@V?$basic_string@DU?$char_traits@D@std@@V?$allocator@D@2@@std@@U?$pair@$$CBV?$basic_string@DU?$char_traits@D@std@@V?$allocator@D@2@@std@@H@2@U_Kfn@?$map@V?$basic_string@DU?$char_traits@D@std@@V?$allocator@D@2@@std@@HU?$less@V?$basic_string@DU?$char_traits@D@std@@V?$allocator@D@2@@std@@@2@V?$allocator@H@2@@2@U?$less@V?$basic_string@DU?$char_traits@D@std@@V?$allocator@D@2@@std@@@2@V?$allocator@H@2@@std@@IAEXPAU_Node@12@@Z 004534c0 f i Script.obj
 0001:00052630       ?_Buynode@?$_Tree@V?$basic_string@DU?$char_traits@D@std@@V?$allocator@D@2@@std@@U?$pair@$$CBV?$basic_string@DU?$char_traits@D@std@@V?$allocator@D@2@@std@@H@2@U_Kfn@?$map@V?$basic_string@DU?$char_traits@D@std@@V?$allocator@D@2@@std@@HU?$less@V?$basic_string@DU?$char_traits@D@std@@V?$allocator@D@2@@std@@@2@V?$allocator@H@2@@2@U?$less@V?$basic_string@DU?$char_traits@D@std@@V?$allocator@D@2@@std@@@2@V?$allocator@H@2@@std@@IAEPAU_Node@12@PAU312@W4_Redbl@12@@Z 00453630 f i Script.obj
 0001:00052630       ?_Buynode@?$_Tree@V?$basic_string@DU?$char_traits@D@std@@V?$allocator@D@2@@std@@U?$pair@$$CBV?$basic_string@DU?$char_traits@D@std@@V?$allocator@D@2@@std@@PAVCPrivateTell@@@2@U_Kfn@?$map@V?$basic_string@DU?$char_traits@D@std@@V?$allocator@D@2@@std@@PAVCPrivateTell@@U?$less@V?$basic_string@DU?$char_traits@D@std@@V?$allocator@D@2@@std@@@2@V?$allocator@PAVCPrivateTell@@@2@@2@U?$less@V?$basic_string@DU?$char_traits@D@std@@V?$allocator@D@2@@std@@@2@V?$allocator@PAVCPrivateTell@@@2@@std@@IAEPAU_Node@12@PAU312@W4_Redbl@12@@Z 00453630 f i Script.obj
 0001:00052680       ??Eiterator@?$_Tree@V?$basic_string@DU?$char_traits@D@std@@V?$allocator@D@2@@std@@U?$pair@$$CBV?$basic_string@DU?$char_traits@D@std@@V?$allocator@D@2@@std@@H@2@U_Kfn@?$map@V?$basic_string@DU?$char_traits@D@std@@V?$allocator@D@2@@std@@HU?$less@V?$basic_string@DU?$char_traits@D@std@@V?$allocator@D@2@@std@@@2@V?$allocator@H@2@@2@U?$less@V?$basic_string@DU?$char_traits@D@std@@V?$allocator@D@2@@std@@@2@V?$allocator@H@2@@std@@QAEAAV012@XZ 00453680 f i Script.obj
 0001:000526a0       ??Fiterator@?$_Tree@V?$basic_string@DU?$char_traits@D@std@@V?$allocator@D@2@@std@@U?$pair@$$CBV?$basic_string@DU?$char_traits@D@std@@V?$allocator@D@2@@std@@H@2@U_Kfn@?$map@V?$basic_string@DU?$char_traits@D@std@@V?$allocator@D@2@@std@@HU?$less@V?$basic_string@DU?$char_traits@D@std@@V?$allocator@D@2@@std@@@2@V?$allocator@H@2@@2@U?$less@V?$basic_string@DU?$char_traits@D@std@@V?$allocator@D@2@@std@@@2@V?$allocator@H@2@@std@@QAEAAV012@XZ 004536a0 f i Script.obj
 0001:000526c0       ?_Consval@?$_Tree@V?$basic_string@DU?$char_traits@D@std@@V?$allocator@D@2@@std@@U?$pair@$$CBV?$basic_string@DU?$char_traits@D@std@@V?$allocator@D@2@@std@@H@2@U_Kfn@?$map@V?$basic_string@DU?$char_traits@D@std@@V?$allocator@D@2@@std@@HU?$less@V?$basic_string@DU?$char_traits@D@std@@V?$allocator@D@2@@std@@@2@V?$allocator@H@2@@2@U?$less@V?$basic_string@DU?$char_traits@D@std@@V?$allocator@D@2@@std@@@2@V?$allocator@H@2@@std@@IAEXPAU?$pair@$$CBV?$basic_string@DU?$char_traits@D@std@@V?$allocator@D@2@@std@@H@2@ABU32@@Z 004536c0 f i Script.obj
 0001:000526e0       ?_Dec@const_iterator@?$_Tree@V?$basic_string@DU?$char_traits@D@std@@V?$allocator@D@2@@std@@U?$pair@$$CBV?$basic_string@DU?$char_traits@D@std@@V?$allocator@D@2@@std@@H@2@U_Kfn@?$map@V?$basic_string@DU?$char_traits@D@std@@V?$allocator@D@2@@std@@HU?$less@V?$basic_string@DU?$char_traits@D@std@@V?$allocator@D@2@@std@@@2@V?$allocator@H@2@@2@U?$less@V?$basic_string@DU?$char_traits@D@std@@V?$allocator@D@2@@std@@@2@V?$allocator@H@2@@std@@QAEXXZ 004536e0 f i Script.obj
 0001:000527f0       ?_Inc@const_iterator@?$_Tree@V?$basic_string@DU?$char_traits@D@std@@V?$allocator@D@2@@std@@U?$pair@$$CBV?$basic_string@DU?$char_traits@D@std@@V?$allocator@D@2@@std@@H@2@U_Kfn@?$map@V?$basic_string@DU?$char_traits@D@std@@V?$allocator@D@2@@std@@HU?$less@V?$basic_string@DU?$char_traits@D@std@@V?$allocator@D@2@@std@@@2@V?$allocator@H@2@@2@U?$less@V?$basic_string@DU?$char_traits@D@std@@V?$allocator@D@2@@std@@@2@V?$allocator@H@2@@std@@QAEXXZ 004537f0 f i Script.obj
 0001:000528d0       ?_Destroy@std@@YAXPAU?$pair@$$CBV?$basic_string@DU?$char_traits@D@std@@V?$allocator@D@2@@std@@H@1@@Z 004538d0 f i Script.obj
 0001:000528d0       ?_Destroy@std@@YAXPAU?$pair@$$CBV?$basic_string@DU?$char_traits@D@std@@V?$allocator@D@2@@std@@PAVCPrivateTell@@@1@@Z 004538d0 f i Script.obj
 0001:000528e0       ?_Allocate@std@@YAPADHPAD@Z 004538e0 f i Script.obj
 0001:00052900       ?_Construct@std@@YAXPAU?$pair@$$CBV?$basic_string@DU?$char_traits@D@std@@V?$allocator@D@2@@std@@H@1@ABU21@@Z 00453900 f i Script.obj
 0001:00052970       ??2@YAPAXIPAX@Z            00453970 f i Script.obj
 0001:00052980       ?AddPalShift@@YAHH@Z       00453980 f   Shiftpal.obj
 0001:000529a2       ?ShiftPaletteView@@YAXPAE@Z 004539a2 f   Shiftpal.obj
 0001:00052a4b       ?ShiftPalettePic@@YAXPAE@Z 00453a4b f   Shiftpal.obj
 0001:00052ab3       ?ShiftPaletteCel@@YAXPAEJ@Z 00453ab3 f   Shiftpal.obj
 0001:00052d00       ?KSetShowStyle@@YAXPAF@Z   00453d00 f   Shwstyle.obj
 0001:0005312c       ?ProcessEffects@@YAXPAVPlaneShowStyle@@@Z 0045412c f   Shwstyle.obj
 0001:00053236       ?Bitwidth@@YAHH@Z          00454236 f   Shwstyle.obj
 0001:00053261       ?PixelDissolveEffect@@YAXPAVPlaneShowStyle@@@Z 00454261 f   Shwstyle.obj
 0001:000536bb       ?IrisOutEffect@@YAXPAVPlaneShowStyle@@@Z 004546bb f   Shwstyle.obj
 0001:00053bd4       ?IrisInEffect@@YAXPAVPlaneShowStyle@@@Z 00454bd4 f   Shwstyle.obj
 0001:000541ec       ?WipeRightEffect@@YAXPAVPlaneShowStyle@@@Z 004551ec f   Shwstyle.obj
 0001:00054607       ?WipeLeftEffect@@YAXPAVPlaneShowStyle@@@Z 00455607 f   Shwstyle.obj
 0001:00054a1b       ?WipeDownEffect@@YAXPAVPlaneShowStyle@@@Z 00455a1b f   Shwstyle.obj
 0001:00054e32       ?WipeUpEffect@@YAXPAVPlaneShowStyle@@@Z 00455e32 f   Shwstyle.obj
 0001:00055241       ?HShutterOutEffect@@YAXPAVPlaneShowStyle@@@Z 00456241 f   Shwstyle.obj
 0001:000557b4       ?HShutterInEffect@@YAXPAVPlaneShowStyle@@@Z 004567b4 f   Shwstyle.obj
 0001:00055d2a       ?VShutterInEffect@@YAXPAVPlaneShowStyle@@@Z 00456d2a f   Shwstyle.obj
 0001:000562cc       ?VShutterOutEffect@@YAXPAVPlaneShowStyle@@@Z 004572cc f   Shwstyle.obj
 0001:00056868       ?KShowStylePercent@@YAXPAF@Z 00457868 f   Shwstyle.obj
 0001:000568ce       ?ProcessShowStyles@@YAXXZ  004578ce f   Shwstyle.obj
 0001:000569b5       ?ProcessShowStyle@@YAHPAVPlaneShowStyle@@I@Z 004579b5 f   Shwstyle.obj
 0001:00056acb       ?PalMorph@@YAHPAVPlaneShowStyle@@@Z 00457acb f   Shwstyle.obj
 0001:00056af9       ?KSetPalStyleRange@@YAXPAF@Z 00457af9 f   Shwstyle.obj
 0001:00056b3c       ?KSetScroll@@YAXPAF@Z      00457b3c f   Shwstyle.obj
 0001:00056ea1       ?ProcessScrolls@@YAXXZ     00457ea1 f   Shwstyle.obj
 0001:00056f45       ?ProcessScroll@@YAHPAVPlaneScroll@@@Z 00457f45 f   Shwstyle.obj
 0001:0005703f       ?ShutDownStyle@@YAPAVPlaneShowStyle@@PAV1@@Z 0045803f f   Shwstyle.obj
 0001:0005710d       ?KillStyle@@YAXPAVPlaneShowStyle@@@Z 0045810d f   Shwstyle.obj
 0001:000571d8       ?Plain@@YAHPAVPlaneShowStyle@@@Z 004581d8 f   Shwstyle.obj
 0001:0005724b       ?Fade@@YAHHPAVPlaneShowStyle@@@Z 0045824b f   Shwstyle.obj
 0001:000573a0       ??0PlaneShowStyle@@QAE@XZ  004583a0 f i Shwstyle.obj
 0001:000573c0       ??0PlaneScroll@@QAE@XZ     004583c0 f i Shwstyle.obj
 0001:000573e0       ?AddPic@GraphicsMgr@@QAEHJHAAVSOL_Point@@H@Z 004583e0 f i Shwstyle.obj
 0001:00057410       ?DeletePic@GraphicsMgr@@QAEXJHH@Z 00458410 f i Shwstyle.obj
 0001:00057440       ??1ScreenItem@@QAE@XZ      00458440 f   Si.obj
 0001:00057455       ??0ScreenItem@@QAE@PBV0@@Z 00458455 f   Si.obj
 0001:00057572       ??0ScreenItem@@QAE@JABVBitmap@@@Z 00458572 f   Si.obj
 0001:00057684       ??0ScreenItem@@QAE@JABVBitmap@@ABVSOL_Rect@@@Z 00458684 f   Si.obj
 0001:000577ba       ??0ScreenItem@@QAE@JABVBitmap@@VSOL_Point@@UScaleInfo@@@Z 004587ba f   Si.obj
 0001:000578e2       ??0ScreenItem@@QAE@JABVBitmap@@VSOL_Point@@UScaleInfo@@H@Z 004588e2 f   Si.obj
 0001:000579f7       ??0ScreenItem@@QAE@ABVObjectID@@@Z 004589f7 f   Si.obj
 0001:00057ddc       ??4ScreenItem@@QAEAAV0@ABVObjectID@@@Z 00458ddc f   Si.obj
 0001:00058181       ??4ScreenItem@@QAEAAV0@ABV0@@Z 00459181 f   Si.obj
 0001:0005822d       ?Update@ScreenItem@@IAEXABVSOL_Plane@@@Z 0045922d f   Si.obj
 0001:000586df       ?NowSeen@ScreenItem@@QAEXABVSOL_Plane@@AAVSOL_Rect@@@Z 004596df f   Si.obj
 0001:0005899b       ?GetCelObj@ScreenItem@@QAEXXZ 0045999b f   Si.obj
 0001:00058b70       ?IsColor@Bitmap@@QBEHXZ    00459b70 f i Si.obj
 0001:00058b90       ?SetMemID@Bitmap@@QAEXABVMemID@@@Z 00459b90 f i Si.obj
 0001:00058bb0       ?ClearGraphicsUpdate@Object@@QAEXXZ 00459bb0 f i Si.obj
 0001:00058bd0       ?IsLargerThanOne@Ratio@@QBEHXZ 00459bd0 f i Si.obj
 0001:00058bf0       ??T@YAHHABVRatio@@@Z       00459bf0 f i Si.obj
 0001:00058c10       ?GetVanish@SOL_Plane@@QBE?AVSOL_Point@@XZ 00459c10 f i Si.obj
 0001:00058c30       ??0ScreenItemList@@QAE@XZ  00459c30 f   Silist.obj
 0001:00058c4b       ??1ScreenItemList@@QAE@XZ  00459c4b f   Silist.obj
 0001:00058ca8       ??4ScreenItemList@@QAEABV0@ABV0@@Z 00459ca8 f   Silist.obj
 0001:00058ddc       ?Add@ScreenItemList@@QAEHPAVScreenItem@@@Z 00459ddc f   Silist.obj
 0001:00058e42       ?Clear@ScreenItemList@@QAEXXZ 00459e42 f   Silist.obj
 0001:00058eb9       ?Pack@ScreenItemList@@QAEXXZ 00459eb9 f   Silist.obj
 0001:00058f34       ?Search@ScreenItemList@@QBEHPBVScreenItem@@@Z 00459f34 f   Silist.obj
 0001:00058f97       ?Search@ScreenItemList@@QBEHJ@Z 00459f97 f   Silist.obj
 0001:00058fef       ?Delete@ScreenItemList@@QAEXPBVScreenItem@@@Z 00459fef f   Silist.obj
 0001:00059050       ?Delete@ScreenItemList@@QAEXH@Z 0045a050 f   Silist.obj
 0001:000590d7       ?Sort@ScreenItemList@@QAEXXZ 0045a0d7 f   Silist.obj
 0001:000592d1       ?Unsort@ScreenItemList@@QAEXXZ 0045a2d1 f   Silist.obj
 0001:000593b0       ??_GScreenItem@@QAEPAXI@Z  0045a3b0 f i Silist.obj
 0001:000593e0       ?sampleDoneCallback@@YGXPAU_SAMPLE@@@Z 0045a3e0 f   Sound.obj
 0001:0005948d       ?sequenceDoneCallback@@YGXPAU_SEQUENCE@@@Z 0045a48d f   Sound.obj
 0001:0005953d       ??0SoundMgr@@QAE@XZ        0045a53d f   Sound.obj
 0001:00059aaf       ??1SoundMgr@@UAE@XZ        0045aaaf f   Sound.obj
 0001:00059ad7       ?allocateSndID@SoundMgr@@QAEHXZ 0045aad7 f   Sound.obj
 0001:00059b49       ?freeSndID@SoundMgr@@QAEXH@Z 0045ab49 f   Sound.obj
 0001:00059b63       ?play@SoundMgr@@QAEHPADH@Z 0045ab63 f   Sound.obj
 0001:00059d91       ?findSfxByID@SoundMgr@@QAEPAXH@Z 0045ad91 f   Sound.obj
 0001:00059de3       ?findMIDIByID@SoundMgr@@QAEPAXH@Z 0045ade3 f   Sound.obj
 0001:00059e38       ?stop@SoundMgr@@QAEHH@Z    0045ae38 f   Sound.obj
 0001:00059ea8       ?setPan@SoundMgr@@QAEHHH@Z 0045aea8 f   Sound.obj
 0001:00059ee4       ?setVolume@SoundMgr@@QAEHHH@Z 0045aee4 f   Sound.obj
 0001:00059f4c       ?getSfxMasterVolume@SoundMgr@@QAEHXZ 0045af4c f   Sound.obj
 0001:00059f72       ?setSfxMasterVolume@SoundMgr@@QAEHH@Z 0045af72 f   Sound.obj
 0001:00059f9e       ?getMidiMasterVolume@SoundMgr@@QAEHXZ 0045af9e f   Sound.obj
 0001:00059fc4       ?setMidiMasterVolume@SoundMgr@@QAEHH@Z 0045afc4 f   Sound.obj
 0001:00059ff0       ?setLoopCount@SoundMgr@@QAEHHH@Z 0045aff0 f   Sound.obj
 0001:0005a056       ??0SoundResMgr@@QAE@XZ     0045b056 f   Sound.obj
 0001:0005a08d       ??1SoundResMgr@@UAE@XZ     0045b08d f   Sound.obj
 0001:0005a0a1       ?load@SoundResMgr@@QAEPAXPAD@Z 0045b0a1 f   Sound.obj
 0001:0005a2dd       ?unload@SoundResMgr@@QAEXPAX@Z 0045b2dd f   Sound.obj
 0001:0005a33a       ?KSound@@YAXPAF@Z          0045b33a f   Sound.obj
 0001:0005a600       ??_GSoundMgr@@UAEPAXI@Z    0045b600 f i Sound.obj
 0001:0005a600       ??_ESoundMgr@@UAEPAXI@Z    0045b600 f i Sound.obj
 0001:0005a630       ??_ESoundResMgr@@UAEPAXI@Z 0045b630 f i Sound.obj
 0001:0005a630       ??_GSoundResMgr@@UAEPAXI@Z 0045b630 f i Sound.obj
 0001:0005a660       ?StrReplace@@YAHPAD0D0@Z   0045b660 f   String.obj
 0001:0005a6f1       ?KString@@YAXPAF@Z         0045b6f1 f   String.obj
 0001:0005ad93       ?FilterString@@YAXPAD@Z    0045bd93 f   String.obj
 0001:0005aeda       ?StrTrim@@YAPADPADHD@Z     0045beda f   String.obj
 0001:0005b14a       ?StrTrn@@YAHPAD000@Z       0045c14a f   String.obj
 0001:0005b214       ?StrTrnExclude@@YAHPAD000@Z 0045c214 f   String.obj
 0001:0005b2bd       ?StrResize@@YAXVTextID@@I@Z 0045c2bd f   String.obj
 0001:0005b2ec       ?Reverse@@YAPADPAD@Z       0045c2ec f   String.obj
 0001:0005b34b       ?IsPrintable@@YAHPAD@Z     0045c34b f   String.obj
 0001:0005b39c       ?ToLower@@YAEE@Z           0045c39c f   String.obj
 0001:0005b3ea       ?MakeVprintfArgs@@YAPAPADPADPAF@Z 0045c3ea f   String.obj
 0001:0005b630       ?ValidateString@@YAXVMemID@@PADH@Z 0045c630 f i String.obj
 0001:0005b680       ?euroToLower@@YAEE@Z       0045c680 f i String.obj
 0001:0005b6a0       ?iseuro@@YAHE@Z            0045c6a0 f i String.obj
 0001:0005b749       ?Add@CServIDTable@@SAXHVCSCI_WorldObject@@@Z 0045c749 f   Table.obj
 0001:0005b763       ?Remove@CServIDTable@@SAXH@Z 0045c763 f   Table.obj
 0001:0005b776       ?LookUp@CServIDTable@@SA?AVCSCI_WorldObject@@H@Z 0045c776 f   Table.obj
 0001:0005b7dd       ?Size@CServIDTable@@SAHXZ  0045c7dd f   Table.obj
 0001:0005b7ec       ?KTable@@YAXPAF@Z          0045c7ec f   Table.obj
 0001:0005baf0       ??1?$map@HVCSCI_WorldObject@@U?$less@H@std@@V?$allocator@VCSCI_WorldObject@@@3@@std@@QAE@XZ 0045caf0 f i Table.obj
 0001:0005bb10       ??0?$map@HVCSCI_WorldObject@@U?$less@H@std@@V?$allocator@VCSCI_WorldObject@@@3@@std@@QAE@ABU?$less@H@1@ABV?$allocator@VCSCI_WorldObject@@@1@@Z 0045cb10 f i Table.obj
 0001:0005bb40       ??A?$map@HVCSCI_WorldObject@@U?$less@H@std@@V?$allocator@VCSCI_WorldObject@@@3@@std@@QAEAAVCSCI_WorldObject@@ABH@Z 0045cb40 f i Table.obj
 0001:0005bb90       ?erase@?$map@HVCSCI_WorldObject@@U?$less@H@std@@V?$allocator@VCSCI_WorldObject@@@3@@std@@QAEIABH@Z 0045cb90 f i Table.obj
 0001:0005bbb0       ?find@?$map@HVCSCI_WorldObject@@U?$less@H@std@@V?$allocator@VCSCI_WorldObject@@@3@@std@@QAE?AViterator@?$_Tree@HU?$pair@$$CBHVCSCI_WorldObject@@@std@@U_Kfn@?$map@HVCSCI_WorldObject@@U?$less@H@std@@V?$allocator@VCSCI_WorldObject@@@3@@2@U?$less@H@2@V?$allocator@VCSCI_WorldObject@@@2@@2@ABH@Z 0045cbb0 f i Table.obj
 0001:0005bbe0       ??1?$_Tree@HU?$pair@$$CBHVCSCI_WorldObject@@@std@@U_Kfn@?$map@HVCSCI_WorldObject@@U?$less@H@std@@V?$allocator@VCSCI_WorldObject@@@3@@2@U?$less@H@2@V?$allocator@VCSCI_WorldObject@@@2@@std@@QAE@XZ 0045cbe0 f i Table.obj
 0001:0005bcb0       ?insert@?$map@HVCSCI_WorldObject@@U?$less@H@std@@V?$allocator@VCSCI_WorldObject@@@3@@std@@QAE?AU?$pair@Viterator@?$_Tree@HU?$pair@$$CBHVCSCI_WorldObject@@@std@@U_Kfn@?$map@HVCSCI_WorldObject@@U?$less@H@std@@V?$allocator@VCSCI_WorldObject@@@3@@2@U?$less@H@2@V?$allocator@VCSCI_WorldObject@@@2@@std@@_N@2@ABU?$pair@$$CBHVCSCI_WorldObject@@@2@@Z 0045ccb0 f i Table.obj
 0001:0005bd00       ??0?$_Tree@HU?$pair@$$CBHVCSCI_WorldObject@@@std@@U_Kfn@?$map@HVCSCI_WorldObject@@U?$less@H@std@@V?$allocator@VCSCI_WorldObject@@@3@@2@U?$less@H@2@V?$allocator@VCSCI_WorldObject@@@2@@std@@QAE@ABU?$less@H@1@_NABV?$allocator@VCSCI_WorldObject@@@1@@Z 0045cd00 f i Table.obj
 0001:0005bd40       ?erase@?$_Tree@HU?$pair@$$CBHVCSCI_WorldObject@@@std@@U_Kfn@?$map@HVCSCI_WorldObject@@U?$less@H@std@@V?$allocator@VCSCI_WorldObject@@@3@@2@U?$less@H@2@V?$allocator@VCSCI_WorldObject@@@2@@std@@QAE?AViterator@12@V312@0@Z 0045cd40 f i Table.obj
 0001:0005be80       ?erase@?$_Tree@HU?$pair@$$CBHVCSCI_WorldObject@@@std@@U_Kfn@?$map@HVCSCI_WorldObject@@U?$less@H@std@@V?$allocator@VCSCI_WorldObject@@@3@@2@U?$less@H@2@V?$allocator@VCSCI_WorldObject@@@2@@std@@QAEIABH@Z 0045ce80 f i Table.obj
 0001:0005bee0       ?find@?$_Tree@HU?$pair@$$CBHVCSCI_WorldObject@@@std@@U_Kfn@?$map@HVCSCI_WorldObject@@U?$less@H@std@@V?$allocator@VCSCI_WorldObject@@@3@@2@U?$less@H@2@V?$allocator@VCSCI_WorldObject@@@2@@std@@QAE?AViterator@12@ABH@Z 0045cee0 f i Table.obj
 0001:0005bf80       ??0?$pair@$$CBHVCSCI_WorldObject@@@std@@QAE@ABHABVCSCI_WorldObject@@@Z 0045cf80 f i Table.obj
 0001:0005bfb0       ??R?$less@H@std@@QBE_NABH0@Z 0045cfb0 f i Table.obj
 0001:0005bfd0       ?insert@?$_Tree@HU?$pair@$$CBHVCSCI_WorldObject@@@std@@U_Kfn@?$map@HVCSCI_WorldObject@@U?$less@H@std@@V?$allocator@VCSCI_WorldObject@@@3@@2@U?$less@H@2@V?$allocator@VCSCI_WorldObject@@@2@@std@@QAE?AU?$pair@Viterator@?$_Tree@HU?$pair@$$CBHVCSCI_WorldObject@@@std@@U_Kfn@?$map@HVCSCI_WorldObject@@U?$less@H@std@@V?$allocator@VCSCI_WorldObject@@@3@@2@U?$less@H@2@V?$allocator@VCSCI_WorldObject@@@2@@std@@_N@2@ABU?$pair@$$CBHVCSCI_WorldObject@@@2@@Z 0045cfd0 f i Table.obj
 0001:0005c210       ?erase@?$_Tree@HU?$pair@$$CBHVCSCI_WorldObject@@@std@@U_Kfn@?$map@HVCSCI_WorldObject@@U?$less@H@std@@V?$allocator@VCSCI_WorldObject@@@3@@2@U?$less@H@2@V?$allocator@VCSCI_WorldObject@@@2@@std@@QAE?AViterator@12@V312@@Z 0045d210 f i Table.obj
 0001:0005ca60       ?lower_bound@?$_Tree@HU?$pair@$$CBHVCSCI_WorldObject@@@std@@U_Kfn@?$map@HVCSCI_WorldObject@@U?$less@H@std@@V?$allocator@VCSCI_WorldObject@@@3@@2@U?$less@H@2@V?$allocator@VCSCI_WorldObject@@@2@@std@@QAE?AViterator@12@ABH@Z 0045da60 f i Table.obj
 0001:0005ca90       ?equal_range@?$_Tree@HU?$pair@$$CBHVCSCI_WorldObject@@@std@@U_Kfn@?$map@HVCSCI_WorldObject@@U?$less@H@std@@V?$allocator@VCSCI_WorldObject@@@3@@2@U?$less@H@2@V?$allocator@VCSCI_WorldObject@@@2@@std@@QAE?AU?$pair@Viterator@?$_Tree@HU?$pair@$$CBHVCSCI_WorldObject@@@std@@U_Kfn@?$map@HVCSCI_WorldObject@@U?$less@H@std@@V?$allocator@VCSCI_WorldObject@@@3@@2@U?$less@H@2@V?$allocator@VCSCI_WorldObject@@@2@@std@@V123@@2@ABH@Z 0045da90 f i Table.obj
 0001:0005cae0       ?_Erase@?$_Tree@HU?$pair@$$CBHVCSCI_WorldObject@@@std@@U_Kfn@?$map@HVCSCI_WorldObject@@U?$less@H@std@@V?$allocator@VCSCI_WorldObject@@@3@@2@U?$less@H@2@V?$allocator@VCSCI_WorldObject@@@2@@std@@IAEXPAU_Node@12@@Z 0045dae0 f i Table.obj
 0001:0005cba0       ?_Init@?$_Tree@HU?$pair@$$CBHVCSCI_WorldObject@@@std@@U_Kfn@?$map@HVCSCI_WorldObject@@U?$less@H@std@@V?$allocator@VCSCI_WorldObject@@@3@@2@U?$less@H@2@V?$allocator@VCSCI_WorldObject@@@2@@std@@IAEXXZ 0045dba0 f i Table.obj
 0001:0005cc80       ??Eiterator@?$_Tree@HU?$pair@$$CBHVCSCI_WorldObject@@@std@@U_Kfn@?$map@HVCSCI_WorldObject@@U?$less@H@std@@V?$allocator@VCSCI_WorldObject@@@3@@2@U?$less@H@2@V?$allocator@VCSCI_WorldObject@@@2@@std@@QAE?AV012@H@Z 0045dc80 f i Table.obj
 0001:0005ccb0       ?upper_bound@?$_Tree@HU?$pair@$$CBHVCSCI_WorldObject@@@std@@U_Kfn@?$map@HVCSCI_WorldObject@@U?$less@H@std@@V?$allocator@VCSCI_WorldObject@@@3@@2@U?$less@H@2@V?$allocator@VCSCI_WorldObject@@@2@@std@@QAE?AViterator@12@ABH@Z 0045dcb0 f i Table.obj
 0001:0005cce0       ?_Insert@?$_Tree@HU?$pair@$$CBHVCSCI_WorldObject@@@std@@U_Kfn@?$map@HVCSCI_WorldObject@@U?$less@H@std@@V?$allocator@VCSCI_WorldObject@@@3@@2@U?$less@H@2@V?$allocator@VCSCI_WorldObject@@@2@@std@@IAE?AViterator@12@PAU_Node@12@0ABU?$pair@$$CBHVCSCI_WorldObject@@@2@@Z 0045dce0 f i Table.obj
 0001:0005d1b0       ?_Lbound@?$_Tree@HU?$pair@$$CBHVCSCI_WorldObject@@@std@@U_Kfn@?$map@HVCSCI_WorldObject@@U?$less@H@std@@V?$allocator@VCSCI_WorldObject@@@3@@2@U?$less@H@2@V?$allocator@VCSCI_WorldObject@@@2@@std@@IBEPAU_Node@12@ABH@Z 0045e1b0 f i Table.obj
 0001:0005d280       ?_Lrotate@?$_Tree@HU?$pair@$$CBHVCSCI_WorldObject@@@std@@U_Kfn@?$map@HVCSCI_WorldObject@@U?$less@H@std@@V?$allocator@VCSCI_WorldObject@@@3@@2@U?$less@H@2@V?$allocator@VCSCI_WorldObject@@@2@@std@@IAEXPAU_Node@12@@Z 0045e280 f i Table.obj
 0001:0005d3f0       ?_Max@?$_Tree@HU?$pair@$$CBHVCSCI_WorldObject@@@std@@U_Kfn@?$map@HVCSCI_WorldObject@@U?$less@H@std@@V?$allocator@VCSCI_WorldObject@@@3@@2@U?$less@H@2@V?$allocator@VCSCI_WorldObject@@@2@@std@@KAPAU_Node@12@PAU312@@Z 0045e3f0 f i Table.obj
 0001:0005d470       ?_Min@?$_Tree@HU?$pair@$$CBHVCSCI_WorldObject@@@std@@U_Kfn@?$map@HVCSCI_WorldObject@@U?$less@H@std@@V?$allocator@VCSCI_WorldObject@@@3@@2@U?$less@H@2@V?$allocator@VCSCI_WorldObject@@@2@@std@@KAPAU_Node@12@PAU312@@Z 0045e470 f i Table.obj
 0001:0005d4f0       ?_Rrotate@?$_Tree@HU?$pair@$$CBHVCSCI_WorldObject@@@std@@U_Kfn@?$map@HVCSCI_WorldObject@@U?$less@H@std@@V?$allocator@VCSCI_WorldObject@@@3@@2@U?$less@H@2@V?$allocator@VCSCI_WorldObject@@@2@@std@@IAEXPAU_Node@12@@Z 0045e4f0 f i Table.obj
 0001:0005d660       ?_Destval@?$_Tree@HU?$pair@$$CBHVCSCI_WorldObject@@@std@@U_Kfn@?$map@HVCSCI_WorldObject@@U?$less@H@std@@V?$allocator@VCSCI_WorldObject@@@3@@2@U?$less@H@2@V?$allocator@VCSCI_WorldObject@@@2@@std@@IAEXPAU?$pair@$$CBHVCSCI_WorldObject@@@2@@Z 0045e660 f i Table.obj
 0001:0005d660       ?_Destval@?$_Tree@PAUHWND__@@U?$pair@QAUHWND__@@PAVCMouseWheelable@@@std@@U_Kfn@?$map@PAUHWND__@@PAVCMouseWheelable@@U?$less@PAUHWND__@@@std@@V?$allocator@PAVCMouseWheelable@@@4@@3@U?$less@PAUHWND__@@@3@V?$allocator@PAVCMouseWheelable@@@3@@std@@IAEXPAU?$pair@QAUHWND__@@PAVCMouseWheelable@@@2@@Z 0045e660 f i Table.obj
 0001:0005d660       ?_Destval@?$_Tree@PAUHWND__@@U?$pair@QAUHWND__@@PAVCDropTarget@@@std@@U_Kfn@?$map@PAUHWND__@@PAVCDropTarget@@U?$less@PAUHWND__@@@std@@V?$allocator@PAVCDropTarget@@@4@@3@U?$less@PAUHWND__@@@3@V?$allocator@PAVCDropTarget@@@3@@std@@IAEXPAU?$pair@QAUHWND__@@PAVCDropTarget@@@2@@Z 0045e660 f i Table.obj
 0001:0005d680       ??Eiterator@?$_Tree@HU?$pair@$$CBHVCSCI_WorldObject@@@std@@U_Kfn@?$map@HVCSCI_WorldObject@@U?$less@H@std@@V?$allocator@VCSCI_WorldObject@@@3@@2@U?$less@H@2@V?$allocator@VCSCI_WorldObject@@@2@@std@@QAEAAV012@XZ 0045e680 f i Table.obj
 0001:0005d6a0       ??Fiterator@?$_Tree@HU?$pair@$$CBHVCSCI_WorldObject@@@std@@U_Kfn@?$map@HVCSCI_WorldObject@@U?$less@H@std@@V?$allocator@VCSCI_WorldObject@@@3@@2@U?$less@H@2@V?$allocator@VCSCI_WorldObject@@@2@@std@@QAEAAV012@XZ 0045e6a0 f i Table.obj
 0001:0005d6c0       ?_Ubound@?$_Tree@HU?$pair@$$CBHVCSCI_WorldObject@@@std@@U_Kfn@?$map@HVCSCI_WorldObject@@U?$less@H@std@@V?$allocator@VCSCI_WorldObject@@@3@@2@U?$less@H@2@V?$allocator@VCSCI_WorldObject@@@2@@std@@IBEPAU_Node@12@ABH@Z 0045e6c0 f i Table.obj
 0001:0005d790       ?_Consval@?$_Tree@HU?$pair@$$CBHVCSCI_WorldObject@@@std@@U_Kfn@?$map@HVCSCI_WorldObject@@U?$less@H@std@@V?$allocator@VCSCI_WorldObject@@@3@@2@U?$less@H@2@V?$allocator@VCSCI_WorldObject@@@2@@std@@IAEXPAU?$pair@$$CBHVCSCI_WorldObject@@@2@ABU32@@Z 0045e790 f i Table.obj
 0001:0005d7b0       ?_Dec@const_iterator@?$_Tree@HU?$pair@$$CBHVCSCI_WorldObject@@@std@@U_Kfn@?$map@HVCSCI_WorldObject@@U?$less@H@std@@V?$allocator@VCSCI_WorldObject@@@3@@2@U?$less@H@2@V?$allocator@VCSCI_WorldObject@@@2@@std@@QAEXXZ 0045e7b0 f i Table.obj
 0001:0005d8c0       ?_Inc@const_iterator@?$_Tree@HU?$pair@$$CBHVCSCI_WorldObject@@@std@@U_Kfn@?$map@HVCSCI_WorldObject@@U?$less@H@std@@V?$allocator@VCSCI_WorldObject@@@3@@2@U?$less@H@2@V?$allocator@VCSCI_WorldObject@@@2@@std@@QAEXXZ 0045e8c0 f i Table.obj
 0001:0005d9a0       ?_Distance@std@@YAXViterator@?$_Tree@HU?$pair@$$CBHVCSCI_WorldObject@@@std@@U_Kfn@?$map@HVCSCI_WorldObject@@U?$less@H@std@@V?$allocator@VCSCI_WorldObject@@@3@@2@U?$less@H@2@V?$allocator@VCSCI_WorldObject@@@2@@1@0AAI@Z 0045e9a0 f i Table.obj
 0001:0005d9d0       ?_Construct@std@@YAXPAU?$pair@$$CBHVCSCI_WorldObject@@@1@ABU21@@Z 0045e9d0 f i Table.obj
 0001:0005da40       ??0?$pair@$$CBHVCSCI_WorldObject@@@std@@QAE@ABU01@@Z 0045ea40 f i Table.obj
 0001:0005da70       ?_Distance@std@@YAXViterator@?$_Tree@HU?$pair@$$CBHVCSCI_WorldObject@@@std@@U_Kfn@?$map@HVCSCI_WorldObject@@U?$less@H@std@@V?$allocator@VCSCI_WorldObject@@@3@@2@U?$less@H@2@V?$allocator@VCSCI_WorldObject@@@2@@1@0AAIUbidirectional_iterator_tag@1@@Z 0045ea70 f i Table.obj
 0001:0005dab0       ??0TextID@@QAE@XZ          0045eab0 f   Textid.obj
 0001:0005dac6       ??0TextID@@QAE@ABVMemID@@@Z 0045eac6 f   Textid.obj
 0001:0005dae2       ??0TextID@@QAE@G@Z         0045eae2 f   Textid.obj
 0001:0005daff       ??4TextID@@QAEAAV0@PBD@Z   0045eaff f   Textid.obj
 0001:0005db63       ?Add@TextID@@QAEXD@Z       0045eb63 f   Textid.obj
 0001:0005db88       ?Add@TextID@@QAEXPBD@Z     0045eb88 f   Textid.obj
 0001:0005dbbf       ?Add@TextID@@QAEXV1@@Z     0045ebbf f   Textid.obj
 0001:0005dc00       ?AddF@TextID@@QAAXPBDZZ    0045ec00 f   Textid.obj
 0001:0005dc41       ?AddSize@TextID@@IAEXI@Z   0045ec41 f   Textid.obj
 0001:0005dc9c       ?Lock@TextID@@QAEPADXZ     0045ec9c f   Textid.obj
 0001:0005dcaf       ?Snug@TextID@@QAEXXZ       0045ecaf f   Textid.obj
 0001:0005dce3       ??4StringID@@QAEAAV0@PBD@Z 0045ece3 f   Textid.obj
 0001:0005dd70       ?SysTime@TimeMgr@@QAEIH@Z  0045ed70 f   Time.obj
 0001:0005de4a       ?KGetTime@@YAXPAF@Z        0045ee4a f   Time.obj
 0001:0005de8a       ?KWait@@YAXPAF@Z           0045ee8a f   Time.obj
 0001:0005df00       ??0TimeMgrWin@@QAE@XZ      0045ef00 f   Timew.obj
 0001:0005df2a       ??1TimeMgrWin@@UAE@XZ      0045ef2a f   Timew.obj
 0001:0005df46       ?GetTickCount@TimeMgrWin@@UAEKXZ 0045ef46 f   Timew.obj
 0001:0005df69       ?SetTickCount@TimeMgrWin@@UAEXK@Z 0045ef69 f   Timew.obj
 0001:0005df8a       ?GetMilliSec@TimeMgrWin@@UAEKXZ 0045ef8a f   Timew.obj
 0001:0005df9b       ?EnableTimer@TimeMgrWin@@QAEXXZ 0045ef9b f   Timew.obj
 0001:0005dff9       ?DisableTimer@TimeMgrWin@@QAEXXZ 0045eff9 f   Timew.obj
 0001:0005e03a       ?SetCheckTime@TimeMgrWin@@QAEXHPAH@Z 0045f03a f   Timew.obj
 0001:0005e050       ?Reset@TimeMgr@@UAEXXZ     0045f050 f i Timew.obj
 0001:0005e060       ??_GTimeMgrWin@@UAEPAXI@Z  0045f060 f i Timew.obj
 0001:0005e060       ??_ETimeMgrWin@@UAEPAXI@Z  0045f060 f i Timew.obj
 0001:0005e090       ??0TimeMgr@@QAE@XZ         0045f090 f i Timew.obj
 0001:0005e0b0       ??_ETimeMgr@@UAEPAXI@Z     0045f0b0 f i Timew.obj
 0001:0005e0b0       ??_GTimeMgr@@UAEPAXI@Z     0045f0b0 f i Timew.obj
 0001:0005e0e0       ??1TimeMgr@@UAE@XZ         0045f0e0 f i Timew.obj
 0001:0005e100       ?GetVocabStr@@YAHHHPAD@Z   0045f100 f   Vocab.obj
 0001:0005e1c0       ?KWinDLL@@YAXPAF@Z         0045f1c0 f   Windll.obj
 0001:0005e1d0       ?Get@ScrollWindowID@@QAEXAAVSOL_Rect@@VSOL_Point@@HGGGFFH@Z 0045f1d0 f   Window.obj
 0001:0005e25d       ?Free@ScrollWindowID@@QAEXXZ 0045f25d f   Window.obj
 0001:0005e295       ??0SOL_Window@@QAE@AAVSOL_Rect@@VSOL_Point@@HPADGGGFF2GGGH@Z 0045f295 f   Window.obj
 0001:0005e75d       ??0SOL_Window@@QAE@AAVSOL_Rect@@VSOL_Point@@HPADGGGFFH@Z 0045f75d f   Window.obj
 0001:0005eb5d       ??1SOL_Window@@UAE@XZ      0045fb5d f   Window.obj
 0001:0005ec3d       ?Show@SOL_Window@@UAEXXZ   0045fc3d f   Window.obj
 0001:0005ed78       ?PageUp@SOL_Window@@UAEXXZ 0045fd78 f   Window.obj
 0001:0005ee19       ?PageDown@SOL_Window@@UAEXXZ 0045fe19 f   Window.obj
 0001:0005eea8       ?Home@SOL_Window@@UAEXXZ   0045fea8 f   Window.obj
 0001:0005ef1f       ?End@SOL_Window@@UAEXXZ    0045ff1f f   Window.obj
 0001:0005efa7       ?UpArrow@SOL_Window@@UAEXXZ 0045ffa7 f   Window.obj
 0001:0005f177       ?DownArrow@SOL_Window@@UAEXXZ 00460177 f   Window.obj
 0001:0005f38a       ?BackAWord@SOL_Window@@IAEHXZ 0046038a f   Window.obj
 0001:0005f46c       ?ForwardAWord@SOL_Window@@IAEHXZ 0046046c f   Window.obj
 0001:0005f527       ?ReDrawText@SOL_Window@@UAEXXZ 00460527 f   Window.obj
 0001:0005f639       ?Hide@SOL_Window@@UAEXXZ   00460639 f   Window.obj
 0001:0005f6b1       ?Move@SOL_Window@@UAEXVSOL_Point@@@Z 004606b1 f   Window.obj
 0001:0005f716       ?ResizeWindow@SOL_Window@@UAEXAAVSOL_Rect@@@Z 00460716 f   Window.obj
 0001:0005f9d9       ?SetText@SOL_Window@@UAEXPADHH@Z 004609d9 f   Window.obj
 0001:0005fcb1       ?GetLineIndices@SOL_Window@@MAEXXZ 00460cb1 f   Window.obj
 0001:00060267       ??1EventWindow@@UAE@XZ     00461267 f   Window.obj
 0001:000602cb       ?HandleEvent@EventWindow@@QAEHAAVSOL_Event@@@Z 004612cb f   Window.obj
 0001:00060723       ?Hide@EventWindow@@UAEXXZ  00461723 f   Window.obj
 0001:00060798       ?Move@EventWindow@@UAEXVSOL_Point@@@Z 00461798 f   Window.obj
 0001:00060835       ?ResizeWindow@EventWindow@@UAEXAAVSOL_Rect@@@Z 00461835 f   Window.obj
 0001:00060877       ?Show@EventWindow@@UAEXXZ  00461877 f   Window.obj
 0001:0006095f       ??0SCIScrollWindow@@QAE@AAVSOL_Rect@@VSOL_Point@@HGGGFFH@Z 0046195f f   Window.obj
 0001:00060adc       ??1SCIScrollWindow@@UAE@XZ 00461adc f   Window.obj
 0001:00060b70       ?Add@SCIScrollWindow@@QAE?AVTextID@@V2@HHHH@Z 00461b70 f   Window.obj
 0001:00060e2b       ?Delete@SCIScrollWindow@@QAEXVTextID@@@Z 00461e2b f   Window.obj
 0001:00061125       ?Clear@SCIScrollWindow@@QAEXXZ 00462125 f   Window.obj
 0001:0006118e       ?CopyEntries@SCIScrollWindow@@QAE?AVScrollEntryID@@XZ 0046218e f   Window.obj
 0001:0006132e       ?Reconstruct@SCIScrollWindow@@QAEXVScrollEntryID@@@Z 0046232e f   Window.obj
 0001:0006141f       ?Go@SCIScrollWindow@@QAEXHH@Z 0046241f f   Window.obj
 0001:000614e5       ?Where@SCIScrollWindow@@QAEHH@Z 004624e5 f   Window.obj
 0001:00061513       ?Insert@SCIScrollWindow@@QAE?AVTextID@@V2@0HHH@Z 00462513 f   Window.obj
 0001:00061968       ?Modify@SCIScrollWindow@@QAE?AVTextID@@V2@0HHHH@Z 00462968 f   Window.obj
 0001:00061be7       ?Get@SCIScrollWindow@@QAE?AVTextID@@H@Z 00462be7 f   Window.obj
 0001:00061c3a       ?Which@SCIScrollWindow@@QAEHVTextID@@@Z 00462c3a f   Window.obj
 0001:00061c92       ?WaitOnUser@@YAHPAVEventWindow@@@Z 00462c92 f   Window.obj
 0001:00061d33       ?KSCIScrollWindow@@YAXPAF@Z 00462d33 f   Window.obj
 0001:00062690       ?Get@FakeScrollWindowID@@QAEXIIIPAUMemClient@@DW4ReservedHandle@@@Z 00463690 f i Window.obj
 0001:000626c0       ??_GSOL_Window@@UAEPAXI@Z  004636c0 f i Window.obj
 0001:000626c0       ??_ESOL_Window@@UAEPAXI@Z  004636c0 f i Window.obj
 0001:000626f0       ?SetColor@FontMgr@@QAEXH@Z 004636f0 f i Window.obj
 0001:00062710       ?SetMode@FontMgr@@QAEXH@Z  00463710 f i Window.obj
 0001:00062730       ?GetFont@FontMgr@@QBEHXZ   00463730 f i Window.obj
 0001:00062750       ??_EEventWindow@@UAEPAXI@Z 00463750 f i Window.obj
 0001:00062750       ??_GEventWindow@@UAEPAXI@Z 00463750 f i Window.obj
 0001:00062780       ?Get@ScrollEntryID@@QAEXIIIPAUMemClient@@DW4ReservedHandle@@@Z 00463780 f i Window.obj
 0001:000627b0       ?Get@FakeScrollEntryID@@QAEXIIIPAUMemClient@@DW4ReservedHandle@@@Z 004637b0 f i Window.obj
 0001:000627e0       ??AScrollEntryID@@QBEAAUScrollEntry@@I@Z 004637e0 f i Window.obj
 0001:00062800       ??_GSCIScrollWindow@@UAEPAXI@Z 00463800 f i Window.obj
 0001:00062800       ??_ESCIScrollWindow@@UAEPAXI@Z 00463800 f i Window.obj
 0001:00062830       ?KWinHelp@@YAXPAF@Z        00463830 f   Winfuncs.obj
 0001:0006292a       ?KMessageBox@@YAXPAF@Z     0046392a f   Winfuncs.obj
 0001:00062980       ?InitThunk@@YAXXZ          00463980 f   Winthunk.obj
 0001:00062988       ?EndThunk@@YAXXZ           00463988 f   Winthunk.obj
 0001:00062990       ??0OCArray@@QAE@H@Z        00463990 f   arrayC.obj
 0001:000629d0       ??0OCArray@@QAE@XZ         004639d0 f   arrayC.obj
 0001:00062a0f       ??1OCArray@@QAE@XZ         00463a0f f   arrayC.obj
 0001:00062a5a       ?Grow@OCArray@@IAEXH@Z     00463a5a f   arrayC.obj
 0001:00062ae0       ??0CPurchaseItem@@QAE@XZ   00463ae0 f   BuyDlg.obj
 0001:00062b89       ??0CPurchaseItem@@IAE@PAV0@0@Z 00463b89 f   BuyDlg.obj
 0001:00062c32       ??1CPurchaseItem@@UAE@XZ   00463c32 f   BuyDlg.obj
 0001:00062cfb       ?AddSibling@CPurchaseItem@@IAEPAV1@PAV1@@Z 00463cfb f   BuyDlg.obj
 0001:00062d96       ?AddSibling@CPurchaseItem@@IAEPAV1@PAV1@0@Z 00463d96 f   BuyDlg.obj
 0001:00062e31       ?AddChild@CPurchaseItem@@IAEPAV1@PAV1@@Z 00463e31 f   BuyDlg.obj
 0001:00062ec6       ?AddTo@CPurchaseItem@@QAEXPAVCSkinListCtrl@@@Z 00463ec6 f   BuyDlg.obj
 0001:00062f5f       ?AddToPurchase@CPurchaseItem@@QAEHPAVCSkinListCtrl@@H@Z 00463f5f f   BuyDlg.obj
 0001:000630a8       ?RemoveFromPurchase@CPurchaseItem@@QAEHPAVCSkinListCtrl@@H@Z 004640a8 f   BuyDlg.obj
 0001:000631b7       ?GoBack@CPurchaseItem@@QAEXPAVCSkinListCtrl@@@Z 004641b7 f   BuyDlg.obj
 0001:00063265       ?AddItem@CPurchaseItem@@IAEXXZ 00464265 f   BuyDlg.obj
 0001:00063388       ?ReadData@CPurchaseItem@@SAPAV1@PAVPackedData@@AAH@Z 00464388 f   BuyDlg.obj
 0001:0006349f       ?Click@CPurchaseItem@@QAE_NPAVCSkinListCtrl@@@Z 0046449f f   BuyDlg.obj
 0001:000634ca       ?Purchase@CPurchaseItem@@QAE_NPAVCPackedData@@@Z 004644ca f   BuyDlg.obj
 0001:00063564       ?SetWeight@CPurchaseItem@@QAEXXZ 00464564 f   BuyDlg.obj
 0001:000635a9       ?_GetBaseMessageMap@CBuyDlg@@KGPBUAFX_MSGMAP@@XZ 004645a9 f   BuyDlg.obj
 0001:000635b3       ?GetMessageMap@CBuyDlg@@MBEPBUAFX_MSGMAP@@XZ 004645b3 f   BuyDlg.obj
 0001:000635c3       ??0CBuyDlg@@QAE@VCSCI_Object@@@Z 004645c3 f   BuyDlg.obj
 0001:0006368f       ?Create@CBuyDlg@@QAEHVCSCI_Object@@@Z 0046468f f   BuyDlg.obj
 0001:00063a44       ?OnSetFocus@CBuyDlg@@QAEXPAVCWnd@@@Z 00464a44 f   BuyDlg.obj
 0001:00063a65       ?MakeSkinCtrl@CBuyDlg@@UAEPAVCSkinCtrl@@VCSkinObj@@@Z 00464a65 f   BuyDlg.obj
 0001:000642da       ?CloseSelf@CBuyDlg@@UAEX_N@Z 004652da f   BuyDlg.obj
 0001:0006433f       ?HandleVerb@CBuyDlg@@QAEHHPAVCPurchaseItem@@@Z 0046533f f   BuyDlg.obj
 0001:00064794       ?HandleMsg@CBuyDlg@@SAXVCSCI_NetMsg@@@Z 00465794 f   BuyDlg.obj
 0001:00064b79       ?OnSale@CBuyDlg@@QAEXPAVCPurchaseItem@@_N@Z 00465b79 f   BuyDlg.obj
 0001:00064c59       ?OnPurchase@CBuyDlg@@QAEXPAVCPurchaseItem@@H_N@Z 00465c59 f   BuyDlg.obj
 0001:00064e19       ?PurchaseMass@CBuyDlg@@QAEXPAVCPurchaseItem@@H@Z 00465e19 f   BuyDlg.obj
 0001:00064f8a       ?BuyIT@CBuyDlg@@QAEXXZ     00465f8a f   BuyDlg.obj
 0001:00065029       ?AddToBuy@CBuyDlg@@QAEXPAVCPurchaseItem@@@Z 00466029 f   BuyDlg.obj
 0001:000653a8       ??0CBuyVerbs@@QAE@XZ       004663a8 f   BuyDlg.obj
 0001:000653d4       ??1CBuyVerbs@@UAE@XZ       004663d4 f   BuyDlg.obj
 0001:000653f0       ?Create@CBuyVerbs@@UAEHPAVCPurchaseItem@@_N@Z 004663f0 f   BuyDlg.obj
 0001:000654a1       ?Press@CBuyVerbs@@UAEXH@Z  004664a1 f   BuyDlg.obj
 0001:000654fd       ?_GetBaseMessageMap@CBuyLookAtItem@@KGPBUAFX_MSGMAP@@XZ 004664fd f   BuyDlg.obj
 0001:00065507       ?GetMessageMap@CBuyLookAtItem@@MBEPBUAFX_MSGMAP@@XZ 00466507 f   BuyDlg.obj
 0001:00065517       ??0CBuyLookAtItem@@QAE@XZ  00466517 f   BuyDlg.obj
 0001:00065598       ?CloseSelf@CBuyLookAtItem@@UAEX_N@Z 00466598 f   BuyDlg.obj
 0001:000655bb       ?Create@CBuyLookAtItem@@QAEHPAVCPurchaseItem@@PAD@Z 004665bb f   BuyDlg.obj
 0001:00065901       ?MakeSkinCtrl@CBuyLookAtItem@@UAEPAVCSkinCtrl@@VCSkinObj@@@Z 00466901 f   BuyDlg.obj
 0001:00065a89       ?OnResize@CBuyLookAtItem@@QAEXPAUtagNMHDR@@PAJ@Z 00466a89 f   BuyDlg.obj
 0001:00065b27       ?_GetBaseMessageMap@CBuyQuantityDlg@@KGPBUAFX_MSGMAP@@XZ 00466b27 f   BuyDlg.obj
 0001:00065b31       ?GetMessageMap@CBuyQuantityDlg@@MBEPBUAFX_MSGMAP@@XZ 00466b31 f   BuyDlg.obj
 0001:00065b41       ??0CBuyQuantityDlg@@QAE@XZ 00466b41 f   BuyDlg.obj
 0001:00065b6d       ?CloseSelf@CBuyQuantityDlg@@UAEX_N@Z 00466b6d f   BuyDlg.obj
 0001:00065ca3       ?Create@CBuyQuantityDlg@@QAEHPAVCPurchaseItem@@PAVCBuyDlg@@H@Z 00466ca3 f   BuyDlg.obj
 0001:00065d87       ?MakeSkinCtrl@CBuyQuantityDlg@@UAEPAVCSkinCtrl@@VCSkinObj@@@Z 00466d87 f   BuyDlg.obj
 0001:00065fb2       ?Max@CBuyQuantityDlg@@QAEXXZ 00466fb2 f   BuyDlg.obj
 0001:00065fef       ?OnSetFocus@CBuyQuantityDlg@@QAEXPAVCWnd@@@Z 00466fef f   BuyDlg.obj
 0001:00066022       ??0CMaxBtn@@QAE@VCSkinObj@@PAVCSkinWnd@@@Z 00467022 f   BuyDlg.obj
 0001:00066095       ?OnActivate@CMaxBtn@@UAEXFF@Z 00467095 f   BuyDlg.obj
 0001:000660c0       ??_ECPurchaseItem@@UAEPAXI@Z 004670c0 f i BuyDlg.obj
 0001:000660c0       ??_GCPurchaseItem@@UAEPAXI@Z 004670c0 f i BuyDlg.obj
 0001:000660f0       ??_ECBuyDlg@@UAEPAXI@Z     004670f0 f i BuyDlg.obj
 0001:000660f0       ??_GCBuyDlg@@UAEPAXI@Z     004670f0 f i BuyDlg.obj
 0001:00066120       ??1CBuyDlg@@UAE@XZ         00467120 f i BuyDlg.obj
 0001:00066190       ??0CPurchaseBtn@@QAE@VCSkinObj@@PAVCSkinWnd@@@Z 00467190 f i BuyDlg.obj
 0001:00066210       ?OnActivate@CPurchaseBtn@@UAEXFF@Z 00467210 f i BuyDlg.obj
 0001:00066230       ??_GCPurchaseBtn@@UAEPAXI@Z 00467230 f i BuyDlg.obj
 0001:00066230       ??_ECPurchaseBtn@@UAEPAXI@Z 00467230 f i BuyDlg.obj
 0001:00066260       ??1CPurchaseBtn@@UAE@XZ    00467260 f i BuyDlg.obj
 0001:00066280       ??0CSaleListCtrl@@QAE@XZ   00467280 f i BuyDlg.obj
 0001:000662c0       ?OnItemActivate@CSaleListCtrl@@UAEXH_N@Z 004672c0 f i BuyDlg.obj
 0001:000662f0       ??_GCSaleListCtrl@@UAEPAXI@Z 004672f0 f i BuyDlg.obj
 0001:000662f0       ??_ECSaleListCtrl@@UAEPAXI@Z 004672f0 f i BuyDlg.obj
 0001:00066320       ??1CSaleListCtrl@@UAE@XZ   00467320 f i BuyDlg.obj
 0001:00066360       ??0CPurchaseListCtrl@@QAE@XZ 00467360 f i BuyDlg.obj
 0001:000663a0       ?OnItemActivate@CPurchaseListCtrl@@UAEXH_N@Z 004673a0 f i BuyDlg.obj
 0001:000663d0       ??_ECPurchaseListCtrl@@UAEPAXI@Z 004673d0 f i BuyDlg.obj
 0001:000663d0       ??_GCPurchaseListCtrl@@UAEPAXI@Z 004673d0 f i BuyDlg.obj
 0001:00066400       ??1CPurchaseListCtrl@@UAE@XZ 00467400 f i BuyDlg.obj
 0001:00066440       ??_GCBuyVerbs@@UAEPAXI@Z   00467440 f i BuyDlg.obj
 0001:00066440       ??_ECBuyVerbs@@UAEPAXI@Z   00467440 f i BuyDlg.obj
 0001:00066470       ??1CVerbDialog@@UAE@XZ     00467470 f i BuyDlg.obj
 0001:00066500       ??1?$map@HPAVCVerb@@U?$less@H@std@@V?$allocator@PAVCVerb@@@3@@std@@QAE@XZ 00467500 f i BuyDlg.obj
 0001:00066520       ??1?$map@HPAVCVerbBtn@@U?$less@H@std@@V?$allocator@PAVCVerbBtn@@@3@@std@@QAE@XZ 00467520 f i BuyDlg.obj
 0001:00066540       ?AssertValid@CObject@@UBEXXZ 00467540 f i BuyDlg.obj
 0001:00066550       ??_ECBuyQuantityDlg@@UAEPAXI@Z 00467550 f i BuyDlg.obj
 0001:00066550       ??_GCBuyQuantityDlg@@UAEPAXI@Z 00467550 f i BuyDlg.obj
 0001:00066580       ??1CBuyQuantityDlg@@UAE@XZ 00467580 f i BuyDlg.obj
 0001:000665a0       ??8@YG_NABVCString@@PBD@Z  004675a0 f i BuyDlg.obj
 0001:000665c0       ?Compare@CString@@QBEHPBD@Z 004675c0 f i BuyDlg.obj
 0001:000665e0       __tcscmp                   004675e0 f i BuyDlg.obj
 0001:00066600       ??8@YG_NPBDABVCString@@@Z  00467600 f i BuyDlg.obj
 0001:00066620       ??0CRect@@QAE@HHHH@Z       00467620 f i BuyDlg.obj
 0001:00066660       ?Height@CRect@@QBEHXZ      00467660 f i BuyDlg.obj
 0001:00066680       ?CenterPoint@CRect@@QBE?AVCPoint@@XZ 00467680 f i BuyDlg.obj
 0001:000666d0       ??BCRect@@QAEPAUtagRECT@@XZ 004676d0 f i BuyDlg.obj
 0001:000666e0       ?OffsetRect@CRect@@QAEXHH@Z 004676e0 f i BuyDlg.obj
 0001:00066700       ??1?$_Tree@HU?$pair@$$CBHPAVCVerb@@@std@@U_Kfn@?$map@HPAVCVerb@@U?$less@H@std@@V?$allocator@PAVCVerb@@@3@@2@U?$less@H@2@V?$allocator@PAVCVerb@@@2@@std@@QAE@XZ 00467700 f i BuyDlg.obj
 0001:000667d0       ??1?$vector@PAVCVerbBtn@@V?$allocator@PAVCVerbBtn@@@std@@@std@@QAE@XZ 004677d0 f i BuyDlg.obj
 0001:00066830       ??1?$_Tree@HU?$pair@$$CBHPAVCVerbBtn@@@std@@U_Kfn@?$map@HPAVCVerbBtn@@U?$less@H@std@@V?$allocator@PAVCVerbBtn@@@3@@2@U?$less@H@2@V?$allocator@PAVCVerbBtn@@@2@@std@@QAE@XZ 00467830 f i BuyDlg.obj
 0001:00066900       ?MoveWindow@CWnd@@QAEXPBUtagRECT@@H@Z 00467900 f i BuyDlg.obj
 0001:00066940       ?GetWindowRect@CWnd@@QBEXPAUtagRECT@@@Z 00467940 f i BuyDlg.obj
 0001:00066960       ?end@?$list@PADV?$allocator@PAD@std@@@std@@QAE?AViterator@12@XZ 00467960 f i BuyDlg.obj
 0001:00066960       ?end@?$_Tree@PAVCSkinWnd@@PAV1@U_Kfn@?$set@PAVCSkinWnd@@U?$less@PAVCSkinWnd@@@std@@V?$allocator@PAVCSkinWnd@@@3@@std@@U?$less@PAVCSkinWnd@@@4@V?$allocator@PAVCSkinWnd@@@4@@std@@QAE?AViterator@12@XZ 00467960 f i BuyDlg.obj
 0001:00066960       ?end@?$_Tree@VCSkinObj@@U?$pair@$$CBVCSkinObj@@PAVCSkinCtrl@@@std@@U_Kfn@?$map@VCSkinObj@@PAVCSkinCtrl@@U?$less@VCSkinObj@@@std@@V?$allocator@PAVCSkinCtrl@@@4@@3@U?$less@VCSkinObj@@@3@V?$allocator@PAVCSkinCtrl@@@3@@std@@QAE?AViterator@12@XZ 00467960 f i BuyDlg.obj
 0001:00066960       ?end@?$_Tree@V?$basic_string@DU?$char_traits@D@std@@V?$allocator@D@2@@std@@U?$pair@$$CBV?$basic_string@DU?$char_traits@D@std@@V?$allocator@D@2@@std@@PAVCPrivateTell@@@2@U_Kfn@?$map@V?$basic_string@DU?$char_traits@D@std@@V?$allocator@D@2@@std@@PAVCPrivateTell@@U?$less@V?$basic_string@DU?$char_traits@D@std@@V?$allocator@D@2@@std@@@2@V?$allocator@PAVCPrivateTell@@@2@@2@U?$less@V?$basic_string@DU?$char_traits@D@std@@V?$allocator@D@2@@std@@@2@V?$allocator@PAVCPrivateTell@@@2@@std@@QAE?AViterator@12@XZ 00467960 f i BuyDlg.obj
 0001:00066960       ?end@?$_Tree@PAUHWND__@@U?$pair@QAUHWND__@@PAVCDropTarget@@@std@@U_Kfn@?$map@PAUHWND__@@PAVCDropTarget@@U?$less@PAUHWND__@@@std@@V?$allocator@PAVCDropTarget@@@4@@3@U?$less@PAUHWND__@@@3@V?$allocator@PAVCDropTarget@@@3@@std@@QAE?AViterator@12@XZ 00467960 f i BuyDlg.obj
 0001:00066960       ?end@?$list@PAVCVerbRequest@@V?$allocator@PAVCVerbRequest@@@std@@@std@@QAE?AViterator@12@XZ 00467960 f i BuyDlg.obj
 0001:00066960       ?end@?$list@PAVCSkinCtrl@@V?$allocator@PAVCSkinCtrl@@@std@@@std@@QAE?AViterator@12@XZ 00467960 f i BuyDlg.obj
 0001:00066960       ?end@?$list@PAVCLookAtItem@@V?$allocator@PAVCLookAtItem@@@std@@@std@@QAE?AViterator@12@XZ 00467960 f i BuyDlg.obj
 0001:00066960       ?end@?$list@PAVCInventoryDlg@@V?$allocator@PAVCInventoryDlg@@@std@@@std@@QAE?AViterator@12@XZ 00467960 f i BuyDlg.obj
 0001:00066960       ?end@?$_Tree@HU?$pair@$$CBHVCSCI_WorldObject@@@std@@U_Kfn@?$map@HVCSCI_WorldObject@@U?$less@H@std@@V?$allocator@VCSCI_WorldObject@@@3@@2@U?$less@H@2@V?$allocator@VCSCI_WorldObject@@@2@@std@@QAE?AViterator@12@XZ 00467960 f i BuyDlg.obj
 0001:00066960       ?end@?$list@PAVCMailMsg@@V?$allocator@PAVCMailMsg@@@std@@@std@@QAE?AViterator@12@XZ 00467960 f i BuyDlg.obj
 0001:00066960       ?end@?$_Tree@PAUHWND__@@U?$pair@QAUHWND__@@PAVCSkinWnd@@@std@@U_Kfn@?$map@PAUHWND__@@PAVCSkinWnd@@U?$less@PAUHWND__@@@std@@V?$allocator@PAVCSkinWnd@@@4@@3@U?$less@PAUHWND__@@@3@V?$allocator@PAVCSkinWnd@@@3@@std@@QAE?AViterator@12@XZ 00467960 f i BuyDlg.obj
 0001:00066960       ?end@?$_Tree@HU?$pair@$$CBHPAVCVerbBtn@@@std@@U_Kfn@?$map@HPAVCVerbBtn@@U?$less@H@std@@V?$allocator@PAVCVerbBtn@@@3@@2@U?$less@H@2@V?$allocator@PAVCVerbBtn@@@2@@std@@QAE?AViterator@12@XZ 00467960 f i BuyDlg.obj
 0001:00066960       ?end@?$_Tree@V?$basic_string@DU?$char_traits@D@std@@V?$allocator@D@2@@std@@U?$pair@$$CBV?$basic_string@DU?$char_traits@D@std@@V?$allocator@D@2@@std@@VCPoint@@@2@U_Kfn@?$map@V?$basic_string@DU?$char_traits@D@std@@V?$allocator@D@2@@std@@VCPoint@@U?$less@V?$basic_string@DU?$char_traits@D@std@@V?$allocator@D@2@@std@@@2@V?$allocator@VCPoint@@@2@@2@U?$less@V?$basic_string@DU?$char_traits@D@std@@V?$allocator@D@2@@std@@@2@V?$allocator@VCPoint@@@2@@std@@QAE?AViterator@12@XZ 00467960 f i BuyDlg.obj
 0001:00066960       ?end@?$_Tree@HU?$pair@$$CBHPAVCMailMsgWnd@@@std@@U_Kfn@?$map@HPAVCMailMsgWnd@@U?$less@H@std@@V?$allocator@PAVCMailMsgWnd@@@3@@2@U?$less@H@2@V?$allocator@PAVCMailMsgWnd@@@2@@std@@QAE?AViterator@12@XZ 00467960 f i BuyDlg.obj
 0001:00066960       ?end@?$_Tree@PAUHWND__@@U?$pair@QAUHWND__@@PAVCMouseWheelable@@@std@@U_Kfn@?$map@PAUHWND__@@PAVCMouseWheelable@@U?$less@PAUHWND__@@@std@@V?$allocator@PAVCMouseWheelable@@@4@@3@U?$less@PAUHWND__@@@3@V?$allocator@PAVCMouseWheelable@@@3@@std@@QAE?AViterator@12@XZ 00467960 f i BuyDlg.obj
 0001:00066960       ?end@?$_Tree@PAVCSkinCtrl@@PAV1@U_Kfn@?$set@PAVCSkinCtrl@@U?$less@PAVCSkinCtrl@@@std@@V?$allocator@PAVCSkinCtrl@@@3@@std@@U?$less@PAVCSkinCtrl@@@4@V?$allocator@PAVCSkinCtrl@@@4@@std@@QAE?AViterator@12@XZ 00467960 f i BuyDlg.obj
 0001:00066960       ?end@?$_Tree@VCSCI_WorldObject@@U?$pair@$$CBVCSCI_WorldObject@@PAVCInventoryDlg@@@std@@U_Kfn@?$map@VCSCI_WorldObject@@PAVCInventoryDlg@@U?$less@VCSCI_WorldObject@@@std@@V?$allocator@PAVCInventoryDlg@@@4@@3@U?$less@VCSCI_WorldObject@@@3@V?$allocator@PAVCInventoryDlg@@@3@@std@@QAE?AViterator@12@XZ 00467960 f i BuyDlg.obj
 0001:00066960       ?end@?$_Tree@VCString@@U?$pair@$$CBVCString@@VCPerson@@@std@@U_Kfn@?$map@VCString@@VCPerson@@U?$less@VCString@@@std@@V?$allocator@VCPerson@@@4@@3@U?$less@VCString@@@3@V?$allocator@VCPerson@@@3@@std@@QAE?AViterator@12@XZ 00467960 f i BuyDlg.obj
 0001:00066960       ?end@?$_Tree@HU?$pair@$$CBHPAVCVerb@@@std@@U_Kfn@?$map@HPAVCVerb@@U?$less@H@std@@V?$allocator@PAVCVerb@@@3@@2@U?$less@H@2@V?$allocator@PAVCVerb@@@2@@std@@QAE?AViterator@12@XZ 00467960 f i BuyDlg.obj
 0001:00066960       ?end@?$list@PAVCSkinWnd@@V?$allocator@PAVCSkinWnd@@@std@@@std@@QAE?AViterator@12@XZ 00467960 f i BuyDlg.obj
 0001:00066960       ?end@?$_Tree@V?$basic_string@DU?$char_traits@D@std@@V?$allocator@D@2@@std@@U?$pair@$$CBV?$basic_string@DU?$char_traits@D@std@@V?$allocator@D@2@@std@@H@2@U_Kfn@?$map@V?$basic_string@DU?$char_traits@D@std@@V?$allocator@D@2@@std@@HU?$less@V?$basic_string@DU?$char_traits@D@std@@V?$allocator@D@2@@std@@@2@V?$allocator@H@2@@2@U?$less@V?$basic_string@DU?$char_traits@D@std@@V?$allocator@D@2@@std@@@2@V?$allocator@H@2@@std@@QAE?AViterator@12@XZ 00467960 f i BuyDlg.obj
 0001:00066960       ?end@?$_Tree@VCSkinObj@@U?$pair@$$CBVCSkinObj@@PAVCFastScrollCtrl@@@std@@U_Kfn@?$map@VCSkinObj@@PAVCFastScrollCtrl@@U?$less@VCSkinObj@@@std@@V?$allocator@PAVCFastScrollCtrl@@@4@@3@U?$less@VCSkinObj@@@3@V?$allocator@PAVCFastScrollCtrl@@@3@@std@@QAE?AViterator@12@XZ 00467960 f i BuyDlg.obj
 0001:00066960       ?end@?$_Tree@VCSCI_Object@@U?$pair@$$CBVCSCI_Object@@PAVCNoButtonDlg@@@std@@U_Kfn@?$map@VCSCI_Object@@PAVCNoButtonDlg@@U?$less@VCSCI_Object@@@std@@V?$allocator@PAVCNoButtonDlg@@@4@@3@U?$less@VCSCI_Object@@@3@V?$allocator@PAVCNoButtonDlg@@@3@@std@@QAE?AViterator@12@XZ 00467960 f i BuyDlg.obj
 0001:00066960       ?end@?$_Tree@HU?$pair@$$CBHPAVCMailMsg@@@std@@U_Kfn@?$map@HPAVCMailMsg@@U?$less@H@std@@V?$allocator@PAVCMailMsg@@@3@@2@U?$less@H@2@V?$allocator@PAVCMailMsg@@@2@@std@@QAE?AViterator@12@XZ 00467960 f i BuyDlg.obj
 0001:00066990       ?erase@?$_Tree@HU?$pair@$$CBHPAVCVerb@@@std@@U_Kfn@?$map@HPAVCVerb@@U?$less@H@std@@V?$allocator@PAVCVerb@@@3@@2@U?$less@H@2@V?$allocator@PAVCVerb@@@2@@std@@QAE?AViterator@12@V312@0@Z 00467990 f i BuyDlg.obj
 0001:00066ad0       ?deallocate@?$allocator@PAVCVerb@@@std@@QAEXPAXI@Z 00467ad0 f i BuyDlg.obj
 0001:00066ad0       ?deallocate@?$allocator@PAVCVerbBtn@@@std@@QAEXPAXI@Z 00467ad0 f i BuyDlg.obj
 0001:00066ad0       ?deallocate@?$allocator@PAVCNoButtonDlg@@@std@@QAEXPAXI@Z 00467ad0 f i BuyDlg.obj
 0001:00066ad0       ?deallocate@?$allocator@PAVCListData@@@std@@QAEXPAXI@Z 00467ad0 f i BuyDlg.obj
 0001:00066ad0       ?deallocate@?$allocator@VCSkinObj@@@std@@QAEXPAXI@Z 00467ad0 f i BuyDlg.obj
 0001:00066ad0       ?deallocate@?$allocator@PAVCLookAtItem@@@std@@QAEXPAXI@Z 00467ad0 f i BuyDlg.obj
 0001:00066ad0       ?deallocate@?$allocator@VCPoint@@@std@@QAEXPAXI@Z 00467ad0 f i BuyDlg.obj
 0001:00066ad0       ?deallocate@?$allocator@VCSCI_WorldObject@@@std@@QAEXPAXI@Z 00467ad0 f i BuyDlg.obj
 0001:00066ad0       ?deallocate@?$allocator@PAVCMouseWheelable@@@std@@QAEXPAXI@Z 00467ad0 f i BuyDlg.obj
 0001:00066ad0       ?deallocate@?$allocator@PAVCSkinWnd@@@std@@QAEXPAXI@Z 00467ad0 f i BuyDlg.obj
 0001:00066ad0       ?deallocate@?$allocator@PAVCPoint@@@std@@QAEXPAXI@Z 00467ad0 f i BuyDlg.obj
 0001:00066ad0       ?deallocate@?$allocator@VCPerson@@@std@@QAEXPAXI@Z 00467ad0 f i BuyDlg.obj
 0001:00066ad0       ?deallocate@?$allocator@PAD@std@@QAEXPAXI@Z 00467ad0 f i BuyDlg.obj
 0001:00066ad0       ?deallocate@?$allocator@PAVCVerbRequest@@@std@@QAEXPAXI@Z 00467ad0 f i BuyDlg.obj
 0001:00066ad0       ?deallocate@?$allocator@PAVCFastScrollCtrl@@@std@@QAEXPAXI@Z 00467ad0 f i BuyDlg.obj
 0001:00066ad0       ?deallocate@?$allocator@PAVCTabEntry@@@std@@QAEXPAXI@Z 00467ad0 f i BuyDlg.obj
 0001:00066ad0       ?deallocate@?$allocator@PAVCMailMsg@@@std@@QAEXPAXI@Z 00467ad0 f i BuyDlg.obj
 0001:00066ad0       ?deallocate@?$allocator@PAVCPrivateTell@@@std@@QAEXPAXI@Z 00467ad0 f i BuyDlg.obj
 0001:00066ad0       ?deallocate@?$allocator@PAVCDropTarget@@@std@@QAEXPAXI@Z 00467ad0 f i BuyDlg.obj
 0001:00066ad0       ?deallocate@?$allocator@PAVCMailMsgWnd@@@std@@QAEXPAXI@Z 00467ad0 f i BuyDlg.obj
 0001:00066ad0       ?deallocate@?$allocator@VCSCI_WorldActor@@@std@@QAEXPAXI@Z 00467ad0 f i BuyDlg.obj
 0001:00066ad0       ?deallocate@?$allocator@PAVCSkinCtrl@@@std@@QAEXPAXI@Z 00467ad0 f i BuyDlg.obj
 0001:00066ad0       ?deallocate@?$allocator@H@std@@QAEXPAXI@Z 00467ad0 f i BuyDlg.obj
 0001:00066ad0       ?deallocate@?$allocator@PAVCSCIObjectMethodPair@@@std@@QAEXPAXI@Z 00467ad0 f i BuyDlg.obj
 0001:00066ad0       ?deallocate@?$allocator@PAVCSkinBitmap@@@std@@QAEXPAXI@Z 00467ad0 f i BuyDlg.obj
 0001:00066af0       ?erase@?$_Tree@HU?$pair@$$CBHPAVCVerbBtn@@@std@@U_Kfn@?$map@HPAVCVerbBtn@@U?$less@H@std@@V?$allocator@PAVCVerbBtn@@@3@@2@U?$less@H@2@V?$allocator@PAVCVerbBtn@@@2@@std@@QAE?AViterator@12@V312@0@Z 00467af0 f i BuyDlg.obj
 0001:00066c30       ?DoDataExchange@CWnd@@MAEXPAVCDataExchange@@@Z 00467c30 f i BuyDlg.obj
 0001:00066c40       ?BeginModalState@CWnd@@UAEXXZ 00467c40 f i BuyDlg.obj
 0001:00066c60       ?EndModalState@CWnd@@UAEXXZ 00467c60 f i BuyDlg.obj
 0001:00066c80       ?erase@?$_Tree@HU?$pair@$$CBHPAVCVerb@@@std@@U_Kfn@?$map@HPAVCVerb@@U?$less@H@std@@V?$allocator@PAVCVerb@@@3@@2@U?$less@H@2@V?$allocator@PAVCVerb@@@2@@std@@QAE?AViterator@12@V312@@Z 00467c80 f i BuyDlg.obj
 0001:000674d0       ?_Erase@?$_Tree@HU?$pair@$$CBHPAVCVerb@@@std@@U_Kfn@?$map@HPAVCVerb@@U?$less@H@std@@V?$allocator@PAVCVerb@@@3@@2@U?$less@H@2@V?$allocator@PAVCVerb@@@2@@std@@IAEXPAU_Node@12@@Z 004684d0 f i BuyDlg.obj
 0001:00067590       ??Eiterator@?$_Tree@HU?$pair@$$CBHPAVCVerb@@@std@@U_Kfn@?$map@HPAVCVerb@@U?$less@H@std@@V?$allocator@PAVCVerb@@@3@@2@U?$less@H@2@V?$allocator@PAVCVerb@@@2@@std@@QAE?AV012@H@Z 00468590 f i BuyDlg.obj
 0001:000675c0       ?erase@?$_Tree@HU?$pair@$$CBHPAVCVerbBtn@@@std@@U_Kfn@?$map@HPAVCVerbBtn@@U?$less@H@std@@V?$allocator@PAVCVerbBtn@@@3@@2@U?$less@H@2@V?$allocator@PAVCVerbBtn@@@2@@std@@QAE?AViterator@12@V312@@Z 004685c0 f i BuyDlg.obj
 0001:00067e10       ?_Erase@?$_Tree@HU?$pair@$$CBHPAVCVerbBtn@@@std@@U_Kfn@?$map@HPAVCVerbBtn@@U?$less@H@std@@V?$allocator@PAVCVerbBtn@@@3@@2@U?$less@H@2@V?$allocator@PAVCVerbBtn@@@2@@std@@IAEXPAU_Node@12@@Z 00468e10 f i BuyDlg.obj
 0001:00067ed0       ??Eiterator@?$_Tree@HU?$pair@$$CBHPAVCVerbBtn@@@std@@U_Kfn@?$map@HPAVCVerbBtn@@U?$less@H@std@@V?$allocator@PAVCVerbBtn@@@3@@2@U?$less@H@2@V?$allocator@PAVCVerbBtn@@@2@@std@@QAE?AV012@H@Z 00468ed0 f i BuyDlg.obj
 0001:00067f00       ?_Lrotate@?$_Tree@HU?$pair@$$CBHPAVCVerb@@@std@@U_Kfn@?$map@HPAVCVerb@@U?$less@H@std@@V?$allocator@PAVCVerb@@@3@@2@U?$less@H@2@V?$allocator@PAVCVerb@@@2@@std@@IAEXPAU_Node@12@@Z 00468f00 f i BuyDlg.obj
 0001:00068070       ?_Max@?$_Tree@HU?$pair@$$CBHPAVCVerb@@@std@@U_Kfn@?$map@HPAVCVerb@@U?$less@H@std@@V?$allocator@PAVCVerb@@@3@@2@U?$less@H@2@V?$allocator@PAVCVerb@@@2@@std@@KAPAU_Node@12@PAU312@@Z 00469070 f i BuyDlg.obj
 0001:000680f0       ?_Min@?$_Tree@HU?$pair@$$CBHPAVCVerb@@@std@@U_Kfn@?$map@HPAVCVerb@@U?$less@H@std@@V?$allocator@PAVCVerb@@@3@@2@U?$less@H@2@V?$allocator@PAVCVerb@@@2@@std@@KAPAU_Node@12@PAU312@@Z 004690f0 f i BuyDlg.obj
 0001:00068170       ?_Rrotate@?$_Tree@HU?$pair@$$CBHPAVCVerb@@@std@@U_Kfn@?$map@HPAVCVerb@@U?$less@H@std@@V?$allocator@PAVCVerb@@@3@@2@U?$less@H@2@V?$allocator@PAVCVerb@@@2@@std@@IAEXPAU_Node@12@@Z 00469170 f i BuyDlg.obj
 0001:000682e0       ??Eiterator@?$_Tree@HU?$pair@$$CBHPAVCVerb@@@std@@U_Kfn@?$map@HPAVCVerb@@U?$less@H@std@@V?$allocator@PAVCVerb@@@3@@2@U?$less@H@2@V?$allocator@PAVCVerb@@@2@@std@@QAEAAV012@XZ 004692e0 f i BuyDlg.obj
 0001:00068300       ?_Lrotate@?$_Tree@HU?$pair@$$CBHPAVCVerbBtn@@@std@@U_Kfn@?$map@HPAVCVerbBtn@@U?$less@H@std@@V?$allocator@PAVCVerbBtn@@@3@@2@U?$less@H@2@V?$allocator@PAVCVerbBtn@@@2@@std@@IAEXPAU_Node@12@@Z 00469300 f i BuyDlg.obj
 0001:00068470       ?_Max@?$_Tree@HU?$pair@$$CBHPAVCVerbBtn@@@std@@U_Kfn@?$map@HPAVCVerbBtn@@U?$less@H@std@@V?$allocator@PAVCVerbBtn@@@3@@2@U?$less@H@2@V?$allocator@PAVCVerbBtn@@@2@@std@@KAPAU_Node@12@PAU312@@Z 00469470 f i BuyDlg.obj
 0001:000684f0       ?_Min@?$_Tree@HU?$pair@$$CBHPAVCVerbBtn@@@std@@U_Kfn@?$map@HPAVCVerbBtn@@U?$less@H@std@@V?$allocator@PAVCVerbBtn@@@3@@2@U?$less@H@2@V?$allocator@PAVCVerbBtn@@@2@@std@@KAPAU_Node@12@PAU312@@Z 004694f0 f i BuyDlg.obj
 0001:00068570       ?_Rrotate@?$_Tree@HU?$pair@$$CBHPAVCVerbBtn@@@std@@U_Kfn@?$map@HPAVCVerbBtn@@U?$less@H@std@@V?$allocator@PAVCVerbBtn@@@3@@2@U?$less@H@2@V?$allocator@PAVCVerbBtn@@@2@@std@@IAEXPAU_Node@12@@Z 00469570 f i BuyDlg.obj
 0001:000686e0       ??Eiterator@?$_Tree@HU?$pair@$$CBHPAVCVerbBtn@@@std@@U_Kfn@?$map@HPAVCVerbBtn@@U?$less@H@std@@V?$allocator@PAVCVerbBtn@@@3@@2@U?$less@H@2@V?$allocator@PAVCVerbBtn@@@2@@std@@QAEAAV012@XZ 004696e0 f i BuyDlg.obj
 0001:00068700       ?_Inc@const_iterator@?$_Tree@HU?$pair@$$CBHPAVCVerb@@@std@@U_Kfn@?$map@HPAVCVerb@@U?$less@H@std@@V?$allocator@PAVCVerb@@@3@@2@U?$less@H@2@V?$allocator@PAVCVerb@@@2@@std@@QAEXXZ 00469700 f i BuyDlg.obj
 0001:000687e0       ?_Inc@const_iterator@?$_Tree@HU?$pair@$$CBHPAVCVerbBtn@@@std@@U_Kfn@?$map@HPAVCVerbBtn@@U?$less@H@std@@V?$allocator@PAVCVerbBtn@@@3@@2@U?$less@H@2@V?$allocator@PAVCVerbBtn@@@2@@std@@QAEXXZ 004697e0 f i BuyDlg.obj
 0001:000688c0       ??_ECPurchaseListCtrl@@WEA@AEPAXI@Z 004698c0 f i BuyDlg.obj
 0001:000688d0       ??_ECPurchaseListCtrl@@WHE@AEPAXI@Z 004698d0 f i BuyDlg.obj
 0001:000688e0       ??_ECBuyDlg@@WJE@AEPAXI@Z  004698e0 f i BuyDlg.obj
 0001:000688f0       ??_ECSaleListCtrl@@WEA@AEPAXI@Z 004698f0 f i BuyDlg.obj
 0001:00068900       ??_ECSaleListCtrl@@WHE@AEPAXI@Z 00469900 f i BuyDlg.obj
 0001:00068910       ?SetImageList@CListCtrl@@QAEPAVCImageList@@PAV2@H@Z 00469910 f i BuyDlg.obj
 0001:00068950       ?GetSafeHandle@CImageList@@QBEPAU_IMAGELIST@@XZ 00469950 f i BuyDlg.obj
 0001:00068980       ?RequestResize@CRichEditCtrl@@QAEXXZ 00469980 f i BuyDlg.obj
 0001:000689b0       ?SetEventMask@CRichEditCtrl@@QAEKK@Z 004699b0 f i BuyDlg.obj
 0001:000689e0       ?get_pCommand@CSCI_NetMsg@@QAEFXZ 004699e0 f i BuyDlg.obj
 0001:00068a00       ?get_pAckCmd@CSCI_NetMsg@@QAE?AVCSCI_LongInt@@XZ 00469a00 f i BuyDlg.obj
 0001:00068a30       ?get_pNakCmd@CSCI_NetMsg@@QAE?AVCSCI_LongInt@@XZ 00469a30 f i BuyDlg.obj
 0001:00068a60       ?get_pValue@CSCI_WorldObject@@QAE?AVCSCI_LongInt@@XZ 00469a60 f i BuyDlg.obj
 0001:00068a90       ??0CSCI_Array@@QAE@G@Z     00469a90 f i BuyDlg.obj
 0001:00068a90       ??0CSCI_GroupMember@@QAE@G@Z 00469a90 f i BuyDlg.obj
 0001:00068a90       ??0CSCI_ServerInfo@@QAE@G@Z 00469a90 f i BuyDlg.obj
 0001:00068a90       ??0CSCI_WorldObjectBase@@QAE@G@Z 00469a90 f i BuyDlg.obj
 0001:00068a90       ??0CSCI_ArmorInfo@@QAE@G@Z 00469a90 f i BuyDlg.obj
 0001:00068a90       ??0CSCI_Game@@QAE@G@Z      00469a90 f i BuyDlg.obj
 0001:00068a90       ??0CSCI_WinDialogHandler@@QAE@G@Z 00469a90 f i BuyDlg.obj
 0001:00068a90       ??0CSCI_ManagedRoom@@QAE@G@Z 00469a90 f i BuyDlg.obj
 0001:00068a90       ??0CSCI_Rectangle@@QAE@G@Z 00469a90 f i BuyDlg.obj
 0001:00068a90       ??0CSCI_CharInfo@@QAE@G@Z  00469a90 f i BuyDlg.obj
 0001:00068a90       ??0CSCI_LongInt@@QAE@G@Z   00469a90 f i BuyDlg.obj
 0001:00068a90       ??0CSCI_Sound@@QAE@G@Z     00469a90 f i BuyDlg.obj
 0001:00068a90       ??0CSCI_Script@@QAE@G@Z    00469a90 f i BuyDlg.obj
 0001:00068a90       ??0CSCI_Collection@@QAE@G@Z 00469a90 f i BuyDlg.obj
 0001:00068a90       ??0CSCI_Server@@QAE@G@Z    00469a90 f i BuyDlg.obj
 0001:00068a90       ??0CSCI_CVerbRequest@@QAE@G@Z 00469a90 f i BuyDlg.obj
 0001:00068ab0       ?GetGlobal@PMachine@@QAEFH@Z 00469ab0 f i BuyDlg.obj
 0001:00068ad0       ?GetItemTextColor@CSkinListCtrl@@MAEKH@Z 00469ad0 f i BuyDlg.obj
 0001:00068af0       ?GetItemBGColor@CSkinListCtrl@@MAEKH@Z 00469af0 f i BuyDlg.obj
 0001:00068b10       ?PutWord@CPackedData@@QAEXF@Z 00469b10 f i BuyDlg.obj
 0001:00068b50       ?PutByte@CPackedData@@QAEXE@Z 00469b50 f i BuyDlg.obj
 0001:00068ba0       ?CheckBounds@OCArray@@IAEXH@Z 00469ba0 f i BuyDlg.obj
 0001:00068bf0       ?PutLong@CPackedData@@QAEXH@Z 00469bf0 f i BuyDlg.obj
 0001:00068c60       ?IsCrystals@CPurchaseItem@@QAE_NXZ 00469c60 f i BuyDlg.obj
 0001:00068c80       ?GetIndex@CPurchaseItem@@QAEHXZ 00469c80 f i BuyDlg.obj
 0001:00068ca0       ?GetIcon@CPurchaseItem@@QAEHXZ 00469ca0 f i BuyDlg.obj
 0001:00068cc0       ?GetClutStart@CPurchaseItem@@QAEHXZ 00469cc0 f i BuyDlg.obj
 0001:00068ce0       ?GetColor@CPurchaseItem@@QAEHXZ 00469ce0 f i BuyDlg.obj
 0001:00068d00       ?GetWeight@CPurchaseItem@@QAEHXZ 00469d00 f i BuyDlg.obj
 0001:00068d20       ?CloseMe@CBuyDlg@@QAEXXZ   00469d20 f i BuyDlg.obj
 0001:00068d40       ??0CSkinObj@@QAE@ABV0@@Z   00469d40 f i BuyDlg.obj
 0001:00068d70       ??1CReflectToParentCtrl@@UAE@XZ 00469d70 f i BuyDlg.obj
 0001:00068d70       ??1CSkinBtn@@UAE@XZ        00469d70 f i BuyDlg.obj
 0001:00068d90       ??_ECSkinObj@@UAEPAXI@Z    00469d90 f i BuyDlg.obj
 0001:00068d90       ??_GCSkinObj@@UAEPAXI@Z    00469d90 f i BuyDlg.obj
 0001:00068dc0       ?BringTabToTop@CMainPanelWnd@@QAEXXZ 00469dc0 f i BuyDlg.obj
 0001:00068e00       ?perform@CSCI_Object@@QAEXF@Z 00469e00 f   C++SCI.obj
 0001:00068e5b       ?newInstance@CSCI_Object@@QAE?AVObjectID@@XZ 00469e5b f   C++SCI.obj
 0001:00068ec8       ?doit@CSCI_Object@@QAEFXZ  00469ec8 f   C++SCI.obj
 0001:00068f23       ?doit@CSCI_Object@@QAEFF@Z 00469f23 f   C++SCI.obj
 0001:00068f84       ?CallMethod@CSCI_Object@@QAEXF@Z 00469f84 f   C++SCI.obj
 0001:00068fe0       ?CallMethod@CSCI_Object@@QAEXFF@Z 00469fe0 f   C++SCI.obj
 0001:0006903e       ?getAffectedState@CSCI_CharInfo@@QAEFF@Z 0046a03e f   C++SCI.obj
 0001:000690a2       ?play@CSCI_Sound@@QAEXF@Z  0046a0a2 f   C++SCI.obj
 0001:000690fd       ?equal@CSCI_LongInt@@QAEFFF@Z 0046a0fd f   C++SCI.obj
 0001:0006916f       ?equalLong@CSCI_LongInt@@QAEFV1@@Z 0046a16f f   C++SCI.obj
 0001:000691d3       ?set@CSCI_LongInt@@QAEXFF@Z 0046a1d3 f   C++SCI.obj
 0001:0006923f       ?setLong@CSCI_LongInt@@QAEXF@Z 0046a23f f   C++SCI.obj
 0001:0006929d       ?setMessage@CSCI_WorldObject@@QAEXF@Z 0046a29d f   C++SCI.obj
 0001:000692fb       ?handleVerb@CSCI_WorldObject@@QAEXF@Z 0046a2fb f   C++SCI.obj
 0001:00069359       ?look@CSCI_WorldObject@@QAEXF@Z 0046a359 f   C++SCI.obj
 0001:000693b7       ?FindByServID@CSCI_WorldObject@@SA?AV1@H@Z 0046a3b7 f   C++SCI.obj
 0001:000693db       ?createDisplay@CSCI_WorldObject@@QAEFF@Z 0046a3db f   C++SCI.obj
 0001:0006943f       ?fromPacket@CSCI_WorldObject@@QAEFFF@Z 0046a43f f   C++SCI.obj
 0001:000694b2       ?fromExtendedPacket@CSCI_WorldObject@@QAEXF@Z 0046a4b2 f   C++SCI.obj
 0001:00069510       ?addValue@CSCI_WorldObject@@QAEXF@Z 0046a510 f   C++SCI.obj
 0001:0006956e       ?subValue@CSCI_WorldObject@@QAEXF@Z 0046a56e f   C++SCI.obj
 0001:000695cc       ?addManaValue@CSCI_WorldObject@@QAEXF@Z 0046a5cc f   C++SCI.obj
 0001:0006962a       ?subManaValue@CSCI_WorldObject@@QAEXF@Z 0046a62a f   C++SCI.obj
 0001:00069688       ?getAffectedState@CSCI_WorldObject@@QAEFF@Z 0046a688 f   C++SCI.obj
 0001:000696ec       ?servIDEquals@CSCI_WorldObject@@QAEFF@Z 0046a6ec f   C++SCI.obj
 0001:00069750       ?getBaseCharacter@CSCI_WorldObject@@QAE?AVCSCI_BCharacter@@XZ 0046a750 f   C++SCI.obj
 0001:000697d7       ?getBaseCarryable@CSCI_WorldObject@@QAE?AVCSCI_BCarryable@@XZ 0046a7d7 f   C++SCI.obj
 0001:0006985e       ?getBaseWearable@CSCI_WorldObject@@QAE?AVCSCI_BWearable@@XZ 0046a85e f   C++SCI.obj
 0001:000698e5       ?getBaseWeapon@CSCI_WorldObject@@QAE?AVCSCI_BWeapon@@XZ 0046a8e5 f   C++SCI.obj
 0001:0006996c       ?getBaseNPC@CSCI_WorldObject@@QAE?AVCSCI_BNPC@@XZ 0046a96c f   C++SCI.obj
 0001:000699f3       ?getBaseContainer@CSCI_WorldObject@@QAE?AVCSCI_BContainer@@XZ 0046a9f3 f   C++SCI.obj
 0001:00069a7a       ?getBaseHead@CSCI_WorldObject@@QAE?AVCSCI_BHead@@XZ 0046aa7a f   C++SCI.obj
 0001:00069b01       ?getVerb@CSCI_WorldObject@@QAEXV1@@Z 0046ab01 f   C++SCI.obj
 0001:00069b5f       ?getBitmap@CSCI_WorldObject@@QAE?AVObjectID@@XZ 0046ab5f f   C++SCI.obj
 0001:00069bcc       ?getName@CSCI_WorldObject@@QAE?AVStringID@@XZ 0046abcc f   C++SCI.obj
 0001:00069c45       ?buildVerbList@CSCI_WorldObject@@QAEXV1@@Z 0046ac45 f   C++SCI.obj
 0001:00069ca3       ?setProperName@CSCI_BCharacter@@QAEXF@Z 0046aca3 f   C++SCI.obj
 0001:00069d01       ?setTitle@CSCI_BCharacter@@QAEXF@Z 0046ad01 f   C++SCI.obj
 0001:00069d5f       ?setBiography@CSCI_BCharacter@@QAEXF@Z 0046ad5f f   C++SCI.obj
 0001:00069dbd       ?deltaFeatureSelect@CSCI_BHead@@QAEXFF@Z 0046adbd f   C++SCI.obj
 0001:00069e2a       ?nextFeature@CSCI_BHead@@QAEXF@Z 0046ae2a f   C++SCI.obj
 0001:00069e88       ?prevFeature@CSCI_BHead@@QAEXF@Z 0046ae88 f   C++SCI.obj
 0001:00069ee6       ?getHeadBitmap@CSCI_fNBody@@QAE?AVObjectID@@XZ 0046aee6 f   C++SCI.obj
 0001:00069f53       ?getAttackBitmap@CSCI_fNBody@@QAE?AVObjectID@@XZ 0046af53 f   C++SCI.obj
 0001:00069fc0       ?getStanceBitmap@CSCI_fNBody@@QAE?AVObjectID@@F@Z 0046afc0 f   C++SCI.obj
 0001:0006a031       ?setSex@CSCI_WorldActor@@QAEXF@Z 0046b031 f   C++SCI.obj
 0001:0006a08f       ?setRace@CSCI_WorldActor@@QAEXF@Z 0046b08f f   C++SCI.obj
 0001:0006a0ed       ?getSex@CSCI_WorldActor@@QAEFXZ 0046b0ed f   C++SCI.obj
 0001:0006a14b       ?getRace@CSCI_WorldActor@@QAEFXZ 0046b14b f   C++SCI.obj
 0001:0006a1a9       ?stopAction@CSCI_WorldEgo@@QAEXXZ 0046b1a9 f   C++SCI.obj
 0001:0006a201       ?stopTargetting@CSCI_WorldEgo@@QAEXXZ 0046b201 f   C++SCI.obj
 0001:0006a259       ?setPassword@CSCI_WorldEgo@@QAEXXZ 0046b259 f   C++SCI.obj
 0001:0006a2b1       ?contains@CSCI_Collection@@QAEFF@Z 0046b2b1 f   C++SCI.obj
 0001:0006a315       ?at@CSCI_List@@QAEFF@Z     0046b315 f   C++SCI.obj
 0001:0006a376       ?at@CSCI_Array@@QAEFF@Z    0046b376 f   C++SCI.obj
 0001:0006a3d7       ?controlOff@CSCI_Game@@QAEXXZ 0046b3d7 f   C++SCI.obj
 0001:0006a42f       ?controlOn@CSCI_Game@@QAEXXZ 0046b42f f   C++SCI.obj
 0001:0006a487       ?handsOff@CSCI_Game@@QAEXXZ 0046b487 f   C++SCI.obj
 0001:0006a4df       ?handsOn@CSCI_Game@@QAEXXZ 0046b4df f   C++SCI.obj
 0001:0006a537       ?getShopItemImage@CSCI_GameServer@@QAEFFFF@Z 0046b537 f   C++SCI.obj
 0001:0006a5b3       ?updatePingText@CSCI_GameServer@@QAEXXZ 0046b5b3 f   C++SCI.obj
 0001:0006a60b       ?leaveGroup@CSCI_GameServer@@QAEXF@Z 0046b60b f   C++SCI.obj
 0001:0006a669       ?kickGroup@CSCI_GameServer@@QAEXF@Z 0046b669 f   C++SCI.obj
 0001:0006a6c7       ?getQuestList@CSCI_GameServer@@QAEXXZ 0046b6c7 f   C++SCI.obj
 0001:0006a71f       ?restartGame@CSCI_GameServer@@QAEXXZ 0046b71f f   C++SCI.obj
 0001:0006a777       ?getMail@CSCI_GameServer@@QAEXXZ 0046b777 f   C++SCI.obj
 0001:0006a7cf       ?getMailMessage@CSCI_GameServer@@QAEXF@Z 0046b7cf f   C++SCI.obj
 0001:0006a82d       ?eraseMailMessage@CSCI_GameServer@@QAEXF@Z 0046b82d f   C++SCI.obj
 0001:0006a88b       ?sendMail@CSCI_GameServer@@QAEXVTextID@@00@Z 0046b88b f   C++SCI.obj
 0001:0006a90d       ?cue@CSCI_Script@@QAEXXZ   0046b90d f   C++SCI.obj
 0001:0006a965       ?dispose@CSCI_Object@@QAEXXZ 0046b965 f   C++SCI.obj
 0001:0006a9bd       ?cast@CSCI_Spell@@QAEXXZ   0046b9bd f   C++SCI.obj
 0001:0006aa15       ?canCast@CSCI_Spell@@QAEFXZ 0046ba15 f   C++SCI.obj
 0001:0006aa73       ?release@CSCI_Collection@@QAEXXZ 0046ba73 f   C++SCI.obj
 0001:0006aacb       ?addToEnd@CSCI_List@@QAEXF@Z 0046bacb f   C++SCI.obj
 0001:0006ab30       ??0CSCI_RoomZero@@QAE@G@Z  0046bb30 f i C++SCI.obj
 0001:0006ab30       ??0CSCI_Plane@@QAE@G@Z     0046bb30 f i C++SCI.obj
 0001:0006ab30       ??0CSCI_RealmRoom@@QAE@G@Z 0046bb30 f i C++SCI.obj
 0001:0006ab30       ??0CSCI_BContainer@@QAE@G@Z 0046bb30 f i C++SCI.obj
 0001:0006ab30       ??0CSCI_BWearable@@QAE@G@Z 0046bb30 f i C++SCI.obj
 0001:0006ab30       ??0CSCI_MakeItemDialog@@QAE@G@Z 0046bb30 f i C++SCI.obj
 0001:0006ab30       ??0CSCI_BCharacter@@QAE@G@Z 0046bb30 f i C++SCI.obj
 0001:0006ab30       ??0CSCI_BitMap@@QAE@G@Z    0046bb30 f i C++SCI.obj
 0001:0006ab30       ??0CSCI_MusicMgr@@QAE@G@Z  0046bb30 f i C++SCI.obj
 0001:0006ab30       ??0CSCI_List@@QAE@G@Z      0046bb30 f i C++SCI.obj
 0001:0006ab30       ??0CSCI_GameServer@@QAE@G@Z 0046bb30 f i C++SCI.obj
 0001:0006ab30       ??0CSCI_BCarryable@@QAE@G@Z 0046bb30 f i C++SCI.obj
 0001:0006ab30       ??0CSCI_ByteArray@@QAE@G@Z 0046bb30 f i C++SCI.obj
 0001:0006ab30       ??0CSCI_BNPC@@QAE@G@Z      0046bb30 f i C++SCI.obj
 0001:0006ab50       ??0CChannelMemberList@@QAE@XZ 0046bb50 f   chanlist.obj
 0001:0006ab7f       ??1CChannelMemberList@@QAE@XZ 0046bb7f f   chanlist.obj
 0001:0006abc7       ?findMember@CChannelMemberList@@IAEPADPAD@Z 0046bbc7 f   chanlist.obj
 0001:0006ac4a       ?addPlayer@CChannelMemberList@@QAEXPAD_N@Z 0046bc4a f   chanlist.obj
 0001:0006ad56       ?delPlayer@CChannelMemberList@@QAEXPAD@Z 0046bd56 f   chanlist.obj
 0001:0006adc2       ?isMember@CChannelMemberList@@QAE_NPAD@Z 0046bdc2 f   chanlist.obj
 0001:0006adf5       ?clearList@CChannelMemberList@@QAEXXZ 0046bdf5 f   chanlist.obj
 0001:0006aebb       ?fromPacket@CChannelMemberList@@QAEXPAVPackedData@@@Z 0046bebb f   chanlist.obj
 0001:0006afc9       ?setListCtrl@CChannelMemberList@@QAEXPAVCSkinListCtrl@@@Z 0046bfc9 f   chanlist.obj
 0001:0006afdf       ?Compare@CChannelMemberList@@KGHPAD0H@Z 0046bfdf f   chanlist.obj
 0001:0006b01d       ?Sort@CChannelMemberList@@QAEXXZ 0046c01d f   chanlist.obj
 0001:0006b055       ?HandleMsg@CChannelMemberList@@QAEXPAD@Z 0046c055 f   chanlist.obj
 0001:0006b152       ??0CChannelBannedList@@QAE@XZ 0046c152 f   chanlist.obj
 0001:0006b181       ??1CChannelBannedList@@QAE@XZ 0046c181 f   chanlist.obj
 0001:0006b1c9       ?findMember@CChannelBannedList@@IAEPADPAD@Z 0046c1c9 f   chanlist.obj
 0001:0006b249       ?addPlayer@CChannelBannedList@@QAEXPAD@Z 0046c249 f   chanlist.obj
 0001:0006b2ab       ?delPlayer@CChannelBannedList@@QAEXPAD@Z 0046c2ab f   chanlist.obj
 0001:0006b317       ?isMember@CChannelBannedList@@QAE_NPAD@Z 0046c317 f   chanlist.obj
 0001:0006b33e       ?clearList@CChannelBannedList@@QAEXXZ 0046c33e f   chanlist.obj
 0001:0006b3cf       ?fromPacket@CChannelBannedList@@QAEXPAVPackedData@@@Z 0046c3cf f   chanlist.obj
 0001:0006b43f       ?setListCtrl@CChannelBannedList@@QAEXPAVCSkinListCtrl@@@Z 0046c43f f   chanlist.obj
 0001:0006b455       ??0CChanListWnd@@QAE@XZ    0046c455 f   chanlist.obj
 0001:0006b4d6       ?CloseSelf@CChanListWnd@@UAEX_N@Z 0046c4d6 f   chanlist.obj
 0001:0006b545       ?Create@CChanListWnd@@QAEHPAVPackedData@@@Z 0046c545 f   chanlist.obj
 0001:0006b715       ?MakeSkinCtrl@CChanListWnd@@UAEPAVCSkinCtrl@@VCSkinObj@@@Z 0046c715 f   chanlist.obj
 0001:0006b94f       ??0CChMemberListWnd@@QAE@XZ 0046c94f f   chanlist.obj
 0001:0006b9d0       ?CloseSelf@CChMemberListWnd@@UAEX_N@Z 0046c9d0 f   chanlist.obj
 0001:0006ba00       ?Create@CChMemberListWnd@@QAEHPAVPackedData@@@Z 0046ca00 f   chanlist.obj
 0001:0006badf       ?MakeSkinCtrl@CChMemberListWnd@@UAEPAVCSkinCtrl@@VCSkinObj@@@Z 0046cadf f   chanlist.obj
 0001:0006bc76       ??0CChBannedListWnd@@QAE@XZ 0046cc76 f   chanlist.obj
 0001:0006bcf7       ?CloseSelf@CChBannedListWnd@@UAEX_N@Z 0046ccf7 f   chanlist.obj
 0001:0006bd27       ?Create@CChBannedListWnd@@QAEHPAVPackedData@@@Z 0046cd27 f   chanlist.obj
 0001:0006be06       ?MakeSkinCtrl@CChBannedListWnd@@UAEPAVCSkinCtrl@@VCSkinObj@@@Z 0046ce06 f   chanlist.obj
 0001:0006bf9d       ?_GetBaseMessageMap@CGossipWnd@@KGPBUAFX_MSGMAP@@XZ 0046cf9d f   chanlist.obj
 0001:0006bfa7       ?GetMessageMap@CGossipWnd@@MBEPBUAFX_MSGMAP@@XZ 0046cfa7 f   chanlist.obj
 0001:0006bfb7       ??0CGossipWnd@@QAE@XZ      0046cfb7 f   chanlist.obj
 0001:0006c0ee       ?ParseText@CGossipWnd@@UAEHPBD@Z 0046d0ee f   chanlist.obj
 0001:0006c18e       ?SetInChannel@CGossipWnd@@QAEX_N@Z 0046d18e f   chanlist.obj
 0001:0006c33b       ?Create@CGossipWnd@@QAEHXZ 0046d33b f   chanlist.obj
 0001:0006c504       ?MakeSkinCtrl@CGossipWnd@@UAEPAVCSkinCtrl@@VCSkinObj@@@Z 0046d504 f   chanlist.obj
 0001:0006ca87       ?CloseSelf@CGossipWnd@@UAEX_N@Z 0046da87 f   chanlist.obj
 0001:0006caaa       ?Update@CGossipWnd@@QAEXVObjectID@@@Z 0046daaa f   chanlist.obj
 0001:0006cb89       ?Update@CGossipWnd@@QAEXPAD@Z 0046db89 f   chanlist.obj
 0001:0006cccb       ?SetTitle@CGossipWnd@@QAEXPAD@Z 0046dccb f   chanlist.obj
 0001:0006cd1f       ?SetTopic@CGossipWnd@@QAEXPAD@Z 0046dd1f f   chanlist.obj
 0001:0006cdbf       ?HandleVerb@CGossipWnd@@UAEHHVCSCI_WorldObject@@@Z 0046ddbf f   chanlist.obj
 0001:0006cf35       ?OnSetFocus@CGossipWnd@@QAEXPAVCWnd@@@Z 0046df35 f   chanlist.obj
 0001:0006cf6b       ??0CGossipLine@@QAE@VCSkinObj@@PAVCSkinWnd@@@Z 0046df6b f   chanlist.obj
 0001:0006d00c       ?OnReturn@CGossipLine@@UAEXXZ 0046e00c f   chanlist.obj
 0001:0006d0bb       ??0CSettingsBtn@@QAE@VCSkinObj@@PAVCSkinWnd@@@Z 0046e0bb f   chanlist.obj
 0001:0006d12e       ?OnActivate@CSettingsBtn@@UAEXFF@Z 0046e12e f   chanlist.obj
 0001:0006d1ab       ??0CChannelsBtn@@QAE@VCSkinObj@@PAVCSkinWnd@@@Z 0046e1ab f   chanlist.obj
 0001:0006d21e       ?OnActivate@CChannelsBtn@@UAEXFF@Z 0046e21e f   chanlist.obj
 0001:0006d238       ??0CLeaveGossipBtn@@QAE@VCSkinObj@@PAVCSkinWnd@@@Z 0046e238 f   chanlist.obj
 0001:0006d2ab       ?OnActivate@CLeaveGossipBtn@@UAEXFF@Z 0046e2ab f   chanlist.obj
 0001:0006d2e8       ??0CModifyBtn@@QAE@VCSkinObj@@PAVCSkinWnd@@@Z 0046e2e8 f   chanlist.obj
 0001:0006d35b       ?OnActivate@CModifyBtn@@UAEXFF@Z 0046e35b f   chanlist.obj
 0001:0006d3e4       ??0CGossipPanel@@QAE@XZ    0046e3e4 f   chanlist.obj
 0001:0006d410       ?Create@CGossipPanel@@UAEHXZ 0046e410 f   chanlist.obj
 0001:0006d4c0       ??_ECGroupListWnd@@UAEPAXI@Z 0046e4c0 f i chanlist.obj
 0001:0006d4c0       ??_GCGspSettingsDlg@@UAEPAXI@Z 0046e4c0 f i chanlist.obj
 0001:0006d4c0       ??_ECGspSettingsDlg@@UAEPAXI@Z 0046e4c0 f i chanlist.obj
 0001:0006d4c0       ??_GCPatchDlg@@UAEPAXI@Z   0046e4c0 f i chanlist.obj
 0001:0006d4c0       ??_ECChanListWnd@@UAEPAXI@Z 0046e4c0 f i chanlist.obj
 0001:0006d4c0       ??_GCGroupListWnd@@UAEPAXI@Z 0046e4c0 f i chanlist.obj
 0001:0006d4c0       ??_GCChanListWnd@@UAEPAXI@Z 0046e4c0 f i chanlist.obj
 0001:0006d4c0       ??_ECPatchDlg@@UAEPAXI@Z   0046e4c0 f i chanlist.obj
 0001:0006d4f0       ??0CChannelListCtrl@@QAE@XZ 0046e4f0 f i chanlist.obj
 0001:0006d530       ?OnItemActivate@CChannelListCtrl@@UAEXH_N@Z 0046e530 f i chanlist.obj
 0001:0006d5d0       ??_GCChannelListCtrl@@UAEPAXI@Z 0046e5d0 f i chanlist.obj
 0001:0006d5d0       ??_ECChannelListCtrl@@UAEPAXI@Z 0046e5d0 f i chanlist.obj
 0001:0006d600       ??1CChannelListCtrl@@UAE@XZ 0046e600 f i chanlist.obj
 0001:0006d640       ??0CChMemberListCtrl@@QAE@XZ 0046e640 f i chanlist.obj
 0001:0006d680       ?OnItemActivate@CChMemberListCtrl@@UAEXH_N@Z 0046e680 f i chanlist.obj
 0001:0006d830       ??_ECChMemberListCtrl@@UAEPAXI@Z 0046e830 f i chanlist.obj
 0001:0006d830       ??_GCChMemberListCtrl@@UAEPAXI@Z 0046e830 f i chanlist.obj
 0001:0006d860       ??1CChMemberListCtrl@@UAE@XZ 0046e860 f i chanlist.obj
 0001:0006d8a0       ??0CChBannedListCtrl@@QAE@XZ 0046e8a0 f i chanlist.obj
 0001:0006d8e0       ?OnItemActivate@CChBannedListCtrl@@UAEXH_N@Z 0046e8e0 f i chanlist.obj
 0001:0006da30       ??_ECChBannedListCtrl@@UAEPAXI@Z 0046ea30 f i chanlist.obj
 0001:0006da30       ??_GCChBannedListCtrl@@UAEPAXI@Z 0046ea30 f i chanlist.obj
 0001:0006da60       ??1CChBannedListCtrl@@UAE@XZ 0046ea60 f i chanlist.obj
 0001:0006daa0       ??_GCGossipWnd@@UAEPAXI@Z  0046eaa0 f i chanlist.obj
 0001:0006daa0       ??_ECGossipWnd@@UAEPAXI@Z  0046eaa0 f i chanlist.obj
 0001:0006dad0       ??1CGossipWnd@@UAE@XZ      0046ead0 f i chanlist.obj
 0001:0006db40       ??1CSkinEdit@@UAE@XZ       0046eb40 f i chanlist.obj
 0001:0006dbd0       ??1CQuestionExitBtn@@UAE@XZ 0046ebd0 f i chanlist.obj
 0001:0006dbd0       ??1CSkinScrollBar@@UAE@XZ  0046ebd0 f i chanlist.obj
 0001:0006dbd0       ??1CDoneBtn@@UAE@XZ        0046ebd0 f i chanlist.obj
 0001:0006dbd0       ??1CSCITalkButtonBtn@@UAE@XZ 0046ebd0 f i chanlist.obj
 0001:0006dbd0       ??1CEraseBtn@@UAE@XZ       0046ebd0 f i chanlist.obj
 0001:0006dbd0       ??1CReplyBtn@@UAE@XZ       0046ebd0 f i chanlist.obj
 0001:0006dbd0       ??1CSellAllBtn@@UAE@XZ     0046ebd0 f i chanlist.obj
 0001:0006dbd0       ??1CCityBtn@@UAE@XZ        0046ebd0 f i chanlist.obj
 0001:0006dbd0       ??1COkBtn@@UAE@XZ          0046ebd0 f i chanlist.obj
 0001:0006dbd0       ??1CCreateBtn@@UAE@XZ      0046ebd0 f i chanlist.obj
 0001:0006dbd0       ??1CSendBtn@@UAE@XZ        0046ebd0 f i chanlist.obj
 0001:0006dbd0       ??1CLookAtBtn@@UAE@XZ      0046ebd0 f i chanlist.obj
 0001:0006dbd0       ??1CToonMakeRaceDownBtn@@UAE@XZ 0046ebd0 f i chanlist.obj
 0001:0006dbd0       ??1CToonMakeSexBtn@@UAE@XZ 0046ebd0 f i chanlist.obj
 0001:0006dbd0       ??1CNextBtn@@UAE@XZ        0046ebd0 f i chanlist.obj
 0001:0006dbd0       ??1CRepairBtn@@UAE@XZ      0046ebd0 f i chanlist.obj
 0001:0006dbd0       ??1CEraseToonBtn@@UAE@XZ   0046ebd0 f i chanlist.obj
 0001:0006dbd0       ??1CModifyBtn@@UAE@XZ      0046ebd0 f i chanlist.obj
 0001:0006dbd0       ??1CSettingsBtn@@UAE@XZ    0046ebd0 f i chanlist.obj
 0001:0006dbd0       ??1CSkinChangeButton@@UAE@XZ 0046ebd0 f i chanlist.obj
 0001:0006dbd0       ??1CToonMakeRaceUpBtn@@UAE@XZ 0046ebd0 f i chanlist.obj
 0001:0006dbd0       ??1CSellBtn@@UAE@XZ        0046ebd0 f i chanlist.obj
 0001:0006dbd0       ??1CToonMakeFeatureUpBtn@@UAE@XZ 0046ebd0 f i chanlist.obj
 0001:0006dbd0       ??1CToonMakeFeatureDownBtn@@UAE@XZ 0046ebd0 f i chanlist.obj
 0001:0006dbd0       ??1CToonMakeRandomBtn@@UAE@XZ 0046ebd0 f i chanlist.obj
 0001:0006dbd0       ??1CColorBtn@@UAE@XZ       0046ebd0 f i chanlist.obj
 0001:0006dbd0       ??1CTabDlgBtn@@UAE@XZ      0046ebd0 f i chanlist.obj
 0001:0006dbd0       ??1CSCIButtonBtn@@UAE@XZ   0046ebd0 f i chanlist.obj
 0001:0006dbd0       ??1CMaxBtn@@UAE@XZ         0046ebd0 f i chanlist.obj
 0001:0006dbd0       ??1CForwardBtn@@UAE@XZ     0046ebd0 f i chanlist.obj
 0001:0006dbd0       ??1CCancelBtn@@UAE@XZ      0046ebd0 f i chanlist.obj
 0001:0006dbf0       ??_ECChannelsBtn@@UAEPAXI@Z 0046ebf0 f i chanlist.obj
 0001:0006dbf0       ??_GCChannelsBtn@@UAEPAXI@Z 0046ebf0 f i chanlist.obj
 0001:0006dc20       ??1CChannelsBtn@@UAE@XZ    0046ec20 f i chanlist.obj
 0001:0006dc40       ??_ECLeaveGossipBtn@@UAEPAXI@Z 0046ec40 f i chanlist.obj
 0001:0006dc40       ??_GCLeaveGossipBtn@@UAEPAXI@Z 0046ec40 f i chanlist.obj
 0001:0006dc70       ??1CLeaveGossipBtn@@UAE@XZ 0046ec70 f i chanlist.obj
 0001:0006dc90       ??_ECGossipPanel@@UAEPAXI@Z 0046ec90 f i chanlist.obj
 0001:0006dc90       ??_GCGossipPanel@@UAEPAXI@Z 0046ec90 f i chanlist.obj
 0001:0006dcc0       ??1CSpellVerbDialog@@UAE@XZ 0046ecc0 f i chanlist.obj
 0001:0006dcc0       ??1CGossipPanel@@UAE@XZ    0046ecc0 f i chanlist.obj
 0001:0006dce0       ?IsEmpty@CString@@QBEHXZ   0046ece0 f i chanlist.obj
 0001:0006dd00       ?GetData@CString@@IBEPAUCStringData@@XZ 0046ed00 f i chanlist.obj
 0001:0006dd20       ??ACString@@QBEDH@Z        0046ed20 f i chanlist.obj
 0001:0006dd20       ?GetAt@CString@@QBEDH@Z    0046ed20 f i chanlist.obj
 0001:0006dd40       ??1?$list@PADV?$allocator@PAD@std@@@std@@QAE@XZ 0046ed40 f i chanlist.obj
 0001:0006dda0       ?push_back@?$list@PADV?$allocator@PAD@std@@@std@@QAEXABQAD@Z 0046eda0 f i chanlist.obj
 0001:0006ddd0       ?clear@?$list@PADV?$allocator@PAD@std@@@std@@QAEXXZ 0046edd0 f i chanlist.obj
 0001:0006de10       ?remove@?$list@PADV?$allocator@PAD@std@@@std@@QAEXABQAD@Z 0046ee10 f i chanlist.obj
 0001:0006de90       ??Eiterator@?$list@PAVCMailMsg@@V?$allocator@PAVCMailMsg@@@std@@@std@@QAE?AV012@H@Z 0046ee90 f i chanlist.obj
 0001:0006de90       ??Eiterator@?$list@PAVCListData@@V?$allocator@PAVCListData@@@std@@@std@@QAE?AV012@H@Z 0046ee90 f i chanlist.obj
 0001:0006de90       ??Eiterator@?$list@PAVCSkinCtrl@@V?$allocator@PAVCSkinCtrl@@@std@@@std@@QAE?AV012@H@Z 0046ee90 f i chanlist.obj
 0001:0006de90       ??Eiterator@?$list@PAVCLookAtItem@@V?$allocator@PAVCLookAtItem@@@std@@@std@@QAE?AV012@H@Z 0046ee90 f i chanlist.obj
 0001:0006de90       ??Eiterator@?$list@PAVCInventoryDlg@@V?$allocator@PAVCInventoryDlg@@@std@@@std@@QAE?AV012@H@Z 0046ee90 f i chanlist.obj
 0001:0006de90       ??Eiterator@?$list@PADV?$allocator@PAD@std@@@std@@QAE?AV012@H@Z 0046ee90 f i chanlist.obj
 0001:0006de90       ??Eiterator@?$list@PAVCVerbRequest@@V?$allocator@PAVCVerbRequest@@@std@@@std@@QAE?AV012@H@Z 0046ee90 f i chanlist.obj
 0001:0006de90       ??Eiterator@?$list@PAVCSkinWnd@@V?$allocator@PAVCSkinWnd@@@std@@@std@@QAE?AV012@H@Z 0046ee90 f i chanlist.obj
 0001:0006dec0       ??9iterator@?$list@PADV?$allocator@PAD@std@@@std@@QBE_NABV012@@Z 0046eec0 f i chanlist.obj
 0001:0006def0       ?insert@?$list@PAVCVerbRequest@@V?$allocator@PAVCVerbRequest@@@std@@@std@@QAE?AViterator@12@V312@ABQAVCVerbRequest@@@Z 0046eef0 f i chanlist.obj
 0001:0006def0       ?insert@?$list@PADV?$allocator@PAD@std@@@std@@QAE?AViterator@12@V312@ABQAD@Z 0046eef0 f i chanlist.obj
 0001:0006def0       ?insert@?$list@PAVCLookAtItem@@V?$allocator@PAVCLookAtItem@@@std@@@std@@QAE?AViterator@12@V312@ABQAVCLookAtItem@@@Z 0046eef0 f i chanlist.obj
 0001:0006def0       ?insert@?$list@PAVCInventoryDlg@@V?$allocator@PAVCInventoryDlg@@@std@@@std@@QAE?AViterator@12@V312@ABQAVCInventoryDlg@@@Z 0046eef0 f i chanlist.obj
 0001:0006def0       ?insert@?$list@PAVCMailMsg@@V?$allocator@PAVCMailMsg@@@std@@@std@@QAE?AViterator@12@V312@ABQAVCMailMsg@@@Z 0046eef0 f i chanlist.obj
 0001:0006def0       ?insert@?$list@PAVCSkinWnd@@V?$allocator@PAVCSkinWnd@@@std@@@std@@QAE?AViterator@12@V312@ABQAVCSkinWnd@@@Z 0046eef0 f i chanlist.obj
 0001:0006def0       ?insert@?$list@PAVCSkinCtrl@@V?$allocator@PAVCSkinCtrl@@@std@@@std@@QAE?AViterator@12@V312@ABQAVCSkinCtrl@@@Z 0046eef0 f i chanlist.obj
 0001:0006dfb0       ?erase@?$list@PADV?$allocator@PAD@std@@@std@@QAE?AViterator@12@V312@0@Z 0046efb0 f i chanlist.obj
 0001:0006e000       ?_Buynode@?$list@PAVCSkinWnd@@V?$allocator@PAVCSkinWnd@@@std@@@std@@IAEPAU_Node@12@PAU312@0@Z 0046f000 f i chanlist.obj
 0001:0006e000       ?_Buynode@?$list@PADV?$allocator@PAD@std@@@std@@IAEPAU_Node@12@PAU312@0@Z 0046f000 f i chanlist.obj
 0001:0006e000       ?_Buynode@?$list@PAVCLookAtItem@@V?$allocator@PAVCLookAtItem@@@std@@@std@@IAEPAU_Node@12@PAU312@0@Z 0046f000 f i chanlist.obj
 0001:0006e000       ?_Buynode@?$list@PAVCSkinCtrl@@V?$allocator@PAVCSkinCtrl@@@std@@@std@@IAEPAU_Node@12@PAU312@0@Z 0046f000 f i chanlist.obj
 0001:0006e000       ?_Buynode@?$list@PAVCInventoryDlg@@V?$allocator@PAVCInventoryDlg@@@std@@@std@@IAEPAU_Node@12@PAU312@0@Z 0046f000 f i chanlist.obj
 0001:0006e000       ?_Buynode@?$list@PAVCListData@@V?$allocator@PAVCListData@@@std@@@std@@IAEPAU_Node@12@PAU312@0@Z 0046f000 f i chanlist.obj
 0001:0006e000       ?_Buynode@?$list@PAVCVerbRequest@@V?$allocator@PAVCVerbRequest@@@std@@@std@@IAEPAU_Node@12@PAU312@0@Z 0046f000 f i chanlist.obj
 0001:0006e000       ?_Buynode@?$list@PAVCMailMsg@@V?$allocator@PAVCMailMsg@@@std@@@std@@IAEPAU_Node@12@PAU312@0@Z 0046f000 f i chanlist.obj
 0001:0006e070       ??8iterator@?$_Tree@PAVCSkinWnd@@PAV1@U_Kfn@?$set@PAVCSkinWnd@@U?$less@PAVCSkinWnd@@@std@@V?$allocator@PAVCSkinWnd@@@3@@std@@U?$less@PAVCSkinWnd@@@4@V?$allocator@PAVCSkinWnd@@@4@@std@@QBE_NABV012@@Z 0046f070 f i chanlist.obj
 0001:0006e070       ??8iterator@?$_Tree@HU?$pair@$$CBHVCSCI_WorldObject@@@std@@U_Kfn@?$map@HVCSCI_WorldObject@@U?$less@H@std@@V?$allocator@VCSCI_WorldObject@@@3@@2@U?$less@H@2@V?$allocator@VCSCI_WorldObject@@@2@@std@@QBE_NABV012@@Z 0046f070 f i chanlist.obj
 0001:0006e070       ??8iterator@?$_Tree@VCSCI_WorldObject@@U?$pair@$$CBVCSCI_WorldObject@@PAVCInventoryDlg@@@std@@U_Kfn@?$map@VCSCI_WorldObject@@PAVCInventoryDlg@@U?$less@VCSCI_WorldObject@@@std@@V?$allocator@PAVCInventoryDlg@@@4@@3@U?$less@VCSCI_WorldObject@@@3@V?$allocator@PAVCInventoryDlg@@@3@@std@@QBE_NABV012@@Z 0046f070 f i chanlist.obj
 0001:0006e070       ??8iterator@?$_Tree@VCString@@U?$pair@$$CBVCString@@VCPerson@@@std@@U_Kfn@?$map@VCString@@VCPerson@@U?$less@VCString@@@std@@V?$allocator@VCPerson@@@4@@3@U?$less@VCString@@@3@V?$allocator@VCPerson@@@3@@std@@QBE_NABV012@@Z 0046f070 f i chanlist.obj
 0001:0006e070       ??8iterator@?$list@PAVCSkinWnd@@V?$allocator@PAVCSkinWnd@@@std@@@std@@QBE_NABV012@@Z 0046f070 f i chanlist.obj
 0001:0006e070       ??8iterator@?$_Tree@VCSkinObj@@U?$pair@$$CBVCSkinObj@@PAVCFastScrollCtrl@@@std@@U_Kfn@?$map@VCSkinObj@@PAVCFastScrollCtrl@@U?$less@VCSkinObj@@@std@@V?$allocator@PAVCFastScrollCtrl@@@4@@3@U?$less@VCSkinObj@@@3@V?$allocator@PAVCFastScrollCtrl@@@3@@std@@QBE_NABV012@@Z 0046f070 f i chanlist.obj
 0001:0006e070       ??8iterator@?$list@PAVCVerbRequest@@V?$allocator@PAVCVerbRequest@@@std@@@std@@QBE_NABV012@@Z 0046f070 f i chanlist.obj
 0001:0006e070       ??8iterator@?$_Tree@HU?$pair@$$CBHPAVCMailMsgWnd@@@std@@U_Kfn@?$map@HPAVCMailMsgWnd@@U?$less@H@std@@V?$allocator@PAVCMailMsgWnd@@@3@@2@U?$less@H@2@V?$allocator@PAVCMailMsgWnd@@@2@@std@@QBE_NABV012@@Z 0046f070 f i chanlist.obj
 0001:0006e070       ??8iterator@?$list@PAVCInventoryDlg@@V?$allocator@PAVCInventoryDlg@@@std@@@std@@QBE_NABV012@@Z 0046f070 f i chanlist.obj
 0001:0006e070       ??8iterator@?$_Tree@HU?$pair@$$CBHPAVCVerb@@@std@@U_Kfn@?$map@HPAVCVerb@@U?$less@H@std@@V?$allocator@PAVCVerb@@@3@@2@U?$less@H@2@V?$allocator@PAVCVerb@@@2@@std@@QBE_NABV012@@Z 0046f070 f i chanlist.obj
 0001:0006e070       ??8iterator@?$_Tree@VCSCI_Object@@U?$pair@$$CBVCSCI_Object@@PAVCNoButtonDlg@@@std@@U_Kfn@?$map@VCSCI_Object@@PAVCNoButtonDlg@@U?$less@VCSCI_Object@@@std@@V?$allocator@PAVCNoButtonDlg@@@4@@3@U?$less@VCSCI_Object@@@3@V?$allocator@PAVCNoButtonDlg@@@3@@std@@QBE_NABV012@@Z 0046f070 f i chanlist.obj
 0001:0006e070       ??8iterator@?$_Tree@PAUHWND__@@U?$pair@QAUHWND__@@PAVCSkinWnd@@@std@@U_Kfn@?$map@PAUHWND__@@PAVCSkinWnd@@U?$less@PAUHWND__@@@std@@V?$allocator@PAVCSkinWnd@@@4@@3@U?$less@PAUHWND__@@@3@V?$allocator@PAVCSkinWnd@@@3@@std@@QBE_NABV012@@Z 0046f070 f i chanlist.obj
 0001:0006e070       ??8iterator@?$_Tree@HU?$pair@$$CBHPAVCVerbBtn@@@std@@U_Kfn@?$map@HPAVCVerbBtn@@U?$less@H@std@@V?$allocator@PAVCVerbBtn@@@3@@2@U?$less@H@2@V?$allocator@PAVCVerbBtn@@@2@@std@@QBE_NABV012@@Z 0046f070 f i chanlist.obj
 0001:0006e070       ??8iterator@?$_Tree@PAUHWND__@@U?$pair@QAUHWND__@@PAVCDropTarget@@@std@@U_Kfn@?$map@PAUHWND__@@PAVCDropTarget@@U?$less@PAUHWND__@@@std@@V?$allocator@PAVCDropTarget@@@4@@3@U?$less@PAUHWND__@@@3@V?$allocator@PAVCDropTarget@@@3@@std@@QBE_NABV012@@Z 0046f070 f i chanlist.obj
 0001:0006e070       ??8iterator@?$_Tree@PAUHWND__@@U?$pair@QAUHWND__@@PAVCMouseWheelable@@@std@@U_Kfn@?$map@PAUHWND__@@PAVCMouseWheelable@@U?$less@PAUHWND__@@@std@@V?$allocator@PAVCMouseWheelable@@@4@@3@U?$less@PAUHWND__@@@3@V?$allocator@PAVCMouseWheelable@@@3@@std@@QBE_NABV012@@Z 0046f070 f i chanlist.obj
 0001:0006e070       ??8iterator@?$list@PAVCSkinCtrl@@V?$allocator@PAVCSkinCtrl@@@std@@@std@@QBE_NABV012@@Z 0046f070 f i chanlist.obj
 0001:0006e070       ??8iterator@?$list@PADV?$allocator@PAD@std@@@std@@QBE_NABV012@@Z 0046f070 f i chanlist.obj
 0001:0006e070       ??8iterator@?$list@PAVCMailMsg@@V?$allocator@PAVCMailMsg@@@std@@@std@@QBE_NABV012@@Z 0046f070 f i chanlist.obj
 0001:0006e070       ??8iterator@?$_Tree@V?$basic_string@DU?$char_traits@D@std@@V?$allocator@D@2@@std@@U?$pair@$$CBV?$basic_string@DU?$char_traits@D@std@@V?$allocator@D@2@@std@@VCPoint@@@2@U_Kfn@?$map@V?$basic_string@DU?$char_traits@D@std@@V?$allocator@D@2@@std@@VCPoint@@U?$less@V?$basic_string@DU?$char_traits@D@std@@V?$allocator@D@2@@std@@@2@V?$allocator@VCPoint@@@2@@2@U?$less@V?$basic_string@DU?$char_traits@D@std@@V?$allocator@D@2@@std@@@2@V?$allocator@VCPoint@@@2@@std@@QBE_NABV012@@Z 0046f070 f i chanlist.obj
 0001:0006e070       ??8iterator@?$list@PAVCLookAtItem@@V?$allocator@PAVCLookAtItem@@@std@@@std@@QBE_NABV012@@Z 0046f070 f i chanlist.obj
 0001:0006e070       ??8iterator@?$list@PAVCListData@@V?$allocator@PAVCListData@@@std@@@std@@QBE_NABV012@@Z 0046f070 f i chanlist.obj
 0001:0006e070       ??8iterator@?$_Tree@HU?$pair@$$CBHPAVCMailMsg@@@std@@U_Kfn@?$map@HPAVCMailMsg@@U?$less@H@std@@V?$allocator@PAVCMailMsg@@@3@@2@U?$less@H@2@V?$allocator@PAVCMailMsg@@@2@@std@@QBE_NABV012@@Z 0046f070 f i chanlist.obj
 0001:0006e070       ??8iterator@?$_Tree@PAVCSkinCtrl@@PAV1@U_Kfn@?$set@PAVCSkinCtrl@@U?$less@PAVCSkinCtrl@@@std@@V?$allocator@PAVCSkinCtrl@@@3@@std@@U?$less@PAVCSkinCtrl@@@4@V?$allocator@PAVCSkinCtrl@@@4@@std@@QBE_NABV012@@Z 0046f070 f i chanlist.obj
 0001:0006e070       ??8iterator@?$_Tree@VCSkinObj@@U?$pair@$$CBVCSkinObj@@PAVCSkinCtrl@@@std@@U_Kfn@?$map@VCSkinObj@@PAVCSkinCtrl@@U?$less@VCSkinObj@@@std@@V?$allocator@PAVCSkinCtrl@@@4@@3@U?$less@VCSkinObj@@@3@V?$allocator@PAVCSkinCtrl@@@3@@std@@QBE_NABV012@@Z 0046f070 f i chanlist.obj
 0001:0006e090       ??_ECGossipWnd@@WJE@AEPAXI@Z 0046f090 f i chanlist.obj
 0001:0006e0a0       ??_ECChMemberListCtrl@@WEA@AEPAXI@Z 0046f0a0 f i chanlist.obj
 0001:0006e0b0       ??_ECChMemberListCtrl@@WHE@AEPAXI@Z 0046f0b0 f i chanlist.obj
 0001:0006e0c0       ??_ECChBannedListCtrl@@WEA@AEPAXI@Z 0046f0c0 f i chanlist.obj
 0001:0006e0d0       ??_ECChBannedListCtrl@@WHE@AEPAXI@Z 0046f0d0 f i chanlist.obj
 0001:0006e0e0       ??_ECChannelListCtrl@@WEA@AEPAXI@Z 0046f0e0 f i chanlist.obj
 0001:0006e0f0       ??_ECChannelListCtrl@@WHE@AEPAXI@Z 0046f0f0 f i chanlist.obj
 0001:0006e100       ?GetItemCount@CListCtrl@@QBEHXZ 0046f100 f i chanlist.obj
 0001:0006e130       ?SortItems@CListCtrl@@QAEHP6GHJJJ@ZK@Z 0046f130 f i chanlist.obj
 0001:0006e160       ?LimitText@CRichEditCtrl@@QAEXJ@Z 0046f160 f i chanlist.obj
 0001:0006e190       ?SetSelectionMark@CListCtrl@@QAEHH@Z 0046f190 f i chanlist.obj
 0001:0006e1c0       ?SetTabWindow@CMainPanelWnd@@QAEXHPAVCWnd@@@Z 0046f1c0 f i chanlist.obj
 0001:0006e1f0       ?AlertTab@CMainPanelWnd@@QAEXH@Z 0046f1f0 f i chanlist.obj
 0001:0006e220       ?get_TabDisplay@CToonSettings@@QAEHXZ 0046f220 f i chanlist.obj
 0001:0006e220       ?Priority@ScreenItem@@QBEHXZ 0046f220 f i chanlist.obj
 0001:0006e240       ?setChannel_AttemptJoin@CToonSettings@@QAEXH@Z 0046f240 f i chanlist.obj
 0001:0006e260       ?getChannel_Title@CToonSettings@@QAE?AVCString@@XZ 0046f260 f i chanlist.obj
 0001:0006e2a0       ?getChannel_Leader@CToonSettings@@QAE_NXZ 0046f2a0 f i chanlist.obj
 0001:0006e443       ?judgeValue@@YA?AVCString@@H@Z 0046f443 f   charmake.obj
 0001:0006e550       ??0CToonMakeWndBase@@QAE@XZ 0046f550 f   charmake.obj
 0001:0006e5f6       ?CloseSelf@CToonMakeWndBase@@UAEX_N@Z 0046f5f6 f   charmake.obj
 0001:0006e60f       ?TogglePeace@CToonMakeWndBase@@QAE_NXZ 0046f60f f   charmake.obj
 0001:0006e63c       ?CheckNames@CToonMakeWndBase@@QAE_NXZ 0046f63c f   charmake.obj
 0001:0006e7b8       ?Create@CToonMakeWndBase@@QAEHPBD@Z 0046f7b8 f   charmake.obj
 0001:0006ea2f       ?MakeSkinCtrl@CToonMakeWndBase@@UAEPAVCSkinCtrl@@VCSkinObj@@@Z 0046fa2f f   charmake.obj
 0001:0006f4c3       ??0CToonMakeWnd@@QAE@XZ    004704c3 f   charmake.obj
 0001:0006f544       ??0CToonMakeWnd@@QAE@VObjectID@@00000@Z 00470544 f   charmake.obj
 0001:0006f682       ?Create@CToonMakeWnd@@QAEHXZ 00470682 f   charmake.obj
 0001:0006f8bc       ?UpdateStats@CToonMakeWnd@@UAEXXZ 004708bc f   charmake.obj
 0001:0006f9dc       ?UpdateBitmaps@CToonMakeWnd@@UAEXXZ 004709dc f   charmake.obj
 0001:0006fc9b       ?MakeSkinCtrl@CToonMakeWnd@@UAEPAVCSkinCtrl@@VCSkinObj@@@Z 00470c9b f   charmake.obj
 0001:0006fed1       ?Previous@CToonMakeWnd@@UAEXXZ 00470ed1 f   charmake.obj
 0001:0006ff0a       ?Next@CToonMakeWnd@@UAEXXZ 00470f0a f   charmake.obj
 0001:0006ff9a       ?FeatureUp@CToonMakeWnd@@QAEXH@Z 00470f9a f   charmake.obj
 0001:0007000a       ?FeatureDown@CToonMakeWnd@@QAEXH@Z 0047100a f   charmake.obj
 0001:0007007a       ?RaceUp@CToonMakeWnd@@QAEXXZ 0047107a f   charmake.obj
 0001:000701a5       ?RaceDown@CToonMakeWnd@@QAEXXZ 004711a5 f   charmake.obj
 0001:000702d0       ?Sex@CToonMakeWnd@@QAEXXZ  004712d0 f   charmake.obj
 0001:00070304       ?Resize@CToonMakeWnd@@QAEXXZ 00471304 f   charmake.obj
 0001:0007035e       ?Random@CToonMakeWnd@@QAEXXZ 0047135e f   charmake.obj
 0001:000704af       ??0CToonAttributeWnd@@QAE@XZ 004714af f   charmake.obj
 0001:000704db       ?Create@CToonAttributeWnd@@QAEHXZ 004714db f   charmake.obj
 0001:000705c4       ?ChangeAvailble@CToonAttributeWnd@@QAEXH@Z 004715c4 f   charmake.obj
 0001:00070754       ?ChangeProfession@CToonAttributeWnd@@QAEXHH@Z 00471754 f   charmake.obj
 0001:00070a3e       ?UpdateBitmaps@CToonAttributeWnd@@UAEXXZ 00471a3e f   charmake.obj
 0001:00070bce       ?UpdateStats@CToonAttributeWnd@@UAEXXZ 00471bce f   charmake.obj
 0001:00071025       ?UpdateText@CToonAttributeWnd@@UAEXXZ 00472025 f   charmake.obj
 0001:00071354       ?Previous@CToonAttributeWnd@@UAEXXZ 00472354 f   charmake.obj
 0001:000713e4       ?Next@CToonAttributeWnd@@UAEXXZ 004723e4 f   charmake.obj
 0001:00071509       ?MakeSkinCtrl@CToonAttributeWnd@@UAEPAVCSkinCtrl@@VCSkinObj@@@Z 00472509 f   charmake.obj
 0001:00071ce3       ??0CToonBioWnd@@QAE@XZ     00472ce3 f   charmake.obj
 0001:00071d0b       ?CloseSelf@CToonBioWnd@@UAEX_N@Z 00472d0b f   charmake.obj
 0001:00071d2e       ?Create@CToonBioWnd@@QAEHXZ 00472d2e f   charmake.obj
 0001:00071e1f       ?MakeSkinCtrl@CToonBioWnd@@UAEPAVCSkinCtrl@@VCSkinObj@@@Z 00472e1f f   charmake.obj
 0001:00071fa0       ?UpdateStats@CToonBioWnd@@UAEXXZ 00472fa0 f   charmake.obj
 0001:00071fda       ?UpdateBitmaps@CToonBioWnd@@UAEXXZ 00472fda f   charmake.obj
 0001:00072299       ?Previous@CToonBioWnd@@UAEXXZ 00473299 f   charmake.obj
 0001:00072364       ?Next@CToonBioWnd@@UAEXXZ  00473364 f   charmake.obj
 0001:00072528       ??0CToonMakeFeatureUpBtn@@QAE@VCSkinObj@@PAVCSkinWnd@@@Z 00473528 f   charmake.obj
 0001:000725f6       ?OnActivate@CToonMakeFeatureUpBtn@@UAEXFF@Z 004735f6 f   charmake.obj
 0001:0007261e       ??0CToonMakeFeatureDownBtn@@QAE@VCSkinObj@@PAVCSkinWnd@@@Z 0047361e f   charmake.obj
 0001:000726ec       ?OnActivate@CToonMakeFeatureDownBtn@@UAEXFF@Z 004736ec f   charmake.obj
 0001:00072714       ??0CToonMakeRaceUpBtn@@QAE@VCSkinObj@@PAVCSkinWnd@@@Z 00473714 f   charmake.obj
 0001:00072787       ?OnActivate@CToonMakeRaceUpBtn@@UAEXFF@Z 00473787 f   charmake.obj
 0001:000727a8       ??0CToonMakeRaceDownBtn@@QAE@VCSkinObj@@PAVCSkinWnd@@@Z 004737a8 f   charmake.obj
 0001:0007281b       ?OnActivate@CToonMakeRaceDownBtn@@UAEXFF@Z 0047381b f   charmake.obj
 0001:0007283c       ??0CToonMakeSexBtn@@QAE@VCSkinObj@@PAVCSkinWnd@@@Z 0047383c f   charmake.obj
 0001:000728af       ?OnActivate@CToonMakeSexBtn@@UAEXFF@Z 004738af f   charmake.obj
 0001:000728d0       ??0CToonMakeRandomBtn@@QAE@VCSkinObj@@PAVCSkinWnd@@@Z 004738d0 f   charmake.obj
 0001:00072943       ?OnActivate@CToonMakeRandomBtn@@UAEXFF@Z 00473943 f   charmake.obj
 0001:00072964       ??0CSkinSizeAttribute@@QAE@VCSkinObj@@PAVCSkinWnd@@@Z 00473964 f   charmake.obj
 0001:000729d7       ?ChangeValue@CSkinSizeAttribute@@UAEXH@Z 004739d7 f   charmake.obj
 0001:00072a04       ??0CSkinToonAttribute@@QAE@VCSkinObj@@PAVCSkinWnd@@@Z 00473a04 f   charmake.obj
 0001:00072a77       ?ChangeValue@CSkinToonAttribute@@UAEXH@Z 00473a77 f   charmake.obj
 0001:00072afe       ??0CSkinProfAttribute@@QAE@VCSkinObj@@PAVCSkinWnd@@@Z 00473afe f   charmake.obj
 0001:00072b71       ?ChangeValue@CSkinProfAttribute@@UAEXH@Z 00473b71 f   charmake.obj
 0001:00072bd7       ??0CSkinAlignAttribute@@QAE@VCSkinObj@@PAVCSkinWnd@@@Z 00473bd7 f   charmake.obj
 0001:00072c4a       ?ChangeValue@CSkinAlignAttribute@@UAEXH@Z 00473c4a f   charmake.obj
 0001:00072cbe       ??0CSkinCombatAttribute@@QAE@VCSkinObj@@PAVCSkinWnd@@@Z 00473cbe f   charmake.obj
 0001:00072d31       ?ChangeValue@CSkinCombatAttribute@@UAEXH@Z 00473d31 f   charmake.obj
 0001:00072d80       ??_GCToonMakeWndBase@@UAEPAXI@Z 00473d80 f i charmake.obj
 0001:00072d80       ??_ECToonMakeWndBase@@UAEPAXI@Z 00473d80 f i charmake.obj
 0001:00072db0       ??1CToonMakeWndBase@@UAE@XZ 00473db0 f i charmake.obj
 0001:00072e10       ??4CSkinObj@@QAEAAV0@ABV0@@Z 00473e10 f i charmake.obj
 0001:00072e30       ??_ECToonMakeWnd@@UAEPAXI@Z 00473e30 f i charmake.obj
 0001:00072e30       ??_GCToonMakeWnd@@UAEPAXI@Z 00473e30 f i charmake.obj
 0001:00072e60       ??1CToonMakeWnd@@UAE@XZ    00473e60 f i charmake.obj
 0001:00072ec0       ??0CSCI_fNFace@@QAE@ABV0@@Z 00473ec0 f i charmake.obj
 0001:00072ee0       ??_ECToonAttributeWnd@@UAEPAXI@Z 00473ee0 f i charmake.obj
 0001:00072ee0       ??_GCToonAttributeWnd@@UAEPAXI@Z 00473ee0 f i charmake.obj
 0001:00072f10       ??1CToonAttributeWnd@@UAE@XZ 00473f10 f i charmake.obj
 0001:00072f30       ??0CSCI_BCharacter@@QAE@ABV0@@Z 00473f30 f i charmake.obj
 0001:00072f50       ?GetLength@CString@@QBEHXZ 00473f50 f i charmake.obj
 0001:00072f70       ??_GCToonBioWnd@@UAEPAXI@Z 00473f70 f i charmake.obj
 0001:00072f70       ??_ECToonBioWnd@@UAEPAXI@Z 00473f70 f i charmake.obj
 0001:00072fa0       ??1CToonBioWnd@@UAE@XZ     00473fa0 f i charmake.obj
 0001:00072fc0       ??9@YG_NABVCString@@PBD@Z  00473fc0 f i charmake.obj
 0001:00072fe0       ??1CSkinSizeAttribute@@UAE@XZ 00473fe0 f i charmake.obj
 0001:00072fe0       ??1CSkinAlignAttribute@@UAE@XZ 00473fe0 f i charmake.obj
 0001:00072fe0       ??1CSkinProfAttribute@@UAE@XZ 00473fe0 f i charmake.obj
 0001:00073000       ??1CSkinAttribute@@UAE@XZ  00474000 f i charmake.obj
 0001:00073020       ??_ECSkinToonAttribute@@UAEPAXI@Z 00474020 f i charmake.obj
 0001:00073020       ??_GCSkinToonAttribute@@UAEPAXI@Z 00474020 f i charmake.obj
 0001:00073050       ??1CSkinToonAttribute@@UAE@XZ 00474050 f i charmake.obj
 0001:00073070       ??_GCSkinSizeAttribute@@UAEPAXI@Z 00474070 f i charmake.obj
 0001:00073070       ??_ECSkinAlignAttribute@@UAEPAXI@Z 00474070 f i charmake.obj
 0001:00073070       ??_GCSkinAlignAttribute@@UAEPAXI@Z 00474070 f i charmake.obj
 0001:00073070       ??_GCSkinProfAttribute@@UAEPAXI@Z 00474070 f i charmake.obj
 0001:00073070       ??_ECSkinSizeAttribute@@UAEPAXI@Z 00474070 f i charmake.obj
 0001:00073070       ??_ECSkinProfAttribute@@UAEPAXI@Z 00474070 f i charmake.obj
 0001:000730a0       ??_ECSkinCombatAttribute@@UAEPAXI@Z 004740a0 f i charmake.obj
 0001:000730a0       ??_GCSkinCombatAttribute@@UAEPAXI@Z 004740a0 f i charmake.obj
 0001:000730d0       ??1CSkinCombatAttribute@@UAE@XZ 004740d0 f i charmake.obj
 0001:000730f0       ?get_xScaleAdj@CSCI_Feature@@QAEFXZ 004740f0 f i charmake.obj
 0001:00073110       ?set_xScaleAdj@CSCI_Feature@@QAEXF@Z 00474110 f i charmake.obj
 0001:00073130       ?get_yScaleAdj@CSCI_Feature@@QAEFXZ 00474130 f i charmake.obj
 0001:00073150       ?set_yScaleAdj@CSCI_Feature@@QAEXF@Z 00474150 f i charmake.obj
 0001:00073170       ?get_pProfession@CSCI_BCharacter@@QAEFXZ 00474170 f i charmake.obj
 0001:00073190       ?set_pProfession@CSCI_BCharacter@@QAEXF@Z 00474190 f i charmake.obj
 0001:000731b0       ?get_pRace@CSCI_BHead@@QAEFXZ 004741b0 f i charmake.obj
 0001:000731b0       ?get_pRace@CSCI_BCharacter@@QAEFXZ 004741b0 f i charmake.obj
 0001:000731d0       ?set_pPeaceful@CSCI_BCharacter@@QAEXF@Z 004741d0 f i charmake.obj
 0001:000731f0       ?get_pStrength@CSCI_CharInfo@@QAEFXZ 004741f0 f i charmake.obj
 0001:000731f0       ?get_pStrength@CSCI_WorldObject@@QAEFXZ 004741f0 f i charmake.obj
 0001:00073210       ?set_pStrength@CSCI_WorldObject@@QAEXF@Z 00474210 f i charmake.obj
 0001:00073230       ?get_pDexterity@CSCI_CharInfo@@QAEFXZ 00474230 f i charmake.obj
 0001:00073230       ?get_pDexterity@CSCI_WorldObject@@QAEFXZ 00474230 f i charmake.obj
 0001:00073250       ?set_pDexterity@CSCI_WorldObject@@QAEXF@Z 00474250 f i charmake.obj
 0001:00073270       ?set_pIntelligence@CSCI_WorldObject@@QAEXF@Z 00474270 f i charmake.obj
 0001:00073290       ?set_pEndurance@CSCI_WorldObject@@QAEXF@Z 00474290 f i charmake.obj
 0001:000732b0       ?set_pAlignment@CSCI_WorldObject@@QAEXF@Z 004742b0 f i charmake.obj
 0001:000732d0       ?get_pHead@CSCI_WorldActor@@QAEFXZ 004742d0 f i charmake.obj
 0001:000732f0       ??0CSCI_fNBody@@QAE@ABVObjectID@@@Z 004742f0 f i charmake.obj
 0001:00073310       ??0CSCI_WorldEgo@@QAE@ABVMemID@@@Z 00474310 f i charmake.obj
 0001:00073330       ??0CSCI_WorldActor@@QAE@ABVObjectID@@@Z 00474330 f i charmake.obj
 0001:00073330       ??0CSCI_WorldActor@@QAE@ABVMemID@@@Z 00474330 f i charmake.obj
 0001:00073350       ??0CSCI_fNBody@@QAE@G@Z    00474350 f i charmake.obj
 0001:00073370       ??0CSCI_WorldEgo@@QAE@G@Z  00474370 f i charmake.obj
 0001:00073390       ??0CSCI_WorldActor@@QAE@G@Z 00474390 f i charmake.obj
 0001:00073390       ??0CSCI_fNFace@@QAE@G@Z    00474390 f i charmake.obj
 0001:000733b0       ?SetBase@CSkinAttribute@@QAEXH@Z 004743b0 f i charmake.obj
 0001:00073418       ??0CCharSelectWnd@@QAE@XZ  00474418 f   charsel.obj
 0001:000735c6       ??1CCharSelectWnd@@UAE@XZ  004745c6 f   charsel.obj
 0001:00073857       ?Create@CCharSelectWnd@@QAEHPAVCWnd@@@Z 00474857 f   charsel.obj
 0001:00073cbb       ?AddPlayButton@CCharSelectWnd@@QAEHVCSCI_WorldActor@@@Z 00474cbb f   charsel.obj
 0001:000742fc       ?AddCreateButton@CCharSelectWnd@@QAEHXZ 004752fc f   charsel.obj
 0001:000743bf       ?MakeSkinCtrl@CCharSelectWnd@@UAEPAVCSkinCtrl@@VCSkinObj@@@Z 004753bf f   charsel.obj
 0001:00074626       ?MoveHighlight@CCharSelectWnd@@QAEHHPAVCSkinCtrl@@@Z 00475626 f   charsel.obj
 0001:000748d5       ?GetHighlightPosn@CCharSelectWnd@@QAEHXZ 004758d5 f   charsel.obj
 0001:000748e9       ?GetHighlightOwner@CCharSelectWnd@@QAEPAVCSkinCtrl@@XZ 004758e9 f   charsel.obj
 0001:000748fd       ?LockHighlight@CCharSelectWnd@@QAEHXZ 004758fd f   charsel.obj
 0001:0007491a       ?UnlockHighlight@CCharSelectWnd@@QAEHXZ 0047591a f   charsel.obj
 0001:00074937       ?GetCharacterName@CCharSelectWnd@@QAE?AVCString@@H@Z 00475937 f   charsel.obj
 0001:00074976       ?GetCharacter@CCharSelectWnd@@QAE?AVCSCI_WorldActor@@H@Z 00475976 f   charsel.obj
 0001:000749a1       ?EnterGame@CCharSelectWnd@@QAEXVCSCI_WorldObject@@@Z 004759a1 f   charsel.obj
 0001:00074ab4       ?HandleVerb@CCharSelectWnd@@UAEHHVCSCI_WorldObject@@@Z 00475ab4 f   charsel.obj
 0001:00074bf3       ??0CCharSelPlayBtn@@QAE@VCSkinObj@@PAVCSkinWnd@@@Z 00475bf3 f   charsel.obj
 0001:00074cc4       ??1CCharSelPlayBtn@@UAE@XZ 00475cc4 f   charsel.obj
 0001:00074ce0       ?ShowHighlighted@CCharSelPlayBtn@@UAEXXZ 00475ce0 f   charsel.obj
 0001:00074d11       ?ShowNormal@CCharSelPlayBtn@@UAEXXZ 00475d11 f   charsel.obj
 0001:00074d48       ?ShowPressed@CCharSelPlayBtn@@UAEXXZ 00475d48 f   charsel.obj
 0001:00074d79       ?OnActivate@CCharSelPlayBtn@@UAEXFF@Z 00475d79 f   charsel.obj
 0001:00074de9       ??0CCharSelCreateBtn@@QAE@VCSkinObj@@PAVCSkinWnd@@@Z 00475de9 f   charsel.obj
 0001:00074e5c       ??1CCharSelCreateBtn@@UAE@XZ 00475e5c f   charsel.obj
 0001:00074e78       ?OnActivate@CCharSelCreateBtn@@UAEXFF@Z 00475e78 f   charsel.obj
 0001:00074ee3       ??0CCharSelHotSpot@@QAE@VCSkinObj@@PAVCSkinWnd@@@Z 00475ee3 f   charsel.obj
 0001:00074fb4       ??1CCharSelHotSpot@@UAE@XZ 00475fb4 f   charsel.obj
 0001:00074fd0       ?ShowHighlighted@CCharSelHotSpot@@UAEXXZ 00475fd0 f   charsel.obj
 0001:00075001       ?ShowNormal@CCharSelHotSpot@@UAEXXZ 00476001 f   charsel.obj
 0001:00075038       ?ShowPressed@CCharSelHotSpot@@UAEXXZ 00476038 f   charsel.obj
 0001:00075069       ?OnActivate@CCharSelHotSpot@@UAEXFF@Z 00476069 f   charsel.obj
 0001:00075176       ?_GetBaseMessageMap@CEraseDlg@@KGPBUAFX_MSGMAP@@XZ 00476176 f   charsel.obj
 0001:00075180       ?GetMessageMap@CEraseDlg@@MBEPBUAFX_MSGMAP@@XZ 00476180 f   charsel.obj
 0001:00075190       ??0CEraseDlg@@QAE@XZ       00476190 f   charsel.obj
 0001:000751f7       ?Create@CEraseDlg@@QAEHVCSCI_WorldObject@@@Z 004761f7 f   charsel.obj
 0001:00075391       ?MakeSkinCtrl@CEraseDlg@@UAEPAVCSkinCtrl@@VCSkinObj@@@Z 00476391 f   charsel.obj
 0001:00075685       ?OnResize@CEraseDlg@@QAEXPAUtagNMHDR@@PAJ@Z 00476685 f   charsel.obj
 0001:00075723       ??0CEraseToonBtn@@QAE@VCSkinObj@@PAVCSkinWnd@@VCSCI_WorldObject@@@Z 00476723 f   charsel.obj
 0001:000757b0       ?OnActivate@CEraseToonBtn@@UAEXFF@Z 004767b0 f   charsel.obj
 0001:00075800       ??_ECCharSelectWnd@@UAEPAXI@Z 00476800 f i charsel.obj
 0001:00075800       ??_GCCharSelectWnd@@UAEPAXI@Z 00476800 f i charsel.obj
 0001:00075830       ??0CSCI_WorldActor@@QAE@ABV0@@Z 00476830 f i charsel.obj
 0001:00075850       ??_ECCharSelPlayBtn@@UAEPAXI@Z 00476850 f i charsel.obj
 0001:00075850       ??_GCCharSelPlayBtn@@UAEPAXI@Z 00476850 f i charsel.obj
 0001:00075880       ??_ECCharSelCreateBtn@@UAEPAXI@Z 00476880 f i charsel.obj
 0001:00075880       ??_GCCharSelCreateBtn@@UAEPAXI@Z 00476880 f i charsel.obj
 0001:000758b0       ??_GCCharSelHotSpot@@UAEPAXI@Z 004768b0 f i charsel.obj
 0001:000758b0       ??_ECCharSelHotSpot@@UAEPAXI@Z 004768b0 f i charsel.obj
 0001:000758e0       ??_GCEraseDlg@@UAEPAXI@Z   004768e0 f i charsel.obj
 0001:000758e0       ??_ECEraseDlg@@UAEPAXI@Z   004768e0 f i charsel.obj
 0001:00075910       ??1CEraseDlg@@UAE@XZ       00476910 f i charsel.obj
 0001:00075930       ??A?$bitset@$04@std@@QAE?AVreference@01@I@Z 00476930 f i charsel.obj
 0001:00075960       ??Breference@?$bitset@$04@std@@QBE_NXZ 00476960 f i charsel.obj
 0001:00075980       ??1?$vector@PAVCSkinCtrl@@V?$allocator@PAVCSkinCtrl@@@std@@@std@@QAE@XZ 00476980 f i charsel.obj
 0001:000759e0       ?push_back@?$vector@PAVCSkinCtrl@@V?$allocator@PAVCSkinCtrl@@@std@@@std@@QAEXABQAVCSkinCtrl@@@Z 004769e0 f i charsel.obj
 0001:00075a10       ??1?$vector@VCSkinObj@@V?$allocator@VCSkinObj@@@std@@@std@@QAE@XZ 00476a10 f i charsel.obj
 0001:00075a70       ??A?$vector@VCSkinObj@@V?$allocator@VCSkinObj@@@std@@@std@@QAEAAVCSkinObj@@I@Z 00476a70 f i charsel.obj
 0001:00075a90       ?push_back@?$vector@VCSkinObj@@V?$allocator@VCSkinObj@@@std@@@std@@QAEXABVCSkinObj@@@Z 00476a90 f i charsel.obj
 0001:00075ac0       ?push_back@?$vector@PAVCSkinBitmap@@V?$allocator@PAVCSkinBitmap@@@std@@@std@@QAEXABQAVCSkinBitmap@@@Z 00476ac0 f i charsel.obj
 0001:00075af0       ??1?$vector@PAVCSkinBitmap@@V?$allocator@PAVCSkinBitmap@@@std@@@std@@QAE@XZ 00476af0 f i charsel.obj
 0001:00075af0       ??1?$vector@PAVCSCIObjectMethodPair@@V?$allocator@PAVCSCIObjectMethodPair@@@std@@@std@@QAE@XZ 00476af0 f i charsel.obj
 0001:00075af0       ??1?$vector@PAVCTabEntry@@V?$allocator@PAVCTabEntry@@@std@@@std@@QAE@XZ 00476af0 f i charsel.obj
 0001:00075af0       ??1?$vector@PAVCPoint@@V?$allocator@PAVCPoint@@@std@@@std@@QAE@XZ 00476af0 f i charsel.obj
 0001:00075b50       ?push_back@?$vector@PAVCPoint@@V?$allocator@PAVCPoint@@@std@@@std@@QAEXABQAVCPoint@@@Z 00476b50 f i charsel.obj
 0001:00075b80       ??0?$vector@PAVCVerbBtn@@V?$allocator@PAVCVerbBtn@@@std@@@std@@QAE@ABV?$allocator@PAVCVerbBtn@@@1@@Z 00476b80 f i charsel.obj
 0001:00075b80       ??0?$vector@PAVCSCIObjectMethodPair@@V?$allocator@PAVCSCIObjectMethodPair@@@std@@@std@@QAE@ABV?$allocator@PAVCSCIObjectMethodPair@@@1@@Z 00476b80 f i charsel.obj
 0001:00075b80       ??0?$vector@VCSCI_WorldActor@@V?$allocator@VCSCI_WorldActor@@@std@@@std@@QAE@ABV?$allocator@VCSCI_WorldActor@@@1@@Z 00476b80 f i charsel.obj
 0001:00075b80       ??0?$vector@PAVCSkinCtrl@@V?$allocator@PAVCSkinCtrl@@@std@@@std@@QAE@ABV?$allocator@PAVCSkinCtrl@@@1@@Z 00476b80 f i charsel.obj
 0001:00075b80       ??0?$vector@PAVCTabBtn@@V?$allocator@PAVCTabBtn@@@std@@@std@@QAE@ABV?$allocator@PAVCTabBtn@@@1@@Z 00476b80 f i charsel.obj
 0001:00075b80       ??0?$vector@PAVCPoint@@V?$allocator@PAVCPoint@@@std@@@std@@QAE@ABV?$allocator@PAVCPoint@@@1@@Z 00476b80 f i charsel.obj
 0001:00075b80       ??0?$vector@PAVCSCIObjectMethod@@V?$allocator@PAVCSCIObjectMethod@@@std@@@std@@QAE@ABV?$allocator@PAVCSCIObjectMethod@@@1@@Z 00476b80 f i charsel.obj
 0001:00075b80       ??0?$vector@PAVCSkinBitmap@@V?$allocator@PAVCSkinBitmap@@@std@@@std@@QAE@ABV?$allocator@PAVCSkinBitmap@@@1@@Z 00476b80 f i charsel.obj
 0001:00075b80       ??0?$vector@VCSkinObj@@V?$allocator@VCSkinObj@@@std@@@std@@QAE@ABV?$allocator@VCSkinObj@@@1@@Z 00476b80 f i charsel.obj
 0001:00075b80       ??0?$vector@PAVCTabEntry@@V?$allocator@PAVCTabEntry@@@std@@@std@@QAE@ABV?$allocator@PAVCTabEntry@@@1@@Z 00476b80 f i charsel.obj
 0001:00075bc0       ??1?$vector@VCSCI_WorldActor@@V?$allocator@VCSCI_WorldActor@@@std@@@std@@QAE@XZ 00476bc0 f i charsel.obj
 0001:00075c20       ??A?$vector@VCSCI_WorldActor@@V?$allocator@VCSCI_WorldActor@@@std@@@std@@QAEAAVCSCI_WorldActor@@I@Z 00476c20 f i charsel.obj
 0001:00075c40       ?push_back@?$vector@VCSCI_WorldActor@@V?$allocator@VCSCI_WorldActor@@@std@@@std@@QAEXABVCSCI_WorldActor@@@Z 00476c40 f i charsel.obj
 0001:00075c70       ?test@?$bitset@$04@std@@QBE_NI@Z 00476c70 f i charsel.obj
 0001:00075cc0       ??0SOL_Point@@QAE@HH@Z     00476cc0 f i charsel.obj
 0001:00075cc0       ??0CPoint@@QAE@HH@Z        00476cc0 f i charsel.obj
 0001:00075cc0       ??0Ratio@@QAE@HH@Z         00476cc0 f i charsel.obj
 0001:00075cc0       ??0reference@?$bitset@$04@std@@AAE@AAV12@I@Z 00476cc0 f i charsel.obj
 0001:00075cf0       ?insert@?$vector@PAVCSkinCtrl@@V?$allocator@PAVCSkinCtrl@@@std@@@std@@QAEPAPAVCSkinCtrl@@PAPAV3@ABQAV3@@Z 00476cf0 f i charsel.obj
 0001:00075d40       ?_Destroy@?$vector@PAVCSkinCtrl@@V?$allocator@PAVCSkinCtrl@@@std@@@std@@IAEXPAPAVCSkinCtrl@@0@Z 00476d40 f i charsel.obj
 0001:00075d70       ?insert@?$vector@VCSkinObj@@V?$allocator@VCSkinObj@@@std@@@std@@QAEPAVCSkinObj@@PAV3@ABV3@@Z 00476d70 f i charsel.obj
 0001:00075dc0       ?_Destroy@?$vector@VCSkinObj@@V?$allocator@VCSkinObj@@@std@@@std@@IAEXPAVCSkinObj@@0@Z 00476dc0 f i charsel.obj
 0001:00075df0       ?insert@?$vector@PAVCSkinBitmap@@V?$allocator@PAVCSkinBitmap@@@std@@@std@@QAEPAPAVCSkinBitmap@@PAPAV3@ABQAV3@@Z 00476df0 f i charsel.obj
 0001:00075e40       ?insert@?$vector@PAVCPoint@@V?$allocator@PAVCPoint@@@std@@@std@@QAEPAPAVCPoint@@PAPAV3@ABQAV3@@Z 00476e40 f i charsel.obj
 0001:00075e90       ?erase@?$vector@PAVCTabEntry@@V?$allocator@PAVCTabEntry@@@std@@@std@@QAEPAPAVCTabEntry@@PAPAV3@0@Z 00476e90 f i charsel.obj
 0001:00075e90       ?erase@?$vector@PAVCSCIObjectMethod@@V?$allocator@PAVCSCIObjectMethod@@@std@@@std@@QAEPAPAVCSCIObjectMethod@@PAPAV3@0@Z 00476e90 f i charsel.obj
 0001:00075e90       ?erase@?$vector@PAVCTabBtn@@V?$allocator@PAVCTabBtn@@@std@@@std@@QAEPAPAVCTabBtn@@PAPAV3@0@Z 00476e90 f i charsel.obj
 0001:00075e90       ?erase@?$vector@PAVCSkinBitmap@@V?$allocator@PAVCSkinBitmap@@@std@@@std@@QAEPAPAVCSkinBitmap@@PAPAV3@0@Z 00476e90 f i charsel.obj
 0001:00075e90       ?erase@?$vector@PAVCSCIObjectMethodPair@@V?$allocator@PAVCSCIObjectMethodPair@@@std@@@std@@QAEPAPAVCSCIObjectMethodPair@@PAPAV3@0@Z 00476e90 f i charsel.obj
 0001:00075e90       ?erase@?$vector@PAVCPoint@@V?$allocator@PAVCPoint@@@std@@@std@@QAEPAPAVCPoint@@PAPAV3@0@Z 00476e90 f i charsel.obj
 0001:00075ee0       ?_Destroy@?$vector@PAVCPoint@@V?$allocator@PAVCPoint@@@std@@@std@@IAEXPAPAVCPoint@@0@Z 00476ee0 f i charsel.obj
 0001:00075ee0       ?_Destroy@?$vector@PAVCTabBtn@@V?$allocator@PAVCTabBtn@@@std@@@std@@IAEXPAPAVCTabBtn@@0@Z 00476ee0 f i charsel.obj
 0001:00075ee0       ?_Destroy@?$vector@PAVCSkinBitmap@@V?$allocator@PAVCSkinBitmap@@@std@@@std@@IAEXPAPAVCSkinBitmap@@0@Z 00476ee0 f i charsel.obj
 0001:00075ee0       ?_Destroy@?$vector@PAVCSCIObjectMethod@@V?$allocator@PAVCSCIObjectMethod@@@std@@@std@@IAEXPAPAVCSCIObjectMethod@@0@Z 00476ee0 f i charsel.obj
 0001:00075ee0       ?_Destroy@?$vector@PAVCVerbBtn@@V?$allocator@PAVCVerbBtn@@@std@@@std@@IAEXPAPAVCVerbBtn@@0@Z 00476ee0 f i charsel.obj
 0001:00075ee0       ?_Destroy@?$vector@PAVCSCIObjectMethodPair@@V?$allocator@PAVCSCIObjectMethodPair@@@std@@@std@@IAEXPAPAVCSCIObjectMethodPair@@0@Z 00476ee0 f i charsel.obj
 0001:00075ee0       ?_Destroy@?$vector@PAVCTabEntry@@V?$allocator@PAVCTabEntry@@@std@@@std@@IAEXPAPAVCTabEntry@@0@Z 00476ee0 f i charsel.obj
 0001:00075f10       ?insert@?$vector@VCSCI_WorldActor@@V?$allocator@VCSCI_WorldActor@@@std@@@std@@QAEPAVCSCI_WorldActor@@PAV3@ABV3@@Z 00476f10 f i charsel.obj
 0001:00075f60       ?_Destroy@?$vector@VCSCI_WorldActor@@V?$allocator@VCSCI_WorldActor@@@std@@@std@@IAEXPAVCSCI_WorldActor@@0@Z 00476f60 f i charsel.obj
 0001:00075f90       ?destroy@?$allocator@PAVCSkinCtrl@@@std@@QAEXPAPAVCSkinCtrl@@@Z 00476f90 f i charsel.obj
 0001:00075fb0       ?_Xran@?$bitset@$04@std@@ABEXXZ 00476fb0 f i charsel.obj
 0001:00076010       ?insert@?$vector@PAVCSkinCtrl@@V?$allocator@PAVCSkinCtrl@@@std@@@std@@QAEXPAPAVCSkinCtrl@@IABQAV3@@Z 00477010 f i charsel.obj
 0001:00076230       ?insert@?$vector@VCSkinObj@@V?$allocator@VCSkinObj@@@std@@@std@@QAEXPAVCSkinObj@@IABV3@@Z 00477230 f i charsel.obj
 0001:00076450       ?destroy@?$allocator@VCSkinObj@@@std@@QAEXPAVCSkinObj@@@Z 00477450 f i charsel.obj
 0001:00076470       ?insert@?$vector@PAVCVerbBtn@@V?$allocator@PAVCVerbBtn@@@std@@@std@@QAEXPAPAVCVerbBtn@@IABQAV3@@Z 00477470 f i charsel.obj
 0001:00076470       ?insert@?$vector@PAVCSkinBitmap@@V?$allocator@PAVCSkinBitmap@@@std@@@std@@QAEXPAPAVCSkinBitmap@@IABQAV3@@Z 00477470 f i charsel.obj
 0001:00076470       ?insert@?$vector@PAVCPoint@@V?$allocator@PAVCPoint@@@std@@@std@@QAEXPAPAVCPoint@@IABQAV3@@Z 00477470 f i charsel.obj
 0001:00076470       ?insert@?$vector@PAVCSCIObjectMethodPair@@V?$allocator@PAVCSCIObjectMethodPair@@@std@@@std@@QAEXPAPAVCSCIObjectMethodPair@@IABQAV3@@Z 00477470 f i charsel.obj
 0001:00076690       ?insert@?$vector@VCSCI_WorldActor@@V?$allocator@VCSCI_WorldActor@@@std@@@std@@QAEXPAVCSCI_WorldActor@@IABV3@@Z 00477690 f i charsel.obj
 0001:000768a0       ?size@?$vector@VCSkinObj@@V?$allocator@VCSkinObj@@@std@@@std@@QBEIXZ 004778a0 f i charsel.obj
 0001:000768e0       ?_Ucopy@?$vector@VCSkinObj@@V?$allocator@VCSkinObj@@@std@@@std@@IAEPAVCSkinObj@@PBV3@0PAV3@@Z 004778e0 f i charsel.obj
 0001:00076920       ?_Ufill@?$vector@VCSkinObj@@V?$allocator@VCSkinObj@@@std@@@std@@IAEXPAVCSkinObj@@IABV3@@Z 00477920 f i charsel.obj
 0001:00076960       ?allocate@?$allocator@VCSkinObj@@@std@@QAEPAVCSkinObj@@IPBX@Z 00477960 f i charsel.obj
 0001:00076980       ?size@?$vector@PAVCTabBtn@@V?$allocator@PAVCTabBtn@@@std@@@std@@QBEIXZ 00477980 f i charsel.obj
 0001:00076980       ?size@?$vector@PAVCSkinBitmap@@V?$allocator@PAVCSkinBitmap@@@std@@@std@@QBEIXZ 00477980 f i charsel.obj
 0001:00076980       ?size@?$vector@PAVCSCIObjectMethod@@V?$allocator@PAVCSCIObjectMethod@@@std@@@std@@QBEIXZ 00477980 f i charsel.obj
 0001:00076980       ?size@?$vector@PAVCPoint@@V?$allocator@PAVCPoint@@@std@@@std@@QBEIXZ 00477980 f i charsel.obj
 0001:00076980       ?size@?$vector@PAVCVerbBtn@@V?$allocator@PAVCVerbBtn@@@std@@@std@@QBEIXZ 00477980 f i charsel.obj
 0001:00076980       ?size@?$vector@PAVCSCIObjectMethodPair@@V?$allocator@PAVCSCIObjectMethodPair@@@std@@@std@@QBEIXZ 00477980 f i charsel.obj
 0001:00076980       ?size@?$vector@PAVCTabEntry@@V?$allocator@PAVCTabEntry@@@std@@@std@@QBEIXZ 00477980 f i charsel.obj
 0001:00076980       ?size@?$vector@PAVCSkinCtrl@@V?$allocator@PAVCSkinCtrl@@@std@@@std@@QBEIXZ 00477980 f i charsel.obj
 0001:000769c0       ?_Ucopy@?$vector@PAVCSkinBitmap@@V?$allocator@PAVCSkinBitmap@@@std@@@std@@IAEPAPAVCSkinBitmap@@PBQAV3@0PAPAV3@@Z 004779c0 f i charsel.obj
 0001:000769c0       ?_Ucopy@?$vector@PAVCTabBtn@@V?$allocator@PAVCTabBtn@@@std@@@std@@IAEPAPAVCTabBtn@@PBQAV3@0PAPAV3@@Z 004779c0 f i charsel.obj
 0001:000769c0       ?_Ucopy@?$vector@PAVCPoint@@V?$allocator@PAVCPoint@@@std@@@std@@IAEPAPAVCPoint@@PBQAV3@0PAPAV3@@Z 004779c0 f i charsel.obj
 0001:000769c0       ?_Ucopy@?$vector@PAVCVerbBtn@@V?$allocator@PAVCVerbBtn@@@std@@@std@@IAEPAPAVCVerbBtn@@PBQAV3@0PAPAV3@@Z 004779c0 f i charsel.obj
 0001:000769c0       ?_Ucopy@?$vector@PAVCSCIObjectMethodPair@@V?$allocator@PAVCSCIObjectMethodPair@@@std@@@std@@IAEPAPAVCSCIObjectMethodPair@@PBQAV3@0PAPAV3@@Z 004779c0 f i charsel.obj
 0001:000769c0       ?_Ucopy@?$vector@PAVCTabEntry@@V?$allocator@PAVCTabEntry@@@std@@@std@@IAEPAPAVCTabEntry@@PBQAV3@0PAPAV3@@Z 004779c0 f i charsel.obj
 0001:000769c0       ?_Ucopy@?$vector@PAVCSCIObjectMethod@@V?$allocator@PAVCSCIObjectMethod@@@std@@@std@@IAEPAPAVCSCIObjectMethod@@PBQAV3@0PAPAV3@@Z 004779c0 f i charsel.obj
 0001:000769c0       ?_Ucopy@?$vector@PAVCSkinCtrl@@V?$allocator@PAVCSkinCtrl@@@std@@@std@@IAEPAPAVCSkinCtrl@@PBQAV3@0PAPAV3@@Z 004779c0 f i charsel.obj
 0001:00076a00       ?_Ufill@?$vector@PAVCSCIObjectMethodPair@@V?$allocator@PAVCSCIObjectMethodPair@@@std@@@std@@IAEXPAPAVCSCIObjectMethodPair@@IABQAV3@@Z 00477a00 f i charsel.obj
 0001:00076a00       ?_Ufill@?$vector@PAVCSkinBitmap@@V?$allocator@PAVCSkinBitmap@@@std@@@std@@IAEXPAPAVCSkinBitmap@@IABQAV3@@Z 00477a00 f i charsel.obj
 0001:00076a00       ?_Ufill@?$vector@PAVCVerbBtn@@V?$allocator@PAVCVerbBtn@@@std@@@std@@IAEXPAPAVCVerbBtn@@IABQAV3@@Z 00477a00 f i charsel.obj
 0001:00076a00       ?_Ufill@?$vector@PAVCSkinCtrl@@V?$allocator@PAVCSkinCtrl@@@std@@@std@@IAEXPAPAVCSkinCtrl@@IABQAV3@@Z 00477a00 f i charsel.obj
 0001:00076a00       ?_Ufill@?$vector@PAVCSCIObjectMethod@@V?$allocator@PAVCSCIObjectMethod@@@std@@@std@@IAEXPAPAVCSCIObjectMethod@@IABQAV3@@Z 00477a00 f i charsel.obj
 0001:00076a00       ?_Ufill@?$vector@PAVCTabBtn@@V?$allocator@PAVCTabBtn@@@std@@@std@@IAEXPAPAVCTabBtn@@IABQAV3@@Z 00477a00 f i charsel.obj
 0001:00076a00       ?_Ufill@?$vector@PAVCPoint@@V?$allocator@PAVCPoint@@@std@@@std@@IAEXPAPAVCPoint@@IABQAV3@@Z 00477a00 f i charsel.obj
 0001:00076a00       ?_Ufill@?$vector@PAVCTabEntry@@V?$allocator@PAVCTabEntry@@@std@@@std@@IAEXPAPAVCTabEntry@@IABQAV3@@Z 00477a00 f i charsel.obj
 0001:00076a40       ?size@?$vector@VCSCI_WorldActor@@V?$allocator@VCSCI_WorldActor@@@std@@@std@@QBEIXZ 00477a40 f i charsel.obj
 0001:00076a80       ?_Ucopy@?$vector@VCSCI_WorldActor@@V?$allocator@VCSCI_WorldActor@@@std@@@std@@IAEPAVCSCI_WorldActor@@PBV3@0PAV3@@Z 00477a80 f i charsel.obj
 0001:00076ac0       ?_Ufill@?$vector@VCSCI_WorldActor@@V?$allocator@VCSCI_WorldActor@@@std@@@std@@IAEXPAVCSCI_WorldActor@@IABV3@@Z 00477ac0 f i charsel.obj
 0001:00076b00       ?allocate@?$allocator@VCSCI_WorldActor@@@std@@QAEPAVCSCI_WorldActor@@IPBX@Z 00477b00 f i charsel.obj
 0001:00076b20       ?construct@?$allocator@VCSkinObj@@@std@@QAEXPAVCSkinObj@@ABV3@@Z 00477b20 f i charsel.obj
 0001:00076b40       ?construct@?$allocator@VCSCI_WorldActor@@@std@@QAEXPAVCSCI_WorldActor@@ABV3@@Z 00477b40 f i charsel.obj
 0001:00076b60       ?fill@std@@YAXPAVCSkinObj@@0ABV2@@Z 00477b60 f i charsel.obj
 0001:00076b90       ?copy_backward@std@@YAPAVCSkinObj@@PAV2@00@Z 00477b90 f i charsel.obj
 0001:00076bc0       ?_Destroy@std@@YAXPAVCSkinObj@@@Z 00477bc0 f i charsel.obj
 0001:00076be0       ?copy_backward@std@@YAPAPAVCVerbBtn@@PAPAV2@00@Z 00477be0 f i charsel.obj
 0001:00076be0       ?copy_backward@std@@YAPAPAVCSCIObjectMethod@@PAPAV2@00@Z 00477be0 f i charsel.obj
 0001:00076be0       ?copy_backward@std@@YAPAPAVCTabEntry@@PAPAV2@00@Z 00477be0 f i charsel.obj
 0001:00076be0       ?copy_backward@std@@YAPAPAVCSkinBitmap@@PAPAV2@00@Z 00477be0 f i charsel.obj
 0001:00076be0       ?copy_backward@std@@YAPAPAVCSCIObjectMethodPair@@PAPAV2@00@Z 00477be0 f i charsel.obj
 0001:00076be0       ?copy_backward@std@@YAPAPAVCSkinCtrl@@PAPAV2@00@Z 00477be0 f i charsel.obj
 0001:00076be0       ?copy_backward@std@@YAPAPAVCTabBtn@@PAPAV2@00@Z 00477be0 f i charsel.obj
 0001:00076be0       ?copy_backward@std@@YAPAPAVCPoint@@PAPAV2@00@Z 00477be0 f i charsel.obj
 0001:00076c10       ?fill@std@@YAXPAPAVCSCIObjectMethod@@0ABQAV2@@Z 00477c10 f i charsel.obj
 0001:00076c10       ?fill@std@@YAXPAPAVCSkinCtrl@@0ABQAV2@@Z 00477c10 f i charsel.obj
 0001:00076c10       ?fill@std@@YAXPAPAVCSkinBitmap@@0ABQAV2@@Z 00477c10 f i charsel.obj
 0001:00076c10       ?fill@std@@YAXPAPAVCVerbBtn@@0ABQAV2@@Z 00477c10 f i charsel.obj
 0001:00076c10       ?fill@std@@YAXPAPAVCSCIObjectMethodPair@@0ABQAV2@@Z 00477c10 f i charsel.obj
 0001:00076c10       ?fill@std@@YAXPAPAVCTabEntry@@0ABQAV2@@Z 00477c10 f i charsel.obj
 0001:00076c10       ?fill@std@@YAXPAPAVCPoint@@0ABQAV2@@Z 00477c10 f i charsel.obj
 0001:00076c10       ?fill@std@@YAXPAPAVCTabBtn@@0ABQAV2@@Z 00477c10 f i charsel.obj
 0001:00076c40       ?fill@std@@YAXPAVCSCI_WorldActor@@0ABV2@@Z 00477c40 f i charsel.obj
 0001:00076c70       ?copy_backward@std@@YAPAVCSCI_WorldActor@@PAV2@00@Z 00477c70 f i charsel.obj
 0001:00076ca0       ?_Allocate@std@@YAPAVCSkinObj@@HPAV2@@Z 00477ca0 f i charsel.obj
 0001:00076cd0       ?_Allocate@std@@YAPAVCSCI_WorldActor@@HPAV2@@Z 00477cd0 f i charsel.obj
 0001:00076cf0       ?_Construct@std@@YAXPAVCSkinObj@@ABV2@@Z 00477cf0 f i charsel.obj
 0001:00076d60       ?_Construct@std@@YAXPAPAVCTabBtn@@ABQAV2@@Z 00477d60 f i charsel.obj
 0001:00076d60       ?_Construct@std@@YAXPAPAVCSkinBitmap@@ABQAV2@@Z 00477d60 f i charsel.obj
 0001:00076d60       ?_Construct@std@@YAXPAPAVCTabEntry@@ABQAV2@@Z 00477d60 f i charsel.obj
 0001:00076d60       ?_Construct@std@@YAXPAPAVCListData@@ABQAV2@@Z 00477d60 f i charsel.obj
 0001:00076d60       ?_Construct@std@@YAXPAPAVCInventoryDlg@@ABQAV2@@Z 00477d60 f i charsel.obj
 0001:00076d60       ?_Construct@std@@YAXPAPAVCMailMsg@@ABQAV2@@Z 00477d60 f i charsel.obj
 0001:00076d60       ?_Construct@std@@YAXPAPAVCLookAtItem@@ABQAV2@@Z 00477d60 f i charsel.obj
 0001:00076d60       ?_Construct@std@@YAXPAPAVCPoint@@ABQAV2@@Z 00477d60 f i charsel.obj
 0001:00076d60       ?_Construct@std@@YAXPAPADABQAD@Z 00477d60 f i charsel.obj
 0001:00076d60       ?_Construct@std@@YAXPAPAVCSCIObjectMethod@@ABQAV2@@Z 00477d60 f i charsel.obj
 0001:00076d60       ?_Construct@std@@YAXPAPAVCSkinWnd@@ABQAV2@@Z 00477d60 f i charsel.obj
 0001:00076d60       ?_Construct@std@@YAXPAPAVCVerbBtn@@ABQAV2@@Z 00477d60 f i charsel.obj
 0001:00076d60       ?_Construct@std@@YAXPAPAVCVerbRequest@@ABQAV2@@Z 00477d60 f i charsel.obj
 0001:00076d60       ?_Construct@std@@YAXPAPAVCSkinCtrl@@ABQAV2@@Z 00477d60 f i charsel.obj
 0001:00076d60       ?_Construct@std@@YAXPAPAVCSCIObjectMethodPair@@ABQAV2@@Z 00477d60 f i charsel.obj
 0001:00076da0       ?_Construct@std@@YAXPAVCSCI_WorldActor@@ABV2@@Z 00477da0 f i charsel.obj
 0001:00076e10       ??_ECCharSelectWnd@@WJE@AEPAXI@Z 00477e10 f i charsel.obj
 0001:00076e20       ?get_bitmap@CSCI_BitMap@@QAEFXZ 00477e20 f i charsel.obj
 0001:00076e40       ?get_pProperName@CSCI_BCharacter@@QAE?AVStringID@@XZ 00477e40 f i charsel.obj
 0001:00076e80       ?get_pName@CSCI_WorldObject@@QAE?AVStringID@@XZ 00477e80 f i charsel.obj
 0001:00076e80       ?get_pName@CSCI_GroupMember@@QAE?AVStringID@@XZ 00477e80 f i charsel.obj
 0001:00076ec0       ?SetAllowMove@CSkinWnd@@IAEX_N@Z 00477ec0 f i charsel.obj
 0001:00076ef0       ??0strstream@std@@QAE@XZ   00477ef0 f i charsel.obj
 0001:00076fa0       ??0strstreambuf@std@@QAE@H@Z 00477fa0 f i charsel.obj
 0001:00077010       ??_Estrstreambuf@std@@UAEPAXI@Z 00478010 f i charsel.obj
 0001:00077010       ??_Gstrstreambuf@std@@UAEPAXI@Z 00478010 f i charsel.obj
 0001:00077040       ?str@strstream@std@@QAEPADXZ 00478040 f i charsel.obj
 0001:00077060       ?str@strstreambuf@std@@QAEPADXZ 00478060 f i charsel.obj
 0001:00077080       ?pcount@strstream@std@@QBEHXZ 00478080 f i charsel.obj
 0001:000770a0       ?pcount@strstreambuf@std@@QBEHXZ 004780a0 f i charsel.obj
 0001:000770f0       ??_Estrstream@std@@UAEPAXI@Z 004780f0 f i charsel.obj
 0001:000770f0       ??_Gstrstream@std@@UAEPAXI@Z 004780f0 f i charsel.obj
 0001:00077130       ??_Dstrstream@std@@QAEXXZ  00478130 f i charsel.obj
 0001:00077397       ??0CMessageLog@@QAE@XZ     00478397 f   chatdisplay.obj
 0001:000773f7       ?Empty@CMessageLog@@QAEXXZ 004783f7 f   chatdisplay.obj
 0001:00077454       ?GetMessageA@CMessageLog@@QAE?AVCString@@XZ 00478454 f   chatdisplay.obj
 0001:00077487       ?Insert@CMessageLog@@QAEXPBDPAVCSkinEdit@@@Z 00478487 f   chatdisplay.obj
 0001:0007778c       ??0CChatDisplay@@QAE@VCSkinObj@@PAVCSkinWnd@@IK@Z 0047878c f   chatdisplay.obj
 0001:00077838       ?ParseText@CChatDisplay@@QAEHPBD@Z 00478838 f   chatdisplay.obj
 0001:00077870       ?Attach@CChatDisplay@@QAEXPAVCMessageLog@@@Z 00478870 f   chatdisplay.obj
 0001:00077907       ?Empty@CChatDisplay@@QAEXXZ 00478907 f   chatdisplay.obj
 0001:00077940       ??1CMessageLog@@QAE@XZ     00478940 f i chatdisplay.obj
 0001:00077960       ??_GCChatDisplay@@UAEPAXI@Z 00478960 f i chatdisplay.obj
 0001:00077960       ??_ECChatDisplay@@UAEPAXI@Z 00478960 f i chatdisplay.obj
 0001:00077990       ??_ECChatDisplay@@WGA@AEPAXI@Z 00478990 f i chatdisplay.obj
 0001:000779a0       ??_ECChatDisplay@@WHE@AEPAXI@Z 004789a0 f i chatdisplay.obj
 0001:000779b0       ?ReplaceSel@CRichEditCtrl@@QAEXPBDH@Z 004789b0 f i chatdisplay.obj
 0001:000779e0       ?GetTextLength@CRichEditCtrl@@QBEJXZ 004789e0 f i chatdisplay.obj
 0001:00077a3f       ??0CChatPanel@@QAE@XZ      00478a3f f   chatpanel.obj
 0001:00077a6b       ??1CChatPanel@@UAE@XZ      00478a6b f   chatpanel.obj
 0001:00077a87       ?Create@CChatPanel@@UAEHXZ 00478a87 f   chatpanel.obj
 0001:00077b00       ??0CChatPanelVerbHandler@@QAE@XZ 00478b00 f i chatpanel.obj
 0001:00077b20       ?HandleVerb@CChatPanelVerbHandler@@UAEHHVCSCI_WorldObject@@@Z 00478b20 f i chatpanel.obj
 0001:00077be0       ??1CChatPanelVerbHandler@@UAE@XZ 00478be0 f i chatpanel.obj
 0001:00077c00       ??_ECChatPanelVerbHandler@@UAEPAXI@Z 00478c00 f i chatpanel.obj
 0001:00077c00       ??_GCChatPanelVerbHandler@@UAEPAXI@Z 00478c00 f i chatpanel.obj
 0001:00077c30       ??_ECChatPanel@@UAEPAXI@Z  00478c30 f i chatpanel.obj
 0001:00077c30       ??_GCChatPanel@@UAEPAXI@Z  00478c30 f i chatpanel.obj
 0001:00077c60       ?SelectTab@CMainPanelWnd@@QAEXH@Z 00478c60 f i chatpanel.obj
 0001:00077c90       ??0CProfanityBtn@@QAE@VCSkinObj@@PAVCSkinWnd@@@Z 00478c90 f   ChatSettings.obj
 0001:00077d39       ?OnActivate@CProfanityBtn@@UAEXFF@Z 00478d39 f   ChatSettings.obj
 0001:00077d9a       ??0CBusyBtn@@QAE@VCSkinObj@@PAVCSkinWnd@@@Z 00478d9a f   ChatSettings.obj
 0001:00077e43       ?OnActivate@CBusyBtn@@UAEXFF@Z 00478e43 f   ChatSettings.obj
 0001:00077ea4       ??0CColorBtn@@QAE@VCSkinObj@@PAVCSkinWnd@@@Z 00478ea4 f   ChatSettings.obj
 0001:00077f76       ?OnActivate@CColorBtn@@UAEXFF@Z 00478f76 f   ChatSettings.obj
 0001:00077f9e       ??0CChatSettingsDlg@@QAE@XZ 00478f9e f   ChatSettings.obj
 0001:00077fca       ?CloseSelf@CChatSettingsDlg@@UAEX_N@Z 00478fca f   ChatSettings.obj
 0001:0007802f       ?Create@CChatSettingsDlg@@QAEHXZ 0047902f f   ChatSettings.obj
 0001:0007810e       ?MakeSkinCtrl@CChatSettingsDlg@@UAEPAVCSkinCtrl@@VCSkinObj@@@Z 0047910e f   ChatSettings.obj
 0001:000784ac       ?SetColor@CChatSettingsDlg@@QAEXH@Z 004794ac f   ChatSettings.obj
 0001:00078540       ??_GCProfanityBtn@@UAEPAXI@Z 00479540 f i ChatSettings.obj
 0001:00078540       ??_ECProfanityBtn@@UAEPAXI@Z 00479540 f i ChatSettings.obj
 0001:00078570       ??1CProfanityBtn@@UAE@XZ   00479570 f i ChatSettings.obj
 0001:00078590       ??_ECBusyBtn@@UAEPAXI@Z    00479590 f i ChatSettings.obj
 0001:00078590       ??_GCBusyBtn@@UAEPAXI@Z    00479590 f i ChatSettings.obj
 0001:000785c0       ??1CBusyBtn@@UAE@XZ        004795c0 f i ChatSettings.obj
 0001:000785e0       ??_GCWhatsNewDlg@@UAEPAXI@Z 004795e0 f i ChatSettings.obj
 0001:000785e0       ??_ECGameSettingsDlg@@UAEPAXI@Z 004795e0 f i ChatSettings.obj
 0001:000785e0       ??_GCGameSettingsDlg@@UAEPAXI@Z 004795e0 f i ChatSettings.obj
 0001:000785e0       ??_ECChatSettingsDlg@@UAEPAXI@Z 004795e0 f i ChatSettings.obj
 0001:000785e0       ??_ECWhatsNewDlg@@UAEPAXI@Z 004795e0 f i ChatSettings.obj
 0001:000785e0       ??_GCChatSettingsDlg@@UAEPAXI@Z 004795e0 f i ChatSettings.obj
 0001:000785e0       ??_ECMailMgrWnd@@UAEPAXI@Z 004795e0 f i ChatSettings.obj
 0001:000785e0       ??_GCMailMgrWnd@@UAEPAXI@Z 004795e0 f i ChatSettings.obj
 0001:00078610       ?flip@?$bitset@$04@std@@QAEAAV12@I@Z 00479610 f i ChatSettings.obj
 0001:00078660       ??4reference@?$bitset@$04@std@@QAEAAV012@_N@Z 00479660 f i ChatSettings.obj
 0001:00078690       ?set@?$bitset@$04@std@@QAEAAV12@I_N@Z 00479690 f i ChatSettings.obj
 0001:000787bb       ??0CChatVerbDialog@@QAE@XZ 004797bb f   chatverbs.obj
 0001:000787e7       ??1CChatVerbDialog@@UAE@XZ 004797e7 f   chatverbs.obj
 0001:00078803       ?Create@CChatVerbDialog@@UAEHPBD_N1@Z 00479803 f   chatverbs.obj
 0001:00078a20       ??0CChatVerbDialogHandler@@QAE@XZ 00479a20 f i chatverbs.obj
 0001:00078a40       ?HandleVerb@CChatVerbDialogHandler@@UAEHHVCSCI_WorldObject@@@Z 00479a40 f i chatverbs.obj
 0001:00078c00       ??1CChatVerbDialogHandler@@UAE@XZ 00479c00 f i chatverbs.obj
 0001:00078c20       ??_GCChatVerbDialogHandler@@UAEPAXI@Z 00479c20 f i chatverbs.obj
 0001:00078c20       ??_ECChatVerbDialogHandler@@UAEPAXI@Z 00479c20 f i chatverbs.obj
 0001:00078c50       ??0CSCI_GameServer@@QAE@ABV0@@Z 00479c50 f i chatverbs.obj
 0001:00078c70       ??0CSCI_Server@@QAE@ABV0@@Z 00479c70 f i chatverbs.obj
 0001:00078c90       ??_GCChatVerbDialog@@UAEPAXI@Z 00479c90 f i chatverbs.obj
 0001:00078c90       ??_ECChatVerbDialog@@UAEPAXI@Z 00479c90 f i chatverbs.obj
 0001:00078cc0       ?_GetBaseMessageMap@CChangePasswordDlg@@KGPBUAFX_MSGMAP@@XZ 00479cc0 f   ChngPass.obj
 0001:00078cca       ?GetMessageMap@CChangePasswordDlg@@MBEPBUAFX_MSGMAP@@XZ 00479cca f   ChngPass.obj
 0001:00078cda       ??0CChangePasswordDlg@@QAE@VCSCI_Script@@VStringID@@1@Z 00479cda f   ChngPass.obj
 0001:00078d9b       ?CloseSelf@CChangePasswordDlg@@UAEX_N@Z 00479d9b f   ChngPass.obj
 0001:0007915a       ?Create@CChangePasswordDlg@@QAEHXZ 0047a15a f   ChngPass.obj
 0001:0007922a       ?MakeSkinCtrl@CChangePasswordDlg@@UAEPAVCSkinCtrl@@VCSkinObj@@@Z 0047a22a f   ChngPass.obj
 0001:0007962d       ?OnSetFocus@CChangePasswordDlg@@QAEXPAVCWnd@@@Z 0047a62d f   ChngPass.obj
 0001:00079660       ??_ECMainWindow@@UAEPAXI@Z 0047a660 f i ChngPass.obj
 0001:00079660       ??_GCRoomWindow@@UAEPAXI@Z 0047a660 f i ChngPass.obj
 0001:00079660       ??_GCGenericDlg@@UAEPAXI@Z 0047a660 f i ChngPass.obj
 0001:00079660       ??_GCChBannedListWnd@@UAEPAXI@Z 0047a660 f i ChngPass.obj
 0001:00079660       ??_ECNetworkErrorDlg@@UAEPAXI@Z 0047a660 f i ChngPass.obj
 0001:00079660       ??_ECQuantityDlg@@UAEPAXI@Z 0047a660 f i ChngPass.obj
 0001:00079660       ??_GCQuantityDlg@@UAEPAXI@Z 0047a660 f i ChngPass.obj
 0001:00079660       ??_ECChBannedListWnd@@UAEPAXI@Z 0047a660 f i ChngPass.obj
 0001:00079660       ??_ECGenericDlg@@UAEPAXI@Z 0047a660 f i ChngPass.obj
 0001:00079660       ??_GCBuyLookAtItem@@UAEPAXI@Z 0047a660 f i ChngPass.obj
 0001:00079660       ??_GCGspViewerDlg@@UAEPAXI@Z 0047a660 f i ChngPass.obj
 0001:00079660       ??_ECGspViewerDlg@@UAEPAXI@Z 0047a660 f i ChngPass.obj
 0001:00079660       ??_ECBuyLookAtItem@@UAEPAXI@Z 0047a660 f i ChngPass.obj
 0001:00079660       ??_GCMainWindow@@UAEPAXI@Z 0047a660 f i ChngPass.obj
 0001:00079660       ??_GCChMemberListWnd@@UAEPAXI@Z 0047a660 f i ChngPass.obj
 0001:00079660       ??_ECRoomWindow@@UAEPAXI@Z 0047a660 f i ChngPass.obj
 0001:00079660       ??_GCChangePasswordDlg@@UAEPAXI@Z 0047a660 f i ChngPass.obj
 0001:00079660       ??_GCNetworkErrorDlg@@UAEPAXI@Z 0047a660 f i ChngPass.obj
 0001:00079660       ??_ECChMemberListWnd@@UAEPAXI@Z 0047a660 f i ChngPass.obj
 0001:00079660       ??_GCSplashDlg@@UAEPAXI@Z  0047a660 f i ChngPass.obj
 0001:00079660       ??_ECChangePasswordDlg@@UAEPAXI@Z 0047a660 f i ChngPass.obj
 0001:00079660       ??_ECSplashDlg@@UAEPAXI@Z  0047a660 f i ChngPass.obj
 0001:00079690       ??8@YG_NABVCString@@0@Z    0047a690 f i ChngPass.obj
 0001:000796b0       ??9@YG_NABVCString@@0@Z    0047a6b0 f i ChngPass.obj
 0001:000796d0       ?LimitText@CEdit@@QAEXH@Z  0047a6d0 f i ChngPass.obj
 0001:00079700       ?SetAllowResize@CSkinWnd@@IAEX_N@Z 0047a700 f i ChngPass.obj
 0001:00079730       ??0CCombatVerbDialog@@QAE@XZ 0047a730 f   combatverbs.obj
 0001:000797cc       ??1CCombatVerbDialog@@UAE@XZ 0047a7cc f   combatverbs.obj
 0001:0007984a       ?Create@CCombatVerbDialog@@UAEHH@Z 0047a84a f   combatverbs.obj
 0001:00079a05       ?Press@CCombatVerbDialog@@UAEXH@Z 0047aa05 f   combatverbs.obj
 0001:00079aa4       ?UpdateTimer@CCombatVerbDialog@@QAEXH@Z 0047aaa4 f   combatverbs.obj
 0001:00079ae6       ?SetGlobalPointer@CCombatVerbDialog@@MAEXXZ 0047aae6 f   combatverbs.obj
 0001:00079af9       ?ClearGlobalPointer@CCombatVerbDialog@@MAEXXZ 0047aaf9 f   combatverbs.obj
 0001:00079b18       ?EnableGameModal@CCombatVerbDialog@@UAEXHPAH@Z 0047ab18 f   combatverbs.obj
 0001:00079b41       ?DisableGameModal@CCombatVerbDialog@@UAEXHPAH_N@Z 0047ab41 f   combatverbs.obj
 0001:00079b6a       ??0CCombatExitDialog@@QAE@XZ 0047ab6a f   combatverbs.obj
 0001:00079bc9       ??1CCombatExitDialog@@UAE@XZ 0047abc9 f   combatverbs.obj
 0001:00079bef       ?Create@CCombatExitDialog@@UAEXPAVCWnd@@@Z 0047abef f   combatverbs.obj
 0001:00079c73       ?MakeSkinCtrl@CCombatExitDialog@@UAEPAVCSkinCtrl@@VCSkinObj@@@Z 0047ac73 f   combatverbs.obj
 0001:00079dd0       ??_GCCombatVerbDialog@@UAEPAXI@Z 0047add0 f i combatverbs.obj
 0001:00079dd0       ??_ECCombatVerbDialog@@UAEPAXI@Z 0047add0 f i combatverbs.obj
 0001:00079e00       ??_GCCombatExitDialog@@UAEPAXI@Z 0047ae00 f i combatverbs.obj
 0001:00079e00       ??_ECCombatExitDialog@@UAEPAXI@Z 0047ae00 f i combatverbs.obj
 0001:00079e30       ??0CCombatExitBtn@@QAE@VCSkinObj@@PAVCSkinWnd@@@Z 0047ae30 f i combatverbs.obj
 0001:00079eb0       ?OnActivate@CCombatExitBtn@@UAEXFF@Z 0047aeb0 f i combatverbs.obj
 0001:00079f00       ??_GCCombatExitBtn@@UAEPAXI@Z 0047af00 f i combatverbs.obj
 0001:00079f00       ??_ECCombatExitBtn@@UAEPAXI@Z 0047af00 f i combatverbs.obj
 0001:00079f30       ??1CCombatExitBtn@@UAE@XZ  0047af30 f i combatverbs.obj
 0001:00079f50       ?GetClientRect@CWnd@@QBEXPAUtagRECT@@@Z 0047af50 f i combatverbs.obj
 0001:00079f70       ?OnDeferredClick@CDeferredClickHandler@@UAEXXZ 0047af70 f   deferredclick.obj
 0001:00079f7b       ?Start@CDeferredClickMgr@@SAXPAVCDeferredClickHandler@@@Z 0047af7b f   deferredclick.obj
 0001:00079fa7       ?Stop@CDeferredClickMgr@@SAXPAVCDeferredClickHandler@@@Z 0047afa7 f   deferredclick.obj
 0001:00079fca       ?Process@CDeferredClickMgr@@SAXXZ 0047afca f   deferredclick.obj
 0001:0007a010       ?_GetBaseMessageMap@CMultipleDlg@@KGPBUAFX_MSGMAP@@XZ 0047b010 f   DlgWnd.obj
 0001:0007a01a       ?GetMessageMap@CMultipleDlg@@MBEPBUAFX_MSGMAP@@XZ 0047b01a f   DlgWnd.obj
 0001:0007a02a       ??0CMultipleDlg@@QAE@XZ    0047b02a f   DlgWnd.obj
 0001:0007a070       ??1CMultipleDlg@@UAE@XZ    0047b070 f   DlgWnd.obj
 0001:0007a0b2       ?Create@CMultipleDlg@@QAEHPAD0@Z 0047b0b2 f   DlgWnd.obj
 0001:0007a17f       ?MakeSkinCtrl@CMultipleDlg@@UAEPAVCSkinCtrl@@VCSkinObj@@@Z 0047b17f f   DlgWnd.obj
 0001:0007a49f       ?disableEdit@CMultipleDlg@@QAEXXZ 0047b49f f   DlgWnd.obj
 0001:0007a4c9       ?OnSetFocus@CMultipleDlg@@QAEXPAVCWnd@@@Z 0047b4c9 f   DlgWnd.obj
 0001:0007a4ff       ?GetBuffer@CMultipleDlg@@QAEXAAVCString@@@Z 0047b4ff f   DlgWnd.obj
 0001:0007a52a       ?SetBuffer@CMultipleDlg@@QAEXAAVCString@@@Z 0047b52a f   DlgWnd.obj
 0001:0007a55a       ?ParseText@CMultipleDlg@@UAEHPBD@Z 0047b55a f   DlgWnd.obj
 0001:0007a589       ?CloseSelf@CMultipleDlg@@UAEX_N@Z 0047b589 f   DlgWnd.obj
 0001:0007a5af       ??0CCombinedDlg@@QAE@XZ    0047b5af f   DlgWnd.obj
 0001:0007a5ce       ?CloseSelf@CCombinedDlg@@UAEX_N@Z 0047b5ce f   DlgWnd.obj
 0001:0007a5f1       ?ParseText@CCombinedDlg@@UAEHPBD0@Z 0047b5f1 f   DlgWnd.obj
 0001:0007a66d       ?Create@CCombinedDlg@@QAEHPAD@Z 0047b66d f   DlgWnd.obj
 0001:0007a72c       ??0CModeratorDlg@@QAE@XZ   0047b72c f   DlgWnd.obj
 0001:0007a762       ?CloseSelf@CModeratorDlg@@UAEX_N@Z 0047b762 f   DlgWnd.obj
 0001:0007a785       ?ParseText@CModeratorDlg@@UAEHPBD@Z 0047b785 f   DlgWnd.obj
 0001:0007a7e8       ?Create@CModeratorDlg@@QAEHPAD@Z 0047b7e8 f   DlgWnd.obj
 0001:0007a8e4       ??0CGuideDlg@@QAE@XZ       0047b8e4 f   DlgWnd.obj
 0001:0007a91a       ?ParseText@CGuideDlg@@UAEHPBD@Z 0047b91a f   DlgWnd.obj
 0001:0007a97d       ?CloseSelf@CGuideDlg@@UAEX_N@Z 0047b97d f   DlgWnd.obj
 0001:0007a9a0       ?Create@CGuideDlg@@QAEHPAD@Z 0047b9a0 f   DlgWnd.obj
 0001:0007aa9c       ??0CGodDlg@@QAE@XZ         0047ba9c f   DlgWnd.obj
 0001:0007aad2       ?ParseText@CGodDlg@@UAEHPBD@Z 0047bad2 f   DlgWnd.obj
 0001:0007ab01       ?CloseSelf@CGodDlg@@UAEX_N@Z 0047bb01 f   DlgWnd.obj
 0001:0007ab24       ?Create@CGodDlg@@QAEHPAD@Z 0047bb24 f   DlgWnd.obj
 0001:0007ac20       ??0CHostDlg@@QAE@XZ        0047bc20 f   DlgWnd.obj
 0001:0007ac56       ?ParseText@CHostDlg@@UAEHPBD@Z 0047bc56 f   DlgWnd.obj
 0001:0007ac85       ?CloseSelf@CHostDlg@@UAEX_N@Z 0047bc85 f   DlgWnd.obj
 0001:0007aca8       ?Create@CHostDlg@@QAEHPAD@Z 0047bca8 f   DlgWnd.obj
 0001:0007ada4       ??0CEventDlg@@QAE@XZ       0047bda4 f   DlgWnd.obj
 0001:0007adf4       ?ParseText@CEventDlg@@UAEHPBD@Z 0047bdf4 f   DlgWnd.obj
 0001:0007ae30       ?CloseSelf@CEventDlg@@UAEX_N@Z 0047be30 f   DlgWnd.obj
 0001:0007ae53       ?Create@CEventDlg@@QAEHPAD@Z 0047be53 f   DlgWnd.obj
 0001:0007af7c       ?MakeSkinCtrl@CEventDlg@@UAEPAVCSkinCtrl@@VCSkinObj@@@Z 0047bf7c f   DlgWnd.obj
 0001:0007b17f       ?SetTitle@CEventDlg@@QAEXPAD@Z 0047c17f f   DlgWnd.obj
 0001:0007b1ec       ??0CEventSettingsBtn@@QAE@VCSkinObj@@PAVCSkinWnd@@@Z 0047c1ec f   DlgWnd.obj
 0001:0007b25f       ?OnActivate@CEventSettingsBtn@@UAEXFF@Z 0047c25f f   DlgWnd.obj
 0001:0007b2e4       ??0CGroupDlg@@QAE@XZ       0047c2e4 f   DlgWnd.obj
 0001:0007b31a       ?ParseText@CGroupDlg@@UAEHPBD@Z 0047c31a f   DlgWnd.obj
 0001:0007b37d       ?CloseSelf@CGroupDlg@@UAEX_N@Z 0047c37d f   DlgWnd.obj
 0001:0007b3a0       ?Create@CGroupDlg@@QAEHPAD@Z 0047c3a0 f   DlgWnd.obj
 0001:0007b48d       ??0CChannelPasswordDlg@@QAE@XZ 0047c48d f   DlgWnd.obj
 0001:0007b4b5       ?Create@CChannelPasswordDlg@@QAEH_N@Z 0047c4b5 f   DlgWnd.obj
 0001:0007b59a       ?MakeSkinCtrl@CChannelPasswordDlg@@UAEPAVCSkinCtrl@@VCSkinObj@@@Z 0047c59a f   DlgWnd.obj
 0001:0007b9c9       ?CloseSelf@CChannelPasswordDlg@@UAEX_N@Z 0047c9c9 f   DlgWnd.obj
 0001:0007ba6f       ?Next@CChannelPasswordDlg@@UAEXXZ 0047ca6f f   DlgWnd.obj
 0001:0007ba8a       ?Previous@CChannelPasswordDlg@@UAEXXZ 0047ca8a f   DlgWnd.obj
 0001:0007baa5       ??0CResponseLine@@QAE@VCSkinObj@@PAVCSkinWnd@@IKPADH@Z 0047caa5 f   DlgWnd.obj
 0001:0007bb58       ?OnReturn@CResponseLine@@UAEXXZ 0047cb58 f   DlgWnd.obj
 0001:0007bc40       ??_GCMultipleDlg@@UAEPAXI@Z 0047cc40 f i DlgWnd.obj
 0001:0007bc40       ??_ECMultipleDlg@@UAEPAXI@Z 0047cc40 f i DlgWnd.obj
 0001:0007bc70       ??_ECGodDlg@@UAEPAXI@Z     0047cc70 f i DlgWnd.obj
 0001:0007bc70       ??_GCGodDlg@@UAEPAXI@Z     0047cc70 f i DlgWnd.obj
 0001:0007bc70       ??_GCHostDlg@@UAEPAXI@Z    0047cc70 f i DlgWnd.obj
 0001:0007bc70       ??_ECModeratorDlg@@UAEPAXI@Z 0047cc70 f i DlgWnd.obj
 0001:0007bc70       ??_ECCombinedDlg@@UAEPAXI@Z 0047cc70 f i DlgWnd.obj
 0001:0007bc70       ??_GCModeratorDlg@@UAEPAXI@Z 0047cc70 f i DlgWnd.obj
 0001:0007bc70       ??_ECHostDlg@@UAEPAXI@Z    0047cc70 f i DlgWnd.obj
 0001:0007bc70       ??_GCCombinedDlg@@UAEPAXI@Z 0047cc70 f i DlgWnd.obj
 0001:0007bc70       ??_GCEventDlg@@UAEPAXI@Z   0047cc70 f i DlgWnd.obj
 0001:0007bc70       ??_ECEventDlg@@UAEPAXI@Z   0047cc70 f i DlgWnd.obj
 0001:0007bca0       ??_GCGuideDlg@@UAEPAXI@Z   0047cca0 f i DlgWnd.obj
 0001:0007bca0       ??_ECGuideDlg@@UAEPAXI@Z   0047cca0 f i DlgWnd.obj
 0001:0007bcd0       ??1CGuideDlg@@UAE@XZ       0047ccd0 f i DlgWnd.obj
 0001:0007bcf0       ??1CEventDlg@@UAE@XZ       0047ccf0 f i DlgWnd.obj
 0001:0007bcf0       ??1CHostDlg@@UAE@XZ        0047ccf0 f i DlgWnd.obj
 0001:0007bcf0       ??1CModeratorDlg@@UAE@XZ   0047ccf0 f i DlgWnd.obj
 0001:0007bcf0       ??1CCombinedDlg@@UAE@XZ    0047ccf0 f i DlgWnd.obj
 0001:0007bcf0       ??1CGodDlg@@UAE@XZ         0047ccf0 f i DlgWnd.obj
 0001:0007bd10       ??_ECEventSettingsBtn@@UAEPAXI@Z 0047cd10 f i DlgWnd.obj
 0001:0007bd10       ??_GCEventSettingsBtn@@UAEPAXI@Z 0047cd10 f i DlgWnd.obj
 0001:0007bd40       ??1CEventSettingsBtn@@UAE@XZ 0047cd40 f i DlgWnd.obj
 0001:0007bd60       ??_GCGroupDlg@@UAEPAXI@Z   0047cd60 f i DlgWnd.obj
 0001:0007bd60       ??_ECGroupDlg@@UAEPAXI@Z   0047cd60 f i DlgWnd.obj
 0001:0007bd90       ??1CGroupDlg@@UAE@XZ       0047cd90 f i DlgWnd.obj
 0001:0007bdb0       ??_ECChannelPasswordDlg@@UAEPAXI@Z 0047cdb0 f i DlgWnd.obj
 0001:0007bdb0       ??_GCChannelPasswordDlg@@UAEPAXI@Z 0047cdb0 f i DlgWnd.obj
 0001:0007bde0       ??1CChannelPasswordDlg@@UAE@XZ 0047cde0 f i DlgWnd.obj
 0001:0007be00       ??_ECTopicLine@@UAEPAXI@Z  0047ce00 f i DlgWnd.obj
 0001:0007be00       ??_ECBioLine@@UAEPAXI@Z    0047ce00 f i DlgWnd.obj
 0001:0007be00       ??_ECGossipLine@@UAEPAXI@Z 0047ce00 f i DlgWnd.obj
 0001:0007be00       ??_GCGossipLine@@UAEPAXI@Z 0047ce00 f i DlgWnd.obj
 0001:0007be00       ??_GCBioLine@@UAEPAXI@Z    0047ce00 f i DlgWnd.obj
 0001:0007be00       ??_GCResponseLine@@UAEPAXI@Z 0047ce00 f i DlgWnd.obj
 0001:0007be00       ??_ECResponseLine@@UAEPAXI@Z 0047ce00 f i DlgWnd.obj
 0001:0007be00       ??_GCTopicLine@@UAEPAXI@Z  0047ce00 f i DlgWnd.obj
 0001:0007be00       ??_ECTextLine@@UAEPAXI@Z   0047ce00 f i DlgWnd.obj
 0001:0007be00       ??_GCTextLine@@UAEPAXI@Z   0047ce00 f i DlgWnd.obj
 0001:0007be30       ??_ECResponseLine@@WHE@AEPAXI@Z 0047ce30 f i DlgWnd.obj
 0001:0007be30       ??_ECGossipLine@@WHE@AEPAXI@Z 0047ce30 f i DlgWnd.obj
 0001:0007be40       ?getChannel_AttemptJoin@CToonSettings@@QAEHXZ 0047ce40 f i DlgWnd.obj
 0001:0007be60       ?HideTab@CMainPanelWnd@@QAEXHH@Z 0047ce60 f i DlgWnd.obj
 0001:0007be90       ??0CDraggable@@QAE@XZ      0047ce90 f   drag-n-drop.obj
 0001:0007bec0       ??1CDraggable@@UAE@XZ      0047cec0 f   drag-n-drop.obj
 0001:0007bf16       ?GetSkinBitmap@CDraggable@@QAEPAVCSkinBitmap@@XZ 0047cf16 f   drag-n-drop.obj
 0001:0007bf27       ?GetType@CDraggable@@UAE?AW4eDragType@1@XZ 0047cf27 f   drag-n-drop.obj
 0001:0007bf34       ?ApplyOffset@CDraggable@@QAEXAAVCPoint@@@Z 0047cf34 f   drag-n-drop.obj
 0001:0007bfcb       ??0CDropTarget@@QAE@XZ     0047cfcb f   drag-n-drop.obj
 0001:0007bfec       ??1CDropTarget@@UAE@XZ     0047cfec f   drag-n-drop.obj
 0001:0007c00a       ?LinkToWindow@CDropTarget@@IAEXPAUHWND__@@@Z 0047d00a f   drag-n-drop.obj
 0001:0007c05d       ?FromWindowHandle@CDropTarget@@SAPAV1@PAUHWND__@@@Z 0047d05d f   drag-n-drop.obj
 0001:0007c0ad       ?FromScreenPoint@CDropTarget@@SAPAV1@AAVCPoint@@@Z 0047d0ad f   drag-n-drop.obj
 0001:0007c111       ?CanAcceptDrop@CDropTarget@@UAEPAUHICON__@@AAVCDraggable@@AAVCPoint@@@Z 0047d111 f   drag-n-drop.obj
 0001:0007c120       ?AcceptDrop@CDropTarget@@UAEXAAVCDraggable@@AAVCPoint@@@Z 0047d120 f   drag-n-drop.obj
 0001:0007c12d       ?_GetBaseMessageMap@CDragDropMgr@@KGPBUAFX_MSGMAP@@XZ 0047d12d f   drag-n-drop.obj
 0001:0007c137       ?GetMessageMap@CDragDropMgr@@MBEPBUAFX_MSGMAP@@XZ 0047d137 f   drag-n-drop.obj
 0001:0007c147       ??0CDragDropMgr@@QAE@XZ    0047d147 f   drag-n-drop.obj
 0001:0007c1fe       ??1CDragDropMgr@@UAE@XZ    0047d1fe f   drag-n-drop.obj
 0001:0007c24f       ?StartDrag@CDragDropMgr@@QAEXPAVCDraggable@@@Z 0047d24f f   drag-n-drop.obj
 0001:0007c34b       ?StopDrag@CDragDropMgr@@QAEXXZ 0047d34b f   drag-n-drop.obj
 0001:0007c3af       ?OnMouseMove@CDragDropMgr@@IAEXIVCPoint@@@Z 0047d3af f   drag-n-drop.obj
 0001:0007c46d       ?OnLButtonUp@CDragDropMgr@@IAEXIVCPoint@@@Z 0047d46d f   drag-n-drop.obj
 0001:0007c4f1       ?OnRButtonUp@CDragDropMgr@@IAEXIVCPoint@@@Z 0047d4f1 f   drag-n-drop.obj
 0001:0007c506       ?OnLButtonDown@CDragDropMgr@@IAEXIVCPoint@@@Z 0047d506 f   drag-n-drop.obj
 0001:0007c51b       ?OnRButtonDown@CDragDropMgr@@IAEXIVCPoint@@@Z 0047d51b f   drag-n-drop.obj
 0001:0007c530       ?OnKillFocus@CDragDropMgr@@IAEXPAVCWnd@@@Z 0047d530 f   drag-n-drop.obj
 0001:0007c5ad       ?UpdatePosn@CDragDropMgr@@QAEXAAVCPoint@@@Z 0047d5ad f   drag-n-drop.obj
 0001:0007c605       ?Hide@CDragDropMgr@@QAEXXZ 0047d605 f   drag-n-drop.obj
 0001:0007c61a       ?Show@CDragDropMgr@@QAEXXZ 0047d61a f   drag-n-drop.obj
 0001:0007c62f       ?IsDragging@CDragDropMgr@@QAE_NXZ 0047d62f f   drag-n-drop.obj
 0001:0007c647       ?UpdateFastScroll@CDragDropMgr@@QAEPAUHICON__@@XZ 0047d647 f   drag-n-drop.obj
 0001:0007c6b0       ??_ECDraggable@@UAEPAXI@Z  0047d6b0 f i drag-n-drop.obj
 0001:0007c6b0       ??_GCDraggable@@UAEPAXI@Z  0047d6b0 f i drag-n-drop.obj
 0001:0007c6e0       ??1?$map@PAUHWND__@@PAVCDropTarget@@U?$less@PAUHWND__@@@std@@V?$allocator@PAVCDropTarget@@@4@@std@@QAE@XZ 0047d6e0 f i drag-n-drop.obj
 0001:0007c700       ??_ECDropTarget@@UAEPAXI@Z 0047d700 f i drag-n-drop.obj
 0001:0007c700       ??_GCDropTarget@@UAEPAXI@Z 0047d700 f i drag-n-drop.obj
 0001:0007c730       ??_ECDragDropMgr@@UAEPAXI@Z 0047d730 f i drag-n-drop.obj
 0001:0007c730       ??_GCDragDropMgr@@UAEPAXI@Z 0047d730 f i drag-n-drop.obj
 0001:0007c760       ??0?$map@PAUHWND__@@PAVCDropTarget@@U?$less@PAUHWND__@@@std@@V?$allocator@PAVCDropTarget@@@4@@std@@QAE@ABU?$less@PAUHWND__@@@1@ABV?$allocator@PAVCDropTarget@@@1@@Z 0047d760 f i drag-n-drop.obj
 0001:0007c790       ??A?$map@PAUHWND__@@PAVCDropTarget@@U?$less@PAUHWND__@@@std@@V?$allocator@PAVCDropTarget@@@4@@std@@QAEAAPAVCDropTarget@@ABQAUHWND__@@@Z 0047d790 f i drag-n-drop.obj
 0001:0007c7e0       ?erase@?$map@PAUHWND__@@PAVCDropTarget@@U?$less@PAUHWND__@@@std@@V?$allocator@PAVCDropTarget@@@4@@std@@QAEIABQAUHWND__@@@Z 0047d7e0 f i drag-n-drop.obj
 0001:0007c800       ?find@?$map@PAUHWND__@@PAVCDropTarget@@U?$less@PAUHWND__@@@std@@V?$allocator@PAVCDropTarget@@@4@@std@@QAE?AViterator@?$_Tree@PAUHWND__@@U?$pair@QAUHWND__@@PAVCDropTarget@@@std@@U_Kfn@?$map@PAUHWND__@@PAVCDropTarget@@U?$less@PAUHWND__@@@std@@V?$allocator@PAVCDropTarget@@@4@@3@U?$less@PAUHWND__@@@3@V?$allocator@PAVCDropTarget@@@3@@2@ABQAUHWND__@@@Z 0047d800 f i drag-n-drop.obj
 0001:0007c830       ??1?$_Tree@PAUHWND__@@U?$pair@QAUHWND__@@PAVCDropTarget@@@std@@U_Kfn@?$map@PAUHWND__@@PAVCDropTarget@@U?$less@PAUHWND__@@@std@@V?$allocator@PAVCDropTarget@@@4@@3@U?$less@PAUHWND__@@@3@V?$allocator@PAVCDropTarget@@@3@@std@@QAE@XZ 0047d830 f i drag-n-drop.obj
 0001:0007c900       ??0CPoint@@QAE@UtagPOINT@@@Z 0047d900 f i drag-n-drop.obj
 0001:0007c920       ??ZCPoint@@QAEXUtagPOINT@@@Z 0047d920 f i drag-n-drop.obj
 0001:0007c950       ?insert@?$map@PAUHWND__@@PAVCDropTarget@@U?$less@PAUHWND__@@@std@@V?$allocator@PAVCDropTarget@@@4@@std@@QAE?AU?$pair@Viterator@?$_Tree@PAUHWND__@@U?$pair@QAUHWND__@@PAVCDropTarget@@@std@@U_Kfn@?$map@PAUHWND__@@PAVCDropTarget@@U?$less@PAUHWND__@@@std@@V?$allocator@PAVCDropTarget@@@4@@3@U?$less@PAUHWND__@@@3@V?$allocator@PAVCDropTarget@@@3@@std@@_N@2@ABU?$pair@QAUHWND__@@PAVCDropTarget@@@2@@Z 0047d950 f i drag-n-drop.obj
 0001:0007c9a0       ??0?$_Tree@PAUHWND__@@U?$pair@QAUHWND__@@PAVCDropTarget@@@std@@U_Kfn@?$map@PAUHWND__@@PAVCDropTarget@@U?$less@PAUHWND__@@@std@@V?$allocator@PAVCDropTarget@@@4@@3@U?$less@PAUHWND__@@@3@V?$allocator@PAVCDropTarget@@@3@@std@@QAE@ABU?$less@PAUHWND__@@@1@_NABV?$allocator@PAVCDropTarget@@@1@@Z 0047d9a0 f i drag-n-drop.obj
 0001:0007c9e0       ?erase@?$_Tree@PAUHWND__@@U?$pair@QAUHWND__@@PAVCDropTarget@@@std@@U_Kfn@?$map@PAUHWND__@@PAVCDropTarget@@U?$less@PAUHWND__@@@std@@V?$allocator@PAVCDropTarget@@@4@@3@U?$less@PAUHWND__@@@3@V?$allocator@PAVCDropTarget@@@3@@std@@QAE?AViterator@12@V312@0@Z 0047d9e0 f i drag-n-drop.obj
 0001:0007cb20       ?erase@?$_Tree@PAUHWND__@@U?$pair@QAUHWND__@@PAVCDropTarget@@@std@@U_Kfn@?$map@PAUHWND__@@PAVCDropTarget@@U?$less@PAUHWND__@@@std@@V?$allocator@PAVCDropTarget@@@4@@3@U?$less@PAUHWND__@@@3@V?$allocator@PAVCDropTarget@@@3@@std@@QAEIABQAUHWND__@@@Z 0047db20 f i drag-n-drop.obj
 0001:0007cb80       ?find@?$_Tree@PAUHWND__@@U?$pair@QAUHWND__@@PAVCDropTarget@@@std@@U_Kfn@?$map@PAUHWND__@@PAVCDropTarget@@U?$less@PAUHWND__@@@std@@V?$allocator@PAVCDropTarget@@@4@@3@U?$less@PAUHWND__@@@3@V?$allocator@PAVCDropTarget@@@3@@std@@QAE?AViterator@12@ABQAUHWND__@@@Z 0047db80 f i drag-n-drop.obj
 0001:0007cc20       ??0?$pair@$$CBHPAVCVerb@@@std@@QAE@ABHABQAVCVerb@@@Z 0047dc20 f i drag-n-drop.obj
 0001:0007cc20       ??0?$pair@QAUHWND__@@PAVCDropTarget@@@std@@QAE@ABQAUHWND__@@ABQAVCDropTarget@@@Z 0047dc20 f i drag-n-drop.obj
 0001:0007cc20       ??0?$pair@$$CBHPAVCMailMsgWnd@@@std@@QAE@ABHABQAVCMailMsgWnd@@@Z 0047dc20 f i drag-n-drop.obj
 0001:0007cc20       ??0?$pair@QAUHWND__@@PAVCMouseWheelable@@@std@@QAE@ABQAUHWND__@@ABQAVCMouseWheelable@@@Z 0047dc20 f i drag-n-drop.obj
 0001:0007cc20       ??0?$pair@$$CBHPAVCMailMsg@@@std@@QAE@ABHABQAVCMailMsg@@@Z 0047dc20 f i drag-n-drop.obj
 0001:0007cc20       ??0?$pair@$$CBHPAVCVerbBtn@@@std@@QAE@ABHABQAVCVerbBtn@@@Z 0047dc20 f i drag-n-drop.obj
 0001:0007cc20       ??0?$pair@QAUHWND__@@PAVCSkinWnd@@@std@@QAE@ABQAUHWND__@@ABQAVCSkinWnd@@@Z 0047dc20 f i drag-n-drop.obj
 0001:0007cc50       ??R?$less@PAVCSkinCtrl@@@std@@QBE_NABQAVCSkinCtrl@@0@Z 0047dc50 f i drag-n-drop.obj
 0001:0007cc50       ??R?$less@PAUHWND__@@@std@@QBE_NABQAUHWND__@@0@Z 0047dc50 f i drag-n-drop.obj
 0001:0007cc70       ?insert@?$_Tree@PAUHWND__@@U?$pair@QAUHWND__@@PAVCDropTarget@@@std@@U_Kfn@?$map@PAUHWND__@@PAVCDropTarget@@U?$less@PAUHWND__@@@std@@V?$allocator@PAVCDropTarget@@@4@@3@U?$less@PAUHWND__@@@3@V?$allocator@PAVCDropTarget@@@3@@std@@QAE?AU?$pair@Viterator@?$_Tree@PAUHWND__@@U?$pair@QAUHWND__@@PAVCDropTarget@@@std@@U_Kfn@?$map@PAUHWND__@@PAVCDropTarget@@U?$less@PAUHWND__@@@std@@V?$allocator@PAVCDropTarget@@@4@@3@U?$less@PAUHWND__@@@3@V?$allocator@PAVCDropTarget@@@3@@std@@_N@2@ABU?$pair@QAUHWND__@@PAVCDropTarget@@@2@@Z 0047dc70 f i drag-n-drop.obj
 0001:0007ceb0       ?erase@?$_Tree@PAUHWND__@@U?$pair@QAUHWND__@@PAVCDropTarget@@@std@@U_Kfn@?$map@PAUHWND__@@PAVCDropTarget@@U?$less@PAUHWND__@@@std@@V?$allocator@PAVCDropTarget@@@4@@3@U?$less@PAUHWND__@@@3@V?$allocator@PAVCDropTarget@@@3@@std@@QAE?AViterator@12@V312@@Z 0047deb0 f i drag-n-drop.obj
 0001:0007d700       ?lower_bound@?$_Tree@PAUHWND__@@U?$pair@QAUHWND__@@PAVCDropTarget@@@std@@U_Kfn@?$map@PAUHWND__@@PAVCDropTarget@@U?$less@PAUHWND__@@@std@@V?$allocator@PAVCDropTarget@@@4@@3@U?$less@PAUHWND__@@@3@V?$allocator@PAVCDropTarget@@@3@@std@@QAE?AViterator@12@ABQAUHWND__@@@Z 0047e700 f i drag-n-drop.obj
 0001:0007d730       ?equal_range@?$_Tree@PAUHWND__@@U?$pair@QAUHWND__@@PAVCDropTarget@@@std@@U_Kfn@?$map@PAUHWND__@@PAVCDropTarget@@U?$less@PAUHWND__@@@std@@V?$allocator@PAVCDropTarget@@@4@@3@U?$less@PAUHWND__@@@3@V?$allocator@PAVCDropTarget@@@3@@std@@QAE?AU?$pair@Viterator@?$_Tree@PAUHWND__@@U?$pair@QAUHWND__@@PAVCDropTarget@@@std@@U_Kfn@?$map@PAUHWND__@@PAVCDropTarget@@U?$less@PAUHWND__@@@std@@V?$allocator@PAVCDropTarget@@@4@@3@U?$less@PAUHWND__@@@3@V?$allocator@PAVCDropTarget@@@3@@std@@V123@@2@ABQAUHWND__@@@Z 0047e730 f i drag-n-drop.obj
 0001:0007d780       ?_Erase@?$_Tree@PAUHWND__@@U?$pair@QAUHWND__@@PAVCDropTarget@@@std@@U_Kfn@?$map@PAUHWND__@@PAVCDropTarget@@U?$less@PAUHWND__@@@std@@V?$allocator@PAVCDropTarget@@@4@@3@U?$less@PAUHWND__@@@3@V?$allocator@PAVCDropTarget@@@3@@std@@IAEXPAU_Node@12@@Z 0047e780 f i drag-n-drop.obj
 0001:0007d840       ?_Init@?$_Tree@PAUHWND__@@U?$pair@QAUHWND__@@PAVCDropTarget@@@std@@U_Kfn@?$map@PAUHWND__@@PAVCDropTarget@@U?$less@PAUHWND__@@@std@@V?$allocator@PAVCDropTarget@@@4@@3@U?$less@PAUHWND__@@@3@V?$allocator@PAVCDropTarget@@@3@@std@@IAEXXZ 0047e840 f i drag-n-drop.obj
 0001:0007d920       ??Eiterator@?$_Tree@PAUHWND__@@U?$pair@QAUHWND__@@PAVCDropTarget@@@std@@U_Kfn@?$map@PAUHWND__@@PAVCDropTarget@@U?$less@PAUHWND__@@@std@@V?$allocator@PAVCDropTarget@@@4@@3@U?$less@PAUHWND__@@@3@V?$allocator@PAVCDropTarget@@@3@@std@@QAE?AV012@H@Z 0047e920 f i drag-n-drop.obj
 0001:0007d950       ?GetSafeHwnd@CWnd@@QBEPAUHWND__@@XZ 0047e950 f i drag-n-drop.obj
 0001:0007d980       ?upper_bound@?$_Tree@PAUHWND__@@U?$pair@QAUHWND__@@PAVCDropTarget@@@std@@U_Kfn@?$map@PAUHWND__@@PAVCDropTarget@@U?$less@PAUHWND__@@@std@@V?$allocator@PAVCDropTarget@@@4@@3@U?$less@PAUHWND__@@@3@V?$allocator@PAVCDropTarget@@@3@@std@@QAE?AViterator@12@ABQAUHWND__@@@Z 0047e980 f i drag-n-drop.obj
 0001:0007d9b0       ?_Insert@?$_Tree@PAUHWND__@@U?$pair@QAUHWND__@@PAVCDropTarget@@@std@@U_Kfn@?$map@PAUHWND__@@PAVCDropTarget@@U?$less@PAUHWND__@@@std@@V?$allocator@PAVCDropTarget@@@4@@3@U?$less@PAUHWND__@@@3@V?$allocator@PAVCDropTarget@@@3@@std@@IAE?AViterator@12@PAU_Node@12@0ABU?$pair@QAUHWND__@@PAVCDropTarget@@@2@@Z 0047e9b0 f i drag-n-drop.obj
 0001:0007de80       ?ClientToScreen@CWnd@@QBEXPAUtagPOINT@@@Z 0047ee80 f i drag-n-drop.obj
 0001:0007dea0       ?_Lbound@?$_Tree@PAUHWND__@@U?$pair@QAUHWND__@@PAVCDropTarget@@@std@@U_Kfn@?$map@PAUHWND__@@PAVCDropTarget@@U?$less@PAUHWND__@@@std@@V?$allocator@PAVCDropTarget@@@4@@3@U?$less@PAUHWND__@@@3@V?$allocator@PAVCDropTarget@@@3@@std@@IBEPAU_Node@12@ABQAUHWND__@@@Z 0047eea0 f i drag-n-drop.obj
 0001:0007df70       ?_Lrotate@?$_Tree@PAUHWND__@@U?$pair@QAUHWND__@@PAVCDropTarget@@@std@@U_Kfn@?$map@PAUHWND__@@PAVCDropTarget@@U?$less@PAUHWND__@@@std@@V?$allocator@PAVCDropTarget@@@4@@3@U?$less@PAUHWND__@@@3@V?$allocator@PAVCDropTarget@@@3@@std@@IAEXPAU_Node@12@@Z 0047ef70 f i drag-n-drop.obj
 0001:0007e0e0       ?_Max@?$_Tree@PAUHWND__@@U?$pair@QAUHWND__@@PAVCDropTarget@@@std@@U_Kfn@?$map@PAUHWND__@@PAVCDropTarget@@U?$less@PAUHWND__@@@std@@V?$allocator@PAVCDropTarget@@@4@@3@U?$less@PAUHWND__@@@3@V?$allocator@PAVCDropTarget@@@3@@std@@KAPAU_Node@12@PAU312@@Z 0047f0e0 f i drag-n-drop.obj
 0001:0007e160       ?_Min@?$_Tree@PAUHWND__@@U?$pair@QAUHWND__@@PAVCDropTarget@@@std@@U_Kfn@?$map@PAUHWND__@@PAVCDropTarget@@U?$less@PAUHWND__@@@std@@V?$allocator@PAVCDropTarget@@@4@@3@U?$less@PAUHWND__@@@3@V?$allocator@PAVCDropTarget@@@3@@std@@KAPAU_Node@12@PAU312@@Z 0047f160 f i drag-n-drop.obj
 0001:0007e1e0       ?_Rrotate@?$_Tree@PAUHWND__@@U?$pair@QAUHWND__@@PAVCDropTarget@@@std@@U_Kfn@?$map@PAUHWND__@@PAVCDropTarget@@U?$less@PAUHWND__@@@std@@V?$allocator@PAVCDropTarget@@@4@@3@U?$less@PAUHWND__@@@3@V?$allocator@PAVCDropTarget@@@3@@std@@IAEXPAU_Node@12@@Z 0047f1e0 f i drag-n-drop.obj
 0001:0007e350       ?SetCapture@CWnd@@QAEPAV1@XZ 0047f350 f i drag-n-drop.obj
 0001:0007e370       ?_Buynode@?$_Tree@PAUHWND__@@U?$pair@QAUHWND__@@PAVCSkinWnd@@@std@@U_Kfn@?$map@PAUHWND__@@PAVCSkinWnd@@U?$less@PAUHWND__@@@std@@V?$allocator@PAVCSkinWnd@@@4@@3@U?$less@PAUHWND__@@@3@V?$allocator@PAVCSkinWnd@@@3@@std@@IAEPAU_Node@12@PAU312@W4_Redbl@12@@Z 0047f370 f i drag-n-drop.obj
 0001:0007e370       ?_Buynode@?$_Tree@PAUHWND__@@U?$pair@QAUHWND__@@PAVCMouseWheelable@@@std@@U_Kfn@?$map@PAUHWND__@@PAVCMouseWheelable@@U?$less@PAUHWND__@@@std@@V?$allocator@PAVCMouseWheelable@@@4@@3@U?$less@PAUHWND__@@@3@V?$allocator@PAVCMouseWheelable@@@3@@std@@IAEPAU_Node@12@PAU312@W4_Redbl@12@@Z 0047f370 f i drag-n-drop.obj
 0001:0007e370       ?_Buynode@?$_Tree@HU?$pair@$$CBHPAVCMailMsg@@@std@@U_Kfn@?$map@HPAVCMailMsg@@U?$less@H@std@@V?$allocator@PAVCMailMsg@@@3@@2@U?$less@H@2@V?$allocator@PAVCMailMsg@@@2@@std@@IAEPAU_Node@12@PAU312@W4_Redbl@12@@Z 0047f370 f i drag-n-drop.obj
 0001:0007e370       ?_Buynode@?$_Tree@HU?$pair@$$CBHPAVCMailMsgWnd@@@std@@U_Kfn@?$map@HPAVCMailMsgWnd@@U?$less@H@std@@V?$allocator@PAVCMailMsgWnd@@@3@@2@U?$less@H@2@V?$allocator@PAVCMailMsgWnd@@@2@@std@@IAEPAU_Node@12@PAU312@W4_Redbl@12@@Z 0047f370 f i drag-n-drop.obj
 0001:0007e370       ?_Buynode@?$_Tree@HU?$pair@$$CBHVCSCI_WorldObject@@@std@@U_Kfn@?$map@HVCSCI_WorldObject@@U?$less@H@std@@V?$allocator@VCSCI_WorldObject@@@3@@2@U?$less@H@2@V?$allocator@VCSCI_WorldObject@@@2@@std@@IAEPAU_Node@12@PAU312@W4_Redbl@12@@Z 0047f370 f i drag-n-drop.obj
 0001:0007e370       ?_Buynode@?$_Tree@VCSCI_Object@@U?$pair@$$CBVCSCI_Object@@PAVCNoButtonDlg@@@std@@U_Kfn@?$map@VCSCI_Object@@PAVCNoButtonDlg@@U?$less@VCSCI_Object@@@std@@V?$allocator@PAVCNoButtonDlg@@@4@@3@U?$less@VCSCI_Object@@@3@V?$allocator@PAVCNoButtonDlg@@@3@@std@@IAEPAU_Node@12@PAU312@W4_Redbl@12@@Z 0047f370 f i drag-n-drop.obj
 0001:0007e370       ?_Buynode@?$_Tree@HU?$pair@$$CBHPAVCVerb@@@std@@U_Kfn@?$map@HPAVCVerb@@U?$less@H@std@@V?$allocator@PAVCVerb@@@3@@2@U?$less@H@2@V?$allocator@PAVCVerb@@@2@@std@@IAEPAU_Node@12@PAU312@W4_Redbl@12@@Z 0047f370 f i drag-n-drop.obj
 0001:0007e370       ?_Buynode@?$_Tree@VCSCI_WorldObject@@U?$pair@$$CBVCSCI_WorldObject@@PAVCInventoryDlg@@@std@@U_Kfn@?$map@VCSCI_WorldObject@@PAVCInventoryDlg@@U?$less@VCSCI_WorldObject@@@std@@V?$allocator@PAVCInventoryDlg@@@4@@3@U?$less@VCSCI_WorldObject@@@3@V?$allocator@PAVCInventoryDlg@@@3@@std@@IAEPAU_Node@12@PAU312@W4_Redbl@12@@Z 0047f370 f i drag-n-drop.obj
 0001:0007e370       ?_Buynode@?$_Tree@PAUHWND__@@U?$pair@QAUHWND__@@PAVCDropTarget@@@std@@U_Kfn@?$map@PAUHWND__@@PAVCDropTarget@@U?$less@PAUHWND__@@@std@@V?$allocator@PAVCDropTarget@@@4@@3@U?$less@PAUHWND__@@@3@V?$allocator@PAVCDropTarget@@@3@@std@@IAEPAU_Node@12@PAU312@W4_Redbl@12@@Z 0047f370 f i drag-n-drop.obj
 0001:0007e370       ?_Buynode@?$_Tree@HU?$pair@$$CBHPAVCVerbBtn@@@std@@U_Kfn@?$map@HPAVCVerbBtn@@U?$less@H@std@@V?$allocator@PAVCVerbBtn@@@3@@2@U?$less@H@2@V?$allocator@PAVCVerbBtn@@@2@@std@@IAEPAU_Node@12@PAU312@W4_Redbl@12@@Z 0047f370 f i drag-n-drop.obj
 0001:0007e3c0       ??Eiterator@?$_Tree@PAUHWND__@@U?$pair@QAUHWND__@@PAVCDropTarget@@@std@@U_Kfn@?$map@PAUHWND__@@PAVCDropTarget@@U?$less@PAUHWND__@@@std@@V?$allocator@PAVCDropTarget@@@4@@3@U?$less@PAUHWND__@@@3@V?$allocator@PAVCDropTarget@@@3@@std@@QAEAAV012@XZ 0047f3c0 f i drag-n-drop.obj
 0001:0007e3e0       ??Fiterator@?$_Tree@PAUHWND__@@U?$pair@QAUHWND__@@PAVCDropTarget@@@std@@U_Kfn@?$map@PAUHWND__@@PAVCDropTarget@@U?$less@PAUHWND__@@@std@@V?$allocator@PAVCDropTarget@@@4@@3@U?$less@PAUHWND__@@@3@V?$allocator@PAVCDropTarget@@@3@@std@@QAEAAV012@XZ 0047f3e0 f i drag-n-drop.obj
 0001:0007e400       ?_Root@?$_Tree@V?$basic_string@DU?$char_traits@D@std@@V?$allocator@D@2@@std@@U?$pair@$$CBV?$basic_string@DU?$char_traits@D@std@@V?$allocator@D@2@@std@@H@2@U_Kfn@?$map@V?$basic_string@DU?$char_traits@D@std@@V?$allocator@D@2@@std@@HU?$less@V?$basic_string@DU?$char_traits@D@std@@V?$allocator@D@2@@std@@@2@V?$allocator@H@2@@2@U?$less@V?$basic_string@DU?$char_traits@D@std@@V?$allocator@D@2@@std@@@2@V?$allocator@H@2@@std@@IBEAAPAU_Node@12@XZ 0047f400 f i drag-n-drop.obj
 0001:0007e400       ?_Root@?$_Tree@V?$basic_string@DU?$char_traits@D@std@@V?$allocator@D@2@@std@@U?$pair@$$CBV?$basic_string@DU?$char_traits@D@std@@V?$allocator@D@2@@std@@PAVCPrivateTell@@@2@U_Kfn@?$map@V?$basic_string@DU?$char_traits@D@std@@V?$allocator@D@2@@std@@PAVCPrivateTell@@U?$less@V?$basic_string@DU?$char_traits@D@std@@V?$allocator@D@2@@std@@@2@V?$allocator@PAVCPrivateTell@@@2@@2@U?$less@V?$basic_string@DU?$char_traits@D@std@@V?$allocator@D@2@@std@@@2@V?$allocator@PAVCPrivateTell@@@2@@std@@IAEAAPAU_Node@12@XZ 0047f400 f i drag-n-drop.obj
 0001:0007e400       ?_Root@?$_Tree@VCSCI_Object@@U?$pair@$$CBVCSCI_Object@@PAVCNoButtonDlg@@@std@@U_Kfn@?$map@VCSCI_Object@@PAVCNoButtonDlg@@U?$less@VCSCI_Object@@@std@@V?$allocator@PAVCNoButtonDlg@@@4@@3@U?$less@VCSCI_Object@@@3@V?$allocator@PAVCNoButtonDlg@@@3@@std@@IAEAAPAU_Node@12@XZ 0047f400 f i drag-n-drop.obj
 0001:0007e400       ?_Root@?$_Tree@PAUHWND__@@U?$pair@QAUHWND__@@PAVCMouseWheelable@@@std@@U_Kfn@?$map@PAUHWND__@@PAVCMouseWheelable@@U?$less@PAUHWND__@@@std@@V?$allocator@PAVCMouseWheelable@@@4@@3@U?$less@PAUHWND__@@@3@V?$allocator@PAVCMouseWheelable@@@3@@std@@IAEAAPAU_Node@12@XZ 0047f400 f i drag-n-drop.obj
 0001:0007e400       ?_Root@?$_Tree@PAVCSkinCtrl@@PAV1@U_Kfn@?$set@PAVCSkinCtrl@@U?$less@PAVCSkinCtrl@@@std@@V?$allocator@PAVCSkinCtrl@@@3@@std@@U?$less@PAVCSkinCtrl@@@4@V?$allocator@PAVCSkinCtrl@@@4@@std@@IAEAAPAU_Node@12@XZ 0047f400 f i drag-n-drop.obj
 0001:0007e400       ?_Root@?$_Tree@VCSCI_Object@@U?$pair@$$CBVCSCI_Object@@PAVCNoButtonDlg@@@std@@U_Kfn@?$map@VCSCI_Object@@PAVCNoButtonDlg@@U?$less@VCSCI_Object@@@std@@V?$allocator@PAVCNoButtonDlg@@@4@@3@U?$less@VCSCI_Object@@@3@V?$allocator@PAVCNoButtonDlg@@@3@@std@@IBEAAPAU_Node@12@XZ 0047f400 f i drag-n-drop.obj
 0001:0007e400       ?_Root@?$_Tree@HU?$pair@$$CBHPAVCMailMsg@@@std@@U_Kfn@?$map@HPAVCMailMsg@@U?$less@H@std@@V?$allocator@PAVCMailMsg@@@3@@2@U?$less@H@2@V?$allocator@PAVCMailMsg@@@2@@std@@IBEAAPAU_Node@12@XZ 0047f400 f i drag-n-drop.obj
 0001:0007e400       ?_Root@?$_Tree@VCSkinObj@@U?$pair@$$CBVCSkinObj@@PAVCFastScrollCtrl@@@std@@U_Kfn@?$map@VCSkinObj@@PAVCFastScrollCtrl@@U?$less@VCSkinObj@@@std@@V?$allocator@PAVCFastScrollCtrl@@@4@@3@U?$less@VCSkinObj@@@3@V?$allocator@PAVCFastScrollCtrl@@@3@@std@@IBEAAPAU_Node@12@XZ 0047f400 f i drag-n-drop.obj
 0001:0007e400       ?_Root@?$_Tree@V?$basic_string@DU?$char_traits@D@std@@V?$allocator@D@2@@std@@U?$pair@$$CBV?$basic_string@DU?$char_traits@D@std@@V?$allocator@D@2@@std@@VCPoint@@@2@U_Kfn@?$map@V?$basic_string@DU?$char_traits@D@std@@V?$allocator@D@2@@std@@VCPoint@@U?$less@V?$basic_string@DU?$char_traits@D@std@@V?$allocator@D@2@@std@@@2@V?$allocator@VCPoint@@@2@@2@U?$less@V?$basic_string@DU?$char_traits@D@std@@V?$allocator@D@2@@std@@@2@V?$allocator@VCPoint@@@2@@std@@IBEAAPAU_Node@12@XZ 0047f400 f i drag-n-drop.obj
 0001:0007e400       ?_Root@?$_Tree@VCSkinObj@@U?$pair@$$CBVCSkinObj@@PAVCSkinCtrl@@@std@@U_Kfn@?$map@VCSkinObj@@PAVCSkinCtrl@@U?$less@VCSkinObj@@@std@@V?$allocator@PAVCSkinCtrl@@@4@@3@U?$less@VCSkinObj@@@3@V?$allocator@PAVCSkinCtrl@@@3@@std@@IBEAAPAU_Node@12@XZ 0047f400 f i drag-n-drop.obj
 0001:0007e400       ?_Root@?$_Tree@PAUHWND__@@U?$pair@QAUHWND__@@PAVCSkinWnd@@@std@@U_Kfn@?$map@PAUHWND__@@PAVCSkinWnd@@U?$less@PAUHWND__@@@std@@V?$allocator@PAVCSkinWnd@@@4@@3@U?$less@PAUHWND__@@@3@V?$allocator@PAVCSkinWnd@@@3@@std@@IAEAAPAU_Node@12@XZ 0047f400 f i drag-n-drop.obj
 0001:0007e400       ?_Root@?$_Tree@VCSkinObj@@U?$pair@$$CBVCSkinObj@@PAVCSkinCtrl@@@std@@U_Kfn@?$map@VCSkinObj@@PAVCSkinCtrl@@U?$less@VCSkinObj@@@std@@V?$allocator@PAVCSkinCtrl@@@4@@3@U?$less@VCSkinObj@@@3@V?$allocator@PAVCSkinCtrl@@@3@@std@@IAEAAPAU_Node@12@XZ 0047f400 f i drag-n-drop.obj
 0001:0007e400       ?_Root@?$_Tree@PAUHWND__@@U?$pair@QAUHWND__@@PAVCDropTarget@@@std@@U_Kfn@?$map@PAUHWND__@@PAVCDropTarget@@U?$less@PAUHWND__@@@std@@V?$allocator@PAVCDropTarget@@@4@@3@U?$less@PAUHWND__@@@3@V?$allocator@PAVCDropTarget@@@3@@std@@IBEAAPAU_Node@12@XZ 0047f400 f i drag-n-drop.obj
 0001:0007e400       ?_Root@?$_Tree@VCString@@U?$pair@$$CBVCString@@VCPerson@@@std@@U_Kfn@?$map@VCString@@VCPerson@@U?$less@VCString@@@std@@V?$allocator@VCPerson@@@4@@3@U?$less@VCString@@@3@V?$allocator@VCPerson@@@3@@std@@IBEAAPAU_Node@12@XZ 0047f400 f i drag-n-drop.obj
 0001:0007e400       ?_Root@?$_Tree@VCSCI_WorldObject@@U?$pair@$$CBVCSCI_WorldObject@@PAVCInventoryDlg@@@std@@U_Kfn@?$map@VCSCI_WorldObject@@PAVCInventoryDlg@@U?$less@VCSCI_WorldObject@@@std@@V?$allocator@PAVCInventoryDlg@@@4@@3@U?$less@VCSCI_WorldObject@@@3@V?$allocator@PAVCInventoryDlg@@@3@@std@@IAEAAPAU_Node@12@XZ 0047f400 f i drag-n-drop.obj
 0001:0007e400       ?_Root@?$_Tree@HU?$pair@$$CBHPAVCVerbBtn@@@std@@U_Kfn@?$map@HPAVCVerbBtn@@U?$less@H@std@@V?$allocator@PAVCVerbBtn@@@3@@2@U?$less@H@2@V?$allocator@PAVCVerbBtn@@@2@@std@@IAEAAPAU_Node@12@XZ 0047f400 f i drag-n-drop.obj
 0001:0007e400       ?_Root@?$_Tree@VCString@@U?$pair@$$CBVCString@@VCPerson@@@std@@U_Kfn@?$map@VCString@@VCPerson@@U?$less@VCString@@@std@@V?$allocator@VCPerson@@@4@@3@U?$less@VCString@@@3@V?$allocator@VCPerson@@@3@@std@@IAEAAPAU_Node@12@XZ 0047f400 f i drag-n-drop.obj
 0001:0007e400       ?_Root@?$_Tree@PAUHWND__@@U?$pair@QAUHWND__@@PAVCSkinWnd@@@std@@U_Kfn@?$map@PAUHWND__@@PAVCSkinWnd@@U?$less@PAUHWND__@@@std@@V?$allocator@PAVCSkinWnd@@@4@@3@U?$less@PAUHWND__@@@3@V?$allocator@PAVCSkinWnd@@@3@@std@@IBEAAPAU_Node@12@XZ 0047f400 f i drag-n-drop.obj
 0001:0007e400       ?_Root@?$_Tree@HU?$pair@$$CBHPAVCMailMsg@@@std@@U_Kfn@?$map@HPAVCMailMsg@@U?$less@H@std@@V?$allocator@PAVCMailMsg@@@3@@2@U?$less@H@2@V?$allocator@PAVCMailMsg@@@2@@std@@IAEAAPAU_Node@12@XZ 0047f400 f i drag-n-drop.obj
 0001:0007e400       ?_Root@?$_Tree@HU?$pair@$$CBHPAVCMailMsgWnd@@@std@@U_Kfn@?$map@HPAVCMailMsgWnd@@U?$less@H@std@@V?$allocator@PAVCMailMsgWnd@@@3@@2@U?$less@H@2@V?$allocator@PAVCMailMsgWnd@@@2@@std@@IAEAAPAU_Node@12@XZ 0047f400 f i drag-n-drop.obj
 0001:0007e400       ?_Root@?$_Tree@HU?$pair@$$CBHPAVCVerb@@@std@@U_Kfn@?$map@HPAVCVerb@@U?$less@H@std@@V?$allocator@PAVCVerb@@@3@@2@U?$less@H@2@V?$allocator@PAVCVerb@@@2@@std@@IAEAAPAU_Node@12@XZ 0047f400 f i drag-n-drop.obj
 0001:0007e400       ?_Root@?$_Tree@HU?$pair@$$CBHVCSCI_WorldObject@@@std@@U_Kfn@?$map@HVCSCI_WorldObject@@U?$less@H@std@@V?$allocator@VCSCI_WorldObject@@@3@@2@U?$less@H@2@V?$allocator@VCSCI_WorldObject@@@2@@std@@IAEAAPAU_Node@12@XZ 0047f400 f i drag-n-drop.obj
 0001:0007e400       ?_Root@?$_Tree@HU?$pair@$$CBHVCSCI_WorldObject@@@std@@U_Kfn@?$map@HVCSCI_WorldObject@@U?$less@H@std@@V?$allocator@VCSCI_WorldObject@@@3@@2@U?$less@H@2@V?$allocator@VCSCI_WorldObject@@@2@@std@@IBEAAPAU_Node@12@XZ 0047f400 f i drag-n-drop.obj
 0001:0007e400       ?_Root@?$_Tree@PAVCSkinWnd@@PAV1@U_Kfn@?$set@PAVCSkinWnd@@U?$less@PAVCSkinWnd@@@std@@V?$allocator@PAVCSkinWnd@@@3@@std@@U?$less@PAVCSkinWnd@@@4@V?$allocator@PAVCSkinWnd@@@4@@std@@IBEAAPAU_Node@12@XZ 0047f400 f i drag-n-drop.obj
 0001:0007e400       ?_Root@?$_Tree@PAUHWND__@@U?$pair@QAUHWND__@@PAVCMouseWheelable@@@std@@U_Kfn@?$map@PAUHWND__@@PAVCMouseWheelable@@U?$less@PAUHWND__@@@std@@V?$allocator@PAVCMouseWheelable@@@4@@3@U?$less@PAUHWND__@@@3@V?$allocator@PAVCMouseWheelable@@@3@@std@@IBEAAPAU_Node@12@XZ 0047f400 f i drag-n-drop.obj
 0001:0007e400       ?_Root@?$_Tree@VCSkinObj@@U?$pair@$$CBVCSkinObj@@PAVCFastScrollCtrl@@@std@@U_Kfn@?$map@VCSkinObj@@PAVCFastScrollCtrl@@U?$less@VCSkinObj@@@std@@V?$allocator@PAVCFastScrollCtrl@@@4@@3@U?$less@VCSkinObj@@@3@V?$allocator@PAVCFastScrollCtrl@@@3@@std@@IAEAAPAU_Node@12@XZ 0047f400 f i drag-n-drop.obj
 0001:0007e400       ?_Root@?$_Tree@VCSCI_WorldObject@@U?$pair@$$CBVCSCI_WorldObject@@PAVCInventoryDlg@@@std@@U_Kfn@?$map@VCSCI_WorldObject@@PAVCInventoryDlg@@U?$less@VCSCI_WorldObject@@@std@@V?$allocator@PAVCInventoryDlg@@@4@@3@U?$less@VCSCI_WorldObject@@@3@V?$allocator@PAVCInventoryDlg@@@3@@std@@IBEAAPAU_Node@12@XZ 0047f400 f i drag-n-drop.obj
 0001:0007e400       ?_Root@?$_Tree@V?$basic_string@DU?$char_traits@D@std@@V?$allocator@D@2@@std@@U?$pair@$$CBV?$basic_string@DU?$char_traits@D@std@@V?$allocator@D@2@@std@@VCPoint@@@2@U_Kfn@?$map@V?$basic_string@DU?$char_traits@D@std@@V?$allocator@D@2@@std@@VCPoint@@U?$less@V?$basic_string@DU?$char_traits@D@std@@V?$allocator@D@2@@std@@@2@V?$allocator@VCPoint@@@2@@2@U?$less@V?$basic_string@DU?$char_traits@D@std@@V?$allocator@D@2@@std@@@2@V?$allocator@VCPoint@@@2@@std@@IAEAAPAU_Node@12@XZ 0047f400 f i drag-n-drop.obj
 0001:0007e400       ?_Root@?$_Tree@V?$basic_string@DU?$char_traits@D@std@@V?$allocator@D@2@@std@@U?$pair@$$CBV?$basic_string@DU?$char_traits@D@std@@V?$allocator@D@2@@std@@H@2@U_Kfn@?$map@V?$basic_string@DU?$char_traits@D@std@@V?$allocator@D@2@@std@@HU?$less@V?$basic_string@DU?$char_traits@D@std@@V?$allocator@D@2@@std@@@2@V?$allocator@H@2@@2@U?$less@V?$basic_string@DU?$char_traits@D@std@@V?$allocator@D@2@@std@@@2@V?$allocator@H@2@@std@@IAEAAPAU_Node@12@XZ 0047f400 f i drag-n-drop.obj
 0001:0007e400       ?_Root@?$_Tree@PAVCSkinWnd@@PAV1@U_Kfn@?$set@PAVCSkinWnd@@U?$less@PAVCSkinWnd@@@std@@V?$allocator@PAVCSkinWnd@@@3@@std@@U?$less@PAVCSkinWnd@@@4@V?$allocator@PAVCSkinWnd@@@4@@std@@IAEAAPAU_Node@12@XZ 0047f400 f i drag-n-drop.obj
 0001:0007e400       ?_Root@?$_Tree@PAVCSkinCtrl@@PAV1@U_Kfn@?$set@PAVCSkinCtrl@@U?$less@PAVCSkinCtrl@@@std@@V?$allocator@PAVCSkinCtrl@@@3@@std@@U?$less@PAVCSkinCtrl@@@4@V?$allocator@PAVCSkinCtrl@@@4@@std@@IBEAAPAU_Node@12@XZ 0047f400 f i drag-n-drop.obj
 0001:0007e400       ?_Root@?$_Tree@V?$basic_string@DU?$char_traits@D@std@@V?$allocator@D@2@@std@@U?$pair@$$CBV?$basic_string@DU?$char_traits@D@std@@V?$allocator@D@2@@std@@PAVCPrivateTell@@@2@U_Kfn@?$map@V?$basic_string@DU?$char_traits@D@std@@V?$allocator@D@2@@std@@PAVCPrivateTell@@U?$less@V?$basic_string@DU?$char_traits@D@std@@V?$allocator@D@2@@std@@@2@V?$allocator@PAVCPrivateTell@@@2@@2@U?$less@V?$basic_string@DU?$char_traits@D@std@@V?$allocator@D@2@@std@@@2@V?$allocator@PAVCPrivateTell@@@2@@std@@IBEAAPAU_Node@12@XZ 0047f400 f i drag-n-drop.obj
 0001:0007e400       ?_Root@?$_Tree@PAUHWND__@@U?$pair@QAUHWND__@@PAVCDropTarget@@@std@@U_Kfn@?$map@PAUHWND__@@PAVCDropTarget@@U?$less@PAUHWND__@@@std@@V?$allocator@PAVCDropTarget@@@4@@3@U?$less@PAUHWND__@@@3@V?$allocator@PAVCDropTarget@@@3@@std@@IAEAAPAU_Node@12@XZ 0047f400 f i drag-n-drop.obj
 0001:0007e420       ?_Ubound@?$_Tree@PAUHWND__@@U?$pair@QAUHWND__@@PAVCDropTarget@@@std@@U_Kfn@?$map@PAUHWND__@@PAVCDropTarget@@U?$less@PAUHWND__@@@std@@V?$allocator@PAVCDropTarget@@@4@@3@U?$less@PAUHWND__@@@3@V?$allocator@PAVCDropTarget@@@3@@std@@IBEPAU_Node@12@ABQAUHWND__@@@Z 0047f420 f i drag-n-drop.obj
 0001:0007e4f0       ?_Dec@const_iterator@?$_Tree@PAUHWND__@@U?$pair@QAUHWND__@@PAVCDropTarget@@@std@@U_Kfn@?$map@PAUHWND__@@PAVCDropTarget@@U?$less@PAUHWND__@@@std@@V?$allocator@PAVCDropTarget@@@4@@3@U?$less@PAUHWND__@@@3@V?$allocator@PAVCDropTarget@@@3@@std@@QAEXXZ 0047f4f0 f i drag-n-drop.obj
 0001:0007e600       ?_Inc@const_iterator@?$_Tree@PAUHWND__@@U?$pair@QAUHWND__@@PAVCDropTarget@@@std@@U_Kfn@?$map@PAUHWND__@@PAVCDropTarget@@U?$less@PAUHWND__@@@std@@V?$allocator@PAVCDropTarget@@@4@@3@U?$less@PAUHWND__@@@3@V?$allocator@PAVCDropTarget@@@3@@std@@QAEXXZ 0047f600 f i drag-n-drop.obj
 0001:0007e6e0       ?_Distance@std@@YAXViterator@?$_Tree@PAUHWND__@@U?$pair@QAUHWND__@@PAVCDropTarget@@@std@@U_Kfn@?$map@PAUHWND__@@PAVCDropTarget@@U?$less@PAUHWND__@@@std@@V?$allocator@PAVCDropTarget@@@4@@3@U?$less@PAUHWND__@@@3@V?$allocator@PAVCDropTarget@@@3@@1@0AAI@Z 0047f6e0 f i drag-n-drop.obj
 0001:0007e710       ?swap@std@@YAXAAW4_Redbl@?$_Tree@PAVCSkinWnd@@PAV1@U_Kfn@?$set@PAVCSkinWnd@@U?$less@PAVCSkinWnd@@@std@@V?$allocator@PAVCSkinWnd@@@3@@std@@U?$less@PAVCSkinWnd@@@4@V?$allocator@PAVCSkinWnd@@@4@@1@0@Z 0047f710 f i drag-n-drop.obj
 0001:0007e710       ?swap@std@@YAXAAW4_Redbl@?$_Tree@VCSkinObj@@U?$pair@$$CBVCSkinObj@@PAVCSkinCtrl@@@std@@U_Kfn@?$map@VCSkinObj@@PAVCSkinCtrl@@U?$less@VCSkinObj@@@std@@V?$allocator@PAVCSkinCtrl@@@4@@3@U?$less@VCSkinObj@@@3@V?$allocator@PAVCSkinCtrl@@@3@@1@0@Z 0047f710 f i drag-n-drop.obj
 0001:0007e710       ?swap@std@@YAXAAW4_Redbl@?$_Tree@HU?$pair@$$CBHPAVCMailMsgWnd@@@std@@U_Kfn@?$map@HPAVCMailMsgWnd@@U?$less@H@std@@V?$allocator@PAVCMailMsgWnd@@@3@@2@U?$less@H@2@V?$allocator@PAVCMailMsgWnd@@@2@@1@0@Z 0047f710 f i drag-n-drop.obj
 0001:0007e710       ?swap@std@@YAXAAW4_Redbl@?$_Tree@HU?$pair@$$CBHVCSCI_WorldObject@@@std@@U_Kfn@?$map@HVCSCI_WorldObject@@U?$less@H@std@@V?$allocator@VCSCI_WorldObject@@@3@@2@U?$less@H@2@V?$allocator@VCSCI_WorldObject@@@2@@1@0@Z 0047f710 f i drag-n-drop.obj
 0001:0007e710       ?swap@std@@YAXAAW4_Redbl@?$_Tree@VCSCI_Object@@U?$pair@$$CBVCSCI_Object@@PAVCNoButtonDlg@@@std@@U_Kfn@?$map@VCSCI_Object@@PAVCNoButtonDlg@@U?$less@VCSCI_Object@@@std@@V?$allocator@PAVCNoButtonDlg@@@4@@3@U?$less@VCSCI_Object@@@3@V?$allocator@PAVCNoButtonDlg@@@3@@1@0@Z 0047f710 f i drag-n-drop.obj
 0001:0007e710       ?swap@std@@YAXAAW4_Redbl@?$_Tree@VCString@@U?$pair@$$CBVCString@@VCPerson@@@std@@U_Kfn@?$map@VCString@@VCPerson@@U?$less@VCString@@@std@@V?$allocator@VCPerson@@@4@@3@U?$less@VCString@@@3@V?$allocator@VCPerson@@@3@@1@0@Z 0047f710 f i drag-n-drop.obj
 0001:0007e710       ?swap@std@@YAXAAW4_Redbl@?$_Tree@VCSkinObj@@U?$pair@$$CBVCSkinObj@@PAVCFastScrollCtrl@@@std@@U_Kfn@?$map@VCSkinObj@@PAVCFastScrollCtrl@@U?$less@VCSkinObj@@@std@@V?$allocator@PAVCFastScrollCtrl@@@4@@3@U?$less@VCSkinObj@@@3@V?$allocator@PAVCFastScrollCtrl@@@3@@1@0@Z 0047f710 f i drag-n-drop.obj
 0001:0007e710       ?swap@std@@YAXAAW4_Redbl@?$_Tree@V?$basic_string@DU?$char_traits@D@std@@V?$allocator@D@2@@std@@U?$pair@$$CBV?$basic_string@DU?$char_traits@D@std@@V?$allocator@D@2@@std@@H@2@U_Kfn@?$map@V?$basic_string@DU?$char_traits@D@std@@V?$allocator@D@2@@std@@HU?$less@V?$basic_string@DU?$char_traits@D@std@@V?$allocator@D@2@@std@@@2@V?$allocator@H@2@@2@U?$less@V?$basic_string@DU?$char_traits@D@std@@V?$allocator@D@2@@std@@@2@V?$allocator@H@2@@1@0@Z 0047f710 f i drag-n-drop.obj
 0001:0007e710       ?swap@std@@YAXAAW4_Redbl@?$_Tree@V?$basic_string@DU?$char_traits@D@std@@V?$allocator@D@2@@std@@U?$pair@$$CBV?$basic_string@DU?$char_traits@D@std@@V?$allocator@D@2@@std@@PAVCPrivateTell@@@2@U_Kfn@?$map@V?$basic_string@DU?$char_traits@D@std@@V?$allocator@D@2@@std@@PAVCPrivateTell@@U?$less@V?$basic_string@DU?$char_traits@D@std@@V?$allocator@D@2@@std@@@2@V?$allocator@PAVCPrivateTell@@@2@@2@U?$less@V?$basic_string@DU?$char_traits@D@std@@V?$allocator@D@2@@std@@@2@V?$allocator@PAVCPrivateTell@@@2@@1@0@Z 0047f710 f i drag-n-drop.obj
 0001:0007e710       ?swap@std@@YAXAAW4_Redbl@?$_Tree@PAUHWND__@@U?$pair@QAUHWND__@@PAVCDropTarget@@@std@@U_Kfn@?$map@PAUHWND__@@PAVCDropTarget@@U?$less@PAUHWND__@@@std@@V?$allocator@PAVCDropTarget@@@4@@3@U?$less@PAUHWND__@@@3@V?$allocator@PAVCDropTarget@@@3@@1@0@Z 0047f710 f i drag-n-drop.obj
 0001:0007e710       ?swap@std@@YAXAAW4_Redbl@?$_Tree@HU?$pair@$$CBHPAVCMailMsg@@@std@@U_Kfn@?$map@HPAVCMailMsg@@U?$less@H@std@@V?$allocator@PAVCMailMsg@@@3@@2@U?$less@H@2@V?$allocator@PAVCMailMsg@@@2@@1@0@Z 0047f710 f i drag-n-drop.obj
 0001:0007e710       ?swap@std@@YAXAAW4_Redbl@?$_Tree@PAVCSkinCtrl@@PAV1@U_Kfn@?$set@PAVCSkinCtrl@@U?$less@PAVCSkinCtrl@@@std@@V?$allocator@PAVCSkinCtrl@@@3@@std@@U?$less@PAVCSkinCtrl@@@4@V?$allocator@PAVCSkinCtrl@@@4@@1@0@Z 0047f710 f i drag-n-drop.obj
 0001:0007e710       ?swap@std@@YAXAAW4_Redbl@?$_Tree@HU?$pair@$$CBHPAVCVerbBtn@@@std@@U_Kfn@?$map@HPAVCVerbBtn@@U?$less@H@std@@V?$allocator@PAVCVerbBtn@@@3@@2@U?$less@H@2@V?$allocator@PAVCVerbBtn@@@2@@1@0@Z 0047f710 f i drag-n-drop.obj
 0001:0007e710       ?swap@std@@YAXAAW4_Redbl@?$_Tree@PAUHWND__@@U?$pair@QAUHWND__@@PAVCSkinWnd@@@std@@U_Kfn@?$map@PAUHWND__@@PAVCSkinWnd@@U?$less@PAUHWND__@@@std@@V?$allocator@PAVCSkinWnd@@@4@@3@U?$less@PAUHWND__@@@3@V?$allocator@PAVCSkinWnd@@@3@@1@0@Z 0047f710 f i drag-n-drop.obj
 0001:0007e710       ?swap@std@@YAXAAW4_Redbl@?$_Tree@HU?$pair@$$CBHPAVCVerb@@@std@@U_Kfn@?$map@HPAVCVerb@@U?$less@H@std@@V?$allocator@PAVCVerb@@@3@@2@U?$less@H@2@V?$allocator@PAVCVerb@@@2@@1@0@Z 0047f710 f i drag-n-drop.obj
 0001:0007e710       ?swap@std@@YAXAAW4_Redbl@?$_Tree@VCSCI_WorldObject@@U?$pair@$$CBVCSCI_WorldObject@@PAVCInventoryDlg@@@std@@U_Kfn@?$map@VCSCI_WorldObject@@PAVCInventoryDlg@@U?$less@VCSCI_WorldObject@@@std@@V?$allocator@PAVCInventoryDlg@@@4@@3@U?$less@VCSCI_WorldObject@@@3@V?$allocator@PAVCInventoryDlg@@@3@@1@0@Z 0047f710 f i drag-n-drop.obj
 0001:0007e710       ?swap@std@@YAXAAW4_Redbl@?$_Tree@V?$basic_string@DU?$char_traits@D@std@@V?$allocator@D@2@@std@@U?$pair@$$CBV?$basic_string@DU?$char_traits@D@std@@V?$allocator@D@2@@std@@VCPoint@@@2@U_Kfn@?$map@V?$basic_string@DU?$char_traits@D@std@@V?$allocator@D@2@@std@@VCPoint@@U?$less@V?$basic_string@DU?$char_traits@D@std@@V?$allocator@D@2@@std@@@2@V?$allocator@VCPoint@@@2@@2@U?$less@V?$basic_string@DU?$char_traits@D@std@@V?$allocator@D@2@@std@@@2@V?$allocator@VCPoint@@@2@@1@0@Z 0047f710 f i drag-n-drop.obj
 0001:0007e710       ?swap@std@@YAXAAW4_Redbl@?$_Tree@PAUHWND__@@U?$pair@QAUHWND__@@PAVCMouseWheelable@@@std@@U_Kfn@?$map@PAUHWND__@@PAVCMouseWheelable@@U?$less@PAUHWND__@@@std@@V?$allocator@PAVCMouseWheelable@@@4@@3@U?$less@PAUHWND__@@@3@V?$allocator@PAVCMouseWheelable@@@3@@1@0@Z 0047f710 f i drag-n-drop.obj
 0001:0007e740       ?_Destroy@std@@YAXPAU?$pair@QAUHWND__@@PAVCDropTarget@@@1@@Z 0047f740 f i drag-n-drop.obj
 0001:0007e740       ?_Destroy@std@@YAXPAU?$pair@QAUHWND__@@PAVCMouseWheelable@@@1@@Z 0047f740 f i drag-n-drop.obj
 0001:0007e740       ?_Destroy@std@@YAXPAU?$pair@$$CBHVCSCI_WorldObject@@@1@@Z 0047f740 f i drag-n-drop.obj
 0001:0007e750       ?_Distance@std@@YAXViterator@?$_Tree@PAUHWND__@@U?$pair@QAUHWND__@@PAVCDropTarget@@@std@@U_Kfn@?$map@PAUHWND__@@PAVCDropTarget@@U?$less@PAUHWND__@@@std@@V?$allocator@PAVCDropTarget@@@4@@3@U?$less@PAUHWND__@@@3@V?$allocator@PAVCDropTarget@@@3@@1@0AAIUbidirectional_iterator_tag@1@@Z 0047f750 f i drag-n-drop.obj
 0001:0007e790       ?SetFocusable@CSkinWnd@@QAEX_N@Z 0047f790 f i drag-n-drop.obj
 0001:0007e7b0       ??0CWorldObjectDraggable@@QAE@VCSCI_WorldObject@@AAVCPoint@@@Z 0047f7b0 f   dragworldobject.obj
 0001:0007ea92       ??1CWorldObjectDraggable@@UAE@XZ 0047fa92 f   dragworldobject.obj
 0001:0007eaae       ?GetType@CWorldObjectDraggable@@UAE?AW4eDragType@CDraggable@@XZ 0047faae f   dragworldobject.obj
 0001:0007eabe       ?CalcCursor@CWorldObjectDraggable@@QAEPAUHICON__@@VCSCI_WorldObject@@@Z 0047fabe f   dragworldobject.obj
 0001:0007ec70       ??_GCWorldObjectDraggable@@UAEPAXI@Z 0047fc70 f i dragworldobject.obj
 0001:0007ec70       ??_ECWorldObjectDraggable@@UAEPAXI@Z 0047fc70 f i dragworldobject.obj
 0001:0007eca0       ??0CSCI_VerbList@@QAE@ABV0@@Z 0047fca0 f i dragworldobject.obj
 0001:0007eca0       ??0CSCI_GroupList@@QAE@ABV0@@Z 0047fca0 f i dragworldobject.obj
 0001:0007ecc0       ??YCPoint@@QAEXUtagPOINT@@@Z 0047fcc0 f i dragworldobject.obj
 0001:0007ecf0       ?get_elements@CSCI_Collection@@QAEFXZ 0047fcf0 f i dragworldobject.obj
 0001:0007ed10       ?get_scaleX@CSCI_BitMap@@QAEFXZ 0047fd10 f i dragworldobject.obj
 0001:0007ed30       ?get_scaleY@CSCI_BitMap@@QAEFXZ 0047fd30 f i dragworldobject.obj
 0001:0007ed50       ?get_pOwner@CSCI_BCarryable@@QAEFXZ 0047fd50 f i dragworldobject.obj
 0001:0007edaf       ??0CEventVerbs@@QAE@XZ     0047fdaf f   EventVerbs.obj
 0001:0007eddb       ??1CEventVerbs@@UAE@XZ     0047fddb f   EventVerbs.obj
 0001:0007edf7       ?Create@CEventVerbs@@UAEHXZ 0047fdf7 f   EventVerbs.obj
 0001:0007eea4       ??0COpenEventDlg@@QAE@XZ   0047fea4 f   EventVerbs.obj
 0001:0007eec3       ?CloseSelf@COpenEventDlg@@UAEX_N@Z 0047fec3 f   EventVerbs.obj
 0001:0007ef76       ?Create@COpenEventDlg@@QAEHXZ 0047ff76 f   EventVerbs.obj
 0001:0007efe6       ?MakeSkinCtrl@COpenEventDlg@@UAEPAVCSkinCtrl@@VCSkinObj@@@Z 0047ffe6 f   EventVerbs.obj
 0001:0007f280       ?_GetBaseMessageMap@CTopicLine@@KGPBUAFX_MSGMAP@@XZ 00480280 f   EventVerbs.obj
 0001:0007f28a       ?GetMessageMap@CTopicLine@@MBEPBUAFX_MSGMAP@@XZ 0048028a f   EventVerbs.obj
 0001:0007f29a       ??0CTopicLine@@QAE@VCSkinObj@@PAVCSkinWnd@@IK_N22@Z 0048029a f   EventVerbs.obj
 0001:0007f33f       ?OnChar@CTopicLine@@QAEXIII@Z 0048033f f   EventVerbs.obj
 0001:0007f570       ??0CEventVerbHandler@@QAE@XZ 00480570 f i EventVerbs.obj
 0001:0007f590       ?HandleVerb@CEventVerbHandler@@UAEHHVCSCI_WorldObject@@@Z 00480590 f i EventVerbs.obj
 0001:0007f670       ??1CEventVerbHandler@@UAE@XZ 00480670 f i EventVerbs.obj
 0001:0007f690       ??_ECEventVerbHandler@@UAEPAXI@Z 00480690 f i EventVerbs.obj
 0001:0007f690       ??_GCEventVerbHandler@@UAEPAXI@Z 00480690 f i EventVerbs.obj
 0001:0007f6c0       ??_ECEventVerbs@@UAEPAXI@Z 004806c0 f i EventVerbs.obj
 0001:0007f6c0       ??_GCEventVerbs@@UAEPAXI@Z 004806c0 f i EventVerbs.obj
 0001:0007f6f0       ??_ECOpenEventDlg@@UAEPAXI@Z 004806f0 f i EventVerbs.obj
 0001:0007f6f0       ??_GCOpenEventDlg@@UAEPAXI@Z 004806f0 f i EventVerbs.obj
 0001:0007f720       ??1COpenEventDlg@@UAE@XZ   00480720 f i EventVerbs.obj
 0001:0007f740       ??1CChatDisplay@@UAE@XZ    00480740 f i EventVerbs.obj
 0001:0007f740       ??1CTextLine@@UAE@XZ       00480740 f i EventVerbs.obj
 0001:0007f740       ??1CTopicLine@@UAE@XZ      00480740 f i EventVerbs.obj
 0001:0007f740       ??1CGossipLine@@UAE@XZ     00480740 f i EventVerbs.obj
 0001:0007f740       ??1CBioLine@@UAE@XZ        00480740 f i EventVerbs.obj
 0001:0007f740       ??1CResponseLine@@UAE@XZ   00480740 f i EventVerbs.obj
 0001:0007f760       ??_ECTopicLine@@WGA@AEPAXI@Z 00480760 f i EventVerbs.obj
 0001:0007f760       ??_ECResponseLine@@WGA@AEPAXI@Z 00480760 f i EventVerbs.obj
 0001:0007f760       ??_ECGossipLine@@WGA@AEPAXI@Z 00480760 f i EventVerbs.obj
 0001:0007f760       ??_ECTextLine@@WGA@AEPAXI@Z 00480760 f i EventVerbs.obj
 0001:0007f760       ??_ECBioLine@@WGA@AEPAXI@Z 00480760 f i EventVerbs.obj
 0001:0007f770       ??_ECTextLine@@WHE@AEPAXI@Z 00480770 f i EventVerbs.obj
 0001:0007f770       ??_ECTopicLine@@WHE@AEPAXI@Z 00480770 f i EventVerbs.obj
 0001:0007f770       ??_ECBioLine@@WHE@AEPAXI@Z 00480770 f i EventVerbs.obj
 0001:0007f780       ?GetLineCount@CRichEditCtrl@@QBEHXZ 00480780 f i EventVerbs.obj
 0001:0007f7b0       ?GetLimitText@CRichEditCtrl@@QBEJXZ 004807b0 f i EventVerbs.obj
 0001:0007f7e0       ?IsEvent@CEventDlg@@QAEHXZ 004807e0 f i EventVerbs.obj
 0001:0007f800       ?getRights@CToonSettings@@QAEHH@Z 00480800 f i EventVerbs.obj
 0001:0007f820       ??0CEvictDlg@@QAE@XZ       00480820 f   evict.obj
 0001:0007f83f       ??1CEvictDlg@@UAE@XZ       0048083f f   evict.obj
 0001:0007f85b       ?Create@CEvictDlg@@UAEXPAVCWnd@@@Z 0048085b f   evict.obj
 0001:0007f8e9       ?MakeSkinCtrl@CEvictDlg@@UAEPAVCSkinCtrl@@VCSkinObj@@@Z 004808e9 f   evict.obj
 0001:0007fa40       ??_ECEvictDlg@@UAEPAXI@Z   00480a40 f i evict.obj
 0001:0007fa40       ??_GCEvictDlg@@UAEPAXI@Z   00480a40 f i evict.obj
 0001:0007fa70       ??0CEvictBtn@@QAE@VCSkinObj@@PAVCSkinWnd@@@Z 00480a70 f i evict.obj
 0001:0007faf0       ?OnActivate@CEvictBtn@@UAEXFF@Z 00480af0 f i evict.obj
 0001:0007fb10       ??_ECEvictBtn@@UAEPAXI@Z   00480b10 f i evict.obj
 0001:0007fb10       ??_GCEvictBtn@@UAEPAXI@Z   00480b10 f i evict.obj
 0001:0007fb40       ??1CEvictBtn@@UAE@XZ       00480b40 f i evict.obj
 0001:0007fb60       ??0CPerson@@QAE@XZ         00480b60 f   friendmgr.obj
 0001:0007fbc1       ??1CPerson@@UAE@XZ         00480bc1 f   friendmgr.obj
 0001:0007fbe0       ?SetName@CPerson@@QAEXPBD@Z 00480be0 f   friendmgr.obj
 0001:0007fbfc       ?SetBusy@CPerson@@QAEHH@Z  00480bfc f   friendmgr.obj
 0001:0007fc32       ?SetOnline@CPerson@@QAEHH@Z 00480c32 f   friendmgr.obj
 0001:0007fc68       ?SetPermenant@CPerson@@QAEHH@Z 00480c68 f   friendmgr.obj
 0001:0007fc9e       ?GetName@CPerson@@QAEXAAVCString@@@Z 00480c9e f   friendmgr.obj
 0001:0007fcba       ?GetBusy@CPerson@@QAEHXZ   00480cba f   friendmgr.obj
 0001:0007fcd2       ?GetOnline@CPerson@@QAEHXZ 00480cd2 f   friendmgr.obj
 0001:0007fcea       ?GetPermenant@CPerson@@QAEHXZ 00480cea f   friendmgr.obj
 0001:0007fd02       ?Compare@CPerson@@QAEHPAV1@@Z 00480d02 f   friendmgr.obj
 0001:0007fda4       ?_GetBaseMessageMap@CAddFriendDlg@@KGPBUAFX_MSGMAP@@XZ 00480da4 f   friendmgr.obj
 0001:0007fdae       ?GetMessageMap@CAddFriendDlg@@MBEPBUAFX_MSGMAP@@XZ 00480dae f   friendmgr.obj
 0001:0007fdbe       ??0CAddFriendDlg@@QAE@XZ   00480dbe f   friendmgr.obj
 0001:0007fdf7       ?ExecuteButton@CAddFriendDlg@@UAEXH@Z 00480df7 f   friendmgr.obj
 0001:0007ff17       ?Create@CAddFriendDlg@@QAEHPAD0@Z 00480f17 f   friendmgr.obj
 0001:0007ff89       ?MakeSkinCtrl@CAddFriendDlg@@UAEPAVCSkinCtrl@@VCSkinObj@@@Z 00480f89 f   friendmgr.obj
 0001:0008010f       ?Next@CAddFriendDlg@@UAEXXZ 0048110f f   friendmgr.obj
 0001:0008012a       ?OnSetFocus@CAddFriendDlg@@QAEXPAVCWnd@@@Z 0048112a f   friendmgr.obj
 0001:0008015d       ?_GetBaseMessageMap@CAddFoeDlg@@KGPBUAFX_MSGMAP@@XZ 0048115d f   friendmgr.obj
 0001:00080167       ?GetMessageMap@CAddFoeDlg@@MBEPBUAFX_MSGMAP@@XZ 00481167 f   friendmgr.obj
 0001:00080177       ??0CAddFoeDlg@@QAE@XZ      00481177 f   friendmgr.obj
 0001:000801b0       ?ExecuteButton@CAddFoeDlg@@UAEXH@Z 004811b0 f   friendmgr.obj
 0001:000802d2       ?Create@CAddFoeDlg@@QAEHPAD0@Z 004812d2 f   friendmgr.obj
 0001:00080344       ?MakeSkinCtrl@CAddFoeDlg@@UAEPAVCSkinCtrl@@VCSkinObj@@@Z 00481344 f   friendmgr.obj
 0001:000804ca       ?Next@CAddFoeDlg@@UAEXXZ   004814ca f   friendmgr.obj
 0001:000804e5       ?OnSetFocus@CAddFoeDlg@@QAEXPAVCWnd@@@Z 004814e5 f   friendmgr.obj
 0001:00080518       ??0CPeopleMgrWnd@@QAE@XZ   00481518 f   friendmgr.obj
 0001:00080580       ??1CPeopleMgrWnd@@UAE@XZ   00481580 f   friendmgr.obj
 0001:0008073b       ?CloseSelf@CPeopleMgrWnd@@UAEX_N@Z 0048173b f   friendmgr.obj
 0001:0008075e       ?Create@CPeopleMgrWnd@@QAEHXZ 0048175e f   friendmgr.obj
 0001:0008097d       ?MakeSkinCtrl@CPeopleMgrWnd@@UAEPAVCSkinCtrl@@VCSkinObj@@@Z 0048197d f   friendmgr.obj
 0001:00081016       ?ClearFriends@CPeopleMgrWnd@@QAEXXZ 00482016 f   friendmgr.obj
 0001:0008103b       ?AddFriend@CPeopleMgrWnd@@QAEXPAVCPerson@@H@Z 0048203b f   friendmgr.obj
 0001:000810df       ?DelFriend@CPeopleMgrWnd@@QAEXPAVCPerson@@H@Z 004820df f   friendmgr.obj
 0001:00081146       ?UpdateFriend@CPeopleMgrWnd@@QAEXPAVCPerson@@H@Z 00482146 f   friendmgr.obj
 0001:0008125c       ?ClearFoes@CPeopleMgrWnd@@QAEXXZ 0048225c f   friendmgr.obj
 0001:00081281       ?AddFoe@CPeopleMgrWnd@@QAEXPAVCPerson@@H@Z 00482281 f   friendmgr.obj
 0001:00081320       ?DelFoe@CPeopleMgrWnd@@QAEXPAVCPerson@@H@Z 00482320 f   friendmgr.obj
 0001:00081387       ?UpdateFoe@CPeopleMgrWnd@@QAEXPAVCPerson@@H@Z 00482387 f   friendmgr.obj
 0001:0008141e       ?CompareFriends@CPeopleMgrWnd@@KGHPAVCPerson@@0PAVCSkinListCtrl@@@Z 0048241e f   friendmgr.obj
 0001:0008143d       ?Sort@CPeopleMgrWnd@@QAEXXZ 0048243d f   friendmgr.obj
 0001:00081482       ??0CFriendMgr@@QAE@XZ      00482482 f   friendmgr.obj
 0001:000814b6       ??1CFriendMgr@@UAE@XZ      004824b6 f   friendmgr.obj
 0001:0008152b       ?LoadFriends@CFriendMgr@@QAEXXZ 0048252b f   friendmgr.obj
 0001:0008169f       ?UnregisterFriends@CFriendMgr@@QAEXXZ 0048269f f   friendmgr.obj
 0001:000817f5       ?ShowFriends@CFriendMgr@@QAEXXZ 004827f5 f   friendmgr.obj
 0001:00081904       ?HideFriends@CFriendMgr@@QAEXXZ 00482904 f   friendmgr.obj
 0001:0008192d       ?HandleMessage@CFriendMgr@@QAEXPBD@Z 0048292d f   friendmgr.obj
 0001:00081bcb       ?IsFriend@CFriendMgr@@QAEHAAVCString@@@Z 00482bcb f   friendmgr.obj
 0001:00081c58       ?AddFriend@CFriendMgr@@QAEXAAVCString@@@Z 00482c58 f   friendmgr.obj
 0001:00081d07       ?DelFriend@CFriendMgr@@QAEXAAVCString@@@Z 00482d07 f   friendmgr.obj
 0001:00081dee       ??0CEnemyMgr@@QAE@XZ       00482dee f   friendmgr.obj
 0001:00081e22       ??1CEnemyMgr@@UAE@XZ       00482e22 f   friendmgr.obj
 0001:00081e97       ?ShowEnemies@CEnemyMgr@@QAEXXZ 00482e97 f   friendmgr.obj
 0001:00081fa6       ?HideEnemies@CEnemyMgr@@QAEXXZ 00482fa6 f   friendmgr.obj
 0001:00081fcf       ?HandleMessage@CEnemyMgr@@QAEXPBD@Z 00482fcf f   friendmgr.obj
 0001:00082183       ?IsEnemy@CEnemyMgr@@QAEHAAVCString@@PA_N@Z 00483183 f   friendmgr.obj
 0001:00082264       ?IsEnemy@CEnemyMgr@@QAEHPADPA_N@Z 00483264 f   friendmgr.obj
 0001:00082345       ?AddEnemy@CEnemyMgr@@QAEXAAVCString@@_N@Z 00483345 f   friendmgr.obj
 0001:000823ff       ?DelEnemy@CEnemyMgr@@QAEXAAVCString@@@Z 004833ff f   friendmgr.obj
 0001:00082500       ??_GCPerson@@UAEPAXI@Z     00483500 f i friendmgr.obj
 0001:00082500       ??_ECPerson@@UAEPAXI@Z     00483500 f i friendmgr.obj
 0001:00082530       ??_ECAddFriendDlg@@UAEPAXI@Z 00483530 f i friendmgr.obj
 0001:00082530       ??_GCAddFriendDlg@@UAEPAXI@Z 00483530 f i friendmgr.obj
 0001:00082560       ??1CAddFriendDlg@@UAE@XZ   00483560 f i friendmgr.obj
 0001:00082580       ??_GCAddFoeDlg@@UAEPAXI@Z  00483580 f i friendmgr.obj
 0001:00082580       ??_ECAddFoeDlg@@UAEPAXI@Z  00483580 f i friendmgr.obj
 0001:000825b0       ??1CAddFoeDlg@@UAE@XZ      004835b0 f i friendmgr.obj
 0001:000825d0       ??_ECPeopleMgrWnd@@UAEPAXI@Z 004835d0 f i friendmgr.obj
 0001:000825d0       ??_GCPeopleMgrWnd@@UAEPAXI@Z 004835d0 f i friendmgr.obj
 0001:00082600       ??0CFriendListCtrl@@QAE@XZ 00483600 f i friendmgr.obj
 0001:00082640       ?OnItemActivate@CFriendListCtrl@@UAEXH_N@Z 00483640 f i friendmgr.obj
 0001:000827f0       ??_GCFriendListCtrl@@UAEPAXI@Z 004837f0 f i friendmgr.obj
 0001:000827f0       ??_ECFriendListCtrl@@UAEPAXI@Z 004837f0 f i friendmgr.obj
 0001:00082820       ??1CFriendListCtrl@@UAE@XZ 00483820 f i friendmgr.obj
 0001:00082840       ??0CFoeListCtrl@@QAE@XZ    00483840 f i friendmgr.obj
 0001:00082880       ?OnItemActivate@CFoeListCtrl@@UAEXH_N@Z 00483880 f i friendmgr.obj
 0001:00082a80       ??_GCFoeListCtrl@@UAEPAXI@Z 00483a80 f i friendmgr.obj
 0001:00082a80       ??_ECFoeListCtrl@@UAEPAXI@Z 00483a80 f i friendmgr.obj
 0001:00082ab0       ??1CFoeListCtrl@@UAE@XZ    00483ab0 f i friendmgr.obj
 0001:00082ad0       ??0CAddFriendBtn@@QAE@VCSkinObj@@PAVCSkinWnd@@@Z 00483ad0 f i friendmgr.obj
 0001:00082b50       ?OnActivate@CAddFriendBtn@@UAEXFF@Z 00483b50 f i friendmgr.obj
 0001:00082bd0       ??_GCAddFriendBtn@@UAEPAXI@Z 00483bd0 f i friendmgr.obj
 0001:00082bd0       ??_ECAddFriendBtn@@UAEPAXI@Z 00483bd0 f i friendmgr.obj
 0001:00082c00       ??1CAddFriendBtn@@UAE@XZ   00483c00 f i friendmgr.obj
 0001:00082c20       ??0CAddFoeBtn@@QAE@VCSkinObj@@PAVCSkinWnd@@@Z 00483c20 f i friendmgr.obj
 0001:00082ca0       ?OnActivate@CAddFoeBtn@@UAEXFF@Z 00483ca0 f i friendmgr.obj
 0001:00082d20       ??_ECAddFoeBtn@@UAEPAXI@Z  00483d20 f i friendmgr.obj
 0001:00082d20       ??_GCAddFoeBtn@@UAEPAXI@Z  00483d20 f i friendmgr.obj
 0001:00082d50       ??1CAddFoeBtn@@UAE@XZ      00483d50 f i friendmgr.obj
 0001:00082d70       ??0CWhoBtn@@QAE@VCSkinObj@@PAVCSkinWnd@@@Z 00483d70 f i friendmgr.obj
 0001:00082df0       ?OnActivate@CWhoBtn@@UAEXFF@Z 00483df0 f i friendmgr.obj
 0001:00082e10       ??_GCWhoBtn@@UAEPAXI@Z     00483e10 f i friendmgr.obj
 0001:00082e10       ??_ECWhoBtn@@UAEPAXI@Z     00483e10 f i friendmgr.obj
 0001:00082e40       ??1CWhoBtn@@UAE@XZ         00483e40 f i friendmgr.obj
 0001:00082e60       ??_GCFriendMgr@@UAEPAXI@Z  00483e60 f i friendmgr.obj
 0001:00082e60       ??_ECFriendMgr@@UAEPAXI@Z  00483e60 f i friendmgr.obj
 0001:00082e90       ??1?$map@VCString@@VCPerson@@U?$less@VCString@@@std@@V?$allocator@VCPerson@@@4@@std@@QAE@XZ 00483e90 f i friendmgr.obj
 0001:00082eb0       ??_ECEnemyMgr@@UAEPAXI@Z   00483eb0 f i friendmgr.obj
 0001:00082eb0       ??_GCEnemyMgr@@UAEPAXI@Z   00483eb0 f i friendmgr.obj
 0001:00082ee0       ?CompareNoCase@CString@@QBEHPBD@Z 00483ee0 f i friendmgr.obj
 0001:00082f00       __tcsicmp                  00483f00 f i friendmgr.obj
 0001:00082f20       ?AfxGetInstanceHandle@@YGPAUHINSTANCE__@@XZ 00483f20 f i friendmgr.obj
 0001:00082f30       ??0?$map@VCString@@VCPerson@@U?$less@VCString@@@std@@V?$allocator@VCPerson@@@4@@std@@QAE@ABU?$less@VCString@@@1@ABV?$allocator@VCPerson@@@1@@Z 00483f30 f i friendmgr.obj
 0001:00082f60       ??A?$map@VCString@@VCPerson@@U?$less@VCString@@@std@@V?$allocator@VCPerson@@@4@@std@@QAEAAVCPerson@@ABVCString@@@Z 00483f60 f i friendmgr.obj
 0001:00083000       ?erase@?$map@VCString@@VCPerson@@U?$less@VCString@@@std@@V?$allocator@VCPerson@@@4@@std@@QAE?AViterator@?$_Tree@VCString@@U?$pair@$$CBVCString@@VCPerson@@@std@@U_Kfn@?$map@VCString@@VCPerson@@U?$less@VCString@@@std@@V?$allocator@VCPerson@@@4@@3@U?$less@VCString@@@3@V?$allocator@VCPerson@@@3@@2@V342@@Z 00484000 f i friendmgr.obj
 0001:00083030       ?erase@?$map@VCString@@VCPerson@@U?$less@VCString@@@std@@V?$allocator@VCPerson@@@4@@std@@QAEIABVCString@@@Z 00484030 f i friendmgr.obj
 0001:00083050       ?find@?$map@VCString@@VCPerson@@U?$less@VCString@@@std@@V?$allocator@VCPerson@@@4@@std@@QAE?AViterator@?$_Tree@VCString@@U?$pair@$$CBVCString@@VCPerson@@@std@@U_Kfn@?$map@VCString@@VCPerson@@U?$less@VCString@@@std@@V?$allocator@VCPerson@@@4@@3@U?$less@VCString@@@3@V?$allocator@VCPerson@@@3@@2@ABVCString@@@Z 00484050 f i friendmgr.obj
 0001:00083080       ??1?$_Tree@VCString@@U?$pair@$$CBVCString@@VCPerson@@@std@@U_Kfn@?$map@VCString@@VCPerson@@U?$less@VCString@@@std@@V?$allocator@VCPerson@@@4@@3@U?$less@VCString@@@3@V?$allocator@VCPerson@@@3@@std@@QAE@XZ 00484080 f i friendmgr.obj
 0001:00083150       ??Eiterator@?$_Tree@VCString@@U?$pair@$$CBVCString@@VCPerson@@@std@@U_Kfn@?$map@VCString@@VCPerson@@U?$less@VCString@@@std@@V?$allocator@VCPerson@@@4@@3@U?$less@VCString@@@3@V?$allocator@VCPerson@@@3@@std@@QAE?AV012@H@Z 00484150 f i friendmgr.obj
 0001:00083180       ??1?$pair@$$CBVCString@@VCPerson@@@std@@QAE@XZ 00484180 f i friendmgr.obj
 0001:000831d0       ?insert@?$map@VCString@@VCPerson@@U?$less@VCString@@@std@@V?$allocator@VCPerson@@@4@@std@@QAE?AU?$pair@Viterator@?$_Tree@VCString@@U?$pair@$$CBVCString@@VCPerson@@@std@@U_Kfn@?$map@VCString@@VCPerson@@U?$less@VCString@@@std@@V?$allocator@VCPerson@@@4@@3@U?$less@VCString@@@3@V?$allocator@VCPerson@@@3@@std@@_N@2@ABU?$pair@$$CBVCString@@VCPerson@@@2@@Z 004841d0 f i friendmgr.obj
 0001:00083220       ??0?$_Tree@VCString@@U?$pair@$$CBVCString@@VCPerson@@@std@@U_Kfn@?$map@VCString@@VCPerson@@U?$less@VCString@@@std@@V?$allocator@VCPerson@@@4@@3@U?$less@VCString@@@3@V?$allocator@VCPerson@@@3@@std@@QAE@ABU?$less@VCString@@@1@_NABV?$allocator@VCPerson@@@1@@Z 00484220 f i friendmgr.obj
 0001:00083260       ?erase@?$_Tree@VCString@@U?$pair@$$CBVCString@@VCPerson@@@std@@U_Kfn@?$map@VCString@@VCPerson@@U?$less@VCString@@@std@@V?$allocator@VCPerson@@@4@@3@U?$less@VCString@@@3@V?$allocator@VCPerson@@@3@@std@@QAE?AViterator@12@V312@@Z 00484260 f i friendmgr.obj
 0001:00083ab0       ?erase@?$_Tree@VCString@@U?$pair@$$CBVCString@@VCPerson@@@std@@U_Kfn@?$map@VCString@@VCPerson@@U?$less@VCString@@@std@@V?$allocator@VCPerson@@@4@@3@U?$less@VCString@@@3@V?$allocator@VCPerson@@@3@@std@@QAE?AViterator@12@V312@0@Z 00484ab0 f i friendmgr.obj
 0001:00083bf0       ?erase@?$_Tree@VCString@@U?$pair@$$CBVCString@@VCPerson@@@std@@U_Kfn@?$map@VCString@@VCPerson@@U?$less@VCString@@@std@@V?$allocator@VCPerson@@@4@@3@U?$less@VCString@@@3@V?$allocator@VCPerson@@@3@@std@@QAEIABVCString@@@Z 00484bf0 f i friendmgr.obj
 0001:00083c50       ?find@?$_Tree@VCString@@U?$pair@$$CBVCString@@VCPerson@@@std@@U_Kfn@?$map@VCString@@VCPerson@@U?$less@VCString@@@std@@V?$allocator@VCPerson@@@4@@3@U?$less@VCString@@@3@V?$allocator@VCPerson@@@3@@std@@QAE?AViterator@12@ABVCString@@@Z 00484c50 f i friendmgr.obj
 0001:00083cf0       ??0?$pair@$$CBVCString@@VCPerson@@@std@@QAE@ABVCString@@ABVCPerson@@@Z 00484cf0 f i friendmgr.obj
 0001:00083d50       ??Eiterator@?$_Tree@VCString@@U?$pair@$$CBVCString@@VCPerson@@@std@@U_Kfn@?$map@VCString@@VCPerson@@U?$less@VCString@@@std@@V?$allocator@VCPerson@@@4@@3@U?$less@VCString@@@3@V?$allocator@VCPerson@@@3@@std@@QAEAAV012@XZ 00484d50 f i friendmgr.obj
 0001:00083d70       ??0CPerson@@QAE@ABV0@@Z    00484d70 f i friendmgr.obj
 0001:00083db0       ??R?$less@VCString@@@std@@QBE_NABVCString@@0@Z 00484db0 f i friendmgr.obj
 0001:00083dd0       ??M@YG_NABVCString@@0@Z    00484dd0 f i friendmgr.obj
 0001:00083e00       ?_Color@?$_Tree@VCString@@U?$pair@$$CBVCString@@VCPerson@@@std@@U_Kfn@?$map@VCString@@VCPerson@@U?$less@VCString@@@std@@V?$allocator@VCPerson@@@4@@3@U?$less@VCString@@@3@V?$allocator@VCPerson@@@3@@std@@KAAAW4_Redbl@12@PAU_Node@12@@Z 00484e00 f i friendmgr.obj
 0001:00083e10       ?insert@?$_Tree@VCString@@U?$pair@$$CBVCString@@VCPerson@@@std@@U_Kfn@?$map@VCString@@VCPerson@@U?$less@VCString@@@std@@V?$allocator@VCPerson@@@4@@3@U?$less@VCString@@@3@V?$allocator@VCPerson@@@3@@std@@QAE?AU?$pair@Viterator@?$_Tree@VCString@@U?$pair@$$CBVCString@@VCPerson@@@std@@U_Kfn@?$map@VCString@@VCPerson@@U?$less@VCString@@@std@@V?$allocator@VCPerson@@@4@@3@U?$less@VCString@@@3@V?$allocator@VCPerson@@@3@@std@@_N@2@ABU?$pair@$$CBVCString@@VCPerson@@@2@@Z 00484e10 f i friendmgr.obj
 0001:00084050       ?lower_bound@?$_Tree@VCString@@U?$pair@$$CBVCString@@VCPerson@@@std@@U_Kfn@?$map@VCString@@VCPerson@@U?$less@VCString@@@std@@V?$allocator@VCPerson@@@4@@3@U?$less@VCString@@@3@V?$allocator@VCPerson@@@3@@std@@QAE?AViterator@12@ABVCString@@@Z 00485050 f i friendmgr.obj
 0001:00084080       ?equal_range@?$_Tree@VCString@@U?$pair@$$CBVCString@@VCPerson@@@std@@U_Kfn@?$map@VCString@@VCPerson@@U?$less@VCString@@@std@@V?$allocator@VCPerson@@@4@@3@U?$less@VCString@@@3@V?$allocator@VCPerson@@@3@@std@@QAE?AU?$pair@Viterator@?$_Tree@VCString@@U?$pair@$$CBVCString@@VCPerson@@@std@@U_Kfn@?$map@VCString@@VCPerson@@U?$less@VCString@@@std@@V?$allocator@VCPerson@@@4@@3@U?$less@VCString@@@3@V?$allocator@VCPerson@@@3@@std@@V123@@2@ABVCString@@@Z 00485080 f i friendmgr.obj
 0001:000840d0       ?_Erase@?$_Tree@VCString@@U?$pair@$$CBVCString@@VCPerson@@@std@@U_Kfn@?$map@VCString@@VCPerson@@U?$less@VCString@@@std@@V?$allocator@VCPerson@@@4@@3@U?$less@VCString@@@3@V?$allocator@VCPerson@@@3@@std@@IAEXPAU_Node@12@@Z 004850d0 f i friendmgr.obj
 0001:00084190       ?_Init@?$_Tree@VCString@@U?$pair@$$CBVCString@@VCPerson@@@std@@U_Kfn@?$map@VCString@@VCPerson@@U?$less@VCString@@@std@@V?$allocator@VCPerson@@@4@@3@U?$less@VCString@@@3@V?$allocator@VCPerson@@@3@@std@@IAEXXZ 00485190 f i friendmgr.obj
 0001:00084270       ?_Lrotate@?$_Tree@VCString@@U?$pair@$$CBVCString@@VCPerson@@@std@@U_Kfn@?$map@VCString@@VCPerson@@U?$less@VCString@@@std@@V?$allocator@VCPerson@@@4@@3@U?$less@VCString@@@3@V?$allocator@VCPerson@@@3@@std@@IAEXPAU_Node@12@@Z 00485270 f i friendmgr.obj
 0001:000843e0       ?_Max@?$_Tree@VCString@@U?$pair@$$CBVCString@@VCPerson@@@std@@U_Kfn@?$map@VCString@@VCPerson@@U?$less@VCString@@@std@@V?$allocator@VCPerson@@@4@@3@U?$less@VCString@@@3@V?$allocator@VCPerson@@@3@@std@@KAPAU_Node@12@PAU312@@Z 004853e0 f i friendmgr.obj
 0001:00084460       ?_Min@?$_Tree@VCString@@U?$pair@$$CBVCString@@VCPerson@@@std@@U_Kfn@?$map@VCString@@VCPerson@@U?$less@VCString@@@std@@V?$allocator@VCPerson@@@4@@3@U?$less@VCString@@@3@V?$allocator@VCPerson@@@3@@std@@KAPAU_Node@12@PAU312@@Z 00485460 f i friendmgr.obj
 0001:000844e0       ?_Rrotate@?$_Tree@VCString@@U?$pair@$$CBVCString@@VCPerson@@@std@@U_Kfn@?$map@VCString@@VCPerson@@U?$less@VCString@@@std@@V?$allocator@VCPerson@@@4@@3@U?$less@VCString@@@3@V?$allocator@VCPerson@@@3@@std@@IAEXPAU_Node@12@@Z 004854e0 f i friendmgr.obj
 0001:00084650       ?_Destval@?$_Tree@VCString@@U?$pair@$$CBVCString@@VCPerson@@@std@@U_Kfn@?$map@VCString@@VCPerson@@U?$less@VCString@@@std@@V?$allocator@VCPerson@@@4@@3@U?$less@VCString@@@3@V?$allocator@VCPerson@@@3@@std@@IAEXPAU?$pair@$$CBVCString@@VCPerson@@@2@@Z 00485650 f i friendmgr.obj
 0001:00084670       ?_Inc@const_iterator@?$_Tree@VCString@@U?$pair@$$CBVCString@@VCPerson@@@std@@U_Kfn@?$map@VCString@@VCPerson@@U?$less@VCString@@@std@@V?$allocator@VCPerson@@@4@@3@U?$less@VCString@@@3@V?$allocator@VCPerson@@@3@@std@@QAEXXZ 00485670 f i friendmgr.obj
 0001:00084750       ?upper_bound@?$_Tree@VCString@@U?$pair@$$CBVCString@@VCPerson@@@std@@U_Kfn@?$map@VCString@@VCPerson@@U?$less@VCString@@@std@@V?$allocator@VCPerson@@@4@@3@U?$less@VCString@@@3@V?$allocator@VCPerson@@@3@@std@@QAE?AViterator@12@ABVCString@@@Z 00485750 f i friendmgr.obj
 0001:00084780       ?_Insert@?$_Tree@VCString@@U?$pair@$$CBVCString@@VCPerson@@@std@@U_Kfn@?$map@VCString@@VCPerson@@U?$less@VCString@@@std@@V?$allocator@VCPerson@@@4@@3@U?$less@VCString@@@3@V?$allocator@VCPerson@@@3@@std@@IAE?AViterator@12@PAU_Node@12@0ABU?$pair@$$CBVCString@@VCPerson@@@2@@Z 00485780 f i friendmgr.obj
 0001:00084c50       ?_Lbound@?$_Tree@VCString@@U?$pair@$$CBVCString@@VCPerson@@@std@@U_Kfn@?$map@VCString@@VCPerson@@U?$less@VCString@@@std@@V?$allocator@VCPerson@@@4@@3@U?$less@VCString@@@3@V?$allocator@VCPerson@@@3@@std@@IBEPAU_Node@12@ABVCString@@@Z 00485c50 f i friendmgr.obj
 0001:00084d20       ?_Buynode@?$_Tree@VCString@@U?$pair@$$CBVCString@@VCPerson@@@std@@U_Kfn@?$map@VCString@@VCPerson@@U?$less@VCString@@@std@@V?$allocator@VCPerson@@@4@@3@U?$less@VCString@@@3@V?$allocator@VCPerson@@@3@@std@@IAEPAU_Node@12@PAU312@W4_Redbl@12@@Z 00485d20 f i friendmgr.obj
 0001:00084d70       ??Fiterator@?$_Tree@VCString@@U?$pair@$$CBVCString@@VCPerson@@@std@@U_Kfn@?$map@VCString@@VCPerson@@U?$less@VCString@@@std@@V?$allocator@VCPerson@@@4@@3@U?$less@VCString@@@3@V?$allocator@VCPerson@@@3@@std@@QAEAAV012@XZ 00485d70 f i friendmgr.obj
 0001:00084d90       ?_Ubound@?$_Tree@VCString@@U?$pair@$$CBVCString@@VCPerson@@@std@@U_Kfn@?$map@VCString@@VCPerson@@U?$less@VCString@@@std@@V?$allocator@VCPerson@@@4@@3@U?$less@VCString@@@3@V?$allocator@VCPerson@@@3@@std@@IBEPAU_Node@12@ABVCString@@@Z 00485d90 f i friendmgr.obj
 0001:00084e60       ?_Consval@?$_Tree@VCString@@U?$pair@$$CBVCString@@VCPerson@@@std@@U_Kfn@?$map@VCString@@VCPerson@@U?$less@VCString@@@std@@V?$allocator@VCPerson@@@4@@3@U?$less@VCString@@@3@V?$allocator@VCPerson@@@3@@std@@IAEXPAU?$pair@$$CBVCString@@VCPerson@@@2@ABU32@@Z 00485e60 f i friendmgr.obj
 0001:00084e80       ?_Dec@const_iterator@?$_Tree@VCString@@U?$pair@$$CBVCString@@VCPerson@@@std@@U_Kfn@?$map@VCString@@VCPerson@@U?$less@VCString@@@std@@V?$allocator@VCPerson@@@4@@3@U?$less@VCString@@@3@V?$allocator@VCPerson@@@3@@std@@QAEXXZ 00485e80 f i friendmgr.obj
 0001:00084f90       ?_Distance@std@@YAXViterator@?$_Tree@VCString@@U?$pair@$$CBVCString@@VCPerson@@@std@@U_Kfn@?$map@VCString@@VCPerson@@U?$less@VCString@@@std@@V?$allocator@VCPerson@@@4@@3@U?$less@VCString@@@3@V?$allocator@VCPerson@@@3@@1@0AAI@Z 00485f90 f i friendmgr.obj
 0001:00084fc0       ?_Destroy@std@@YAXPAU?$pair@$$CBVCString@@VCPerson@@@1@@Z 00485fc0 f i friendmgr.obj
 0001:00084fd0       ?_Construct@std@@YAXPAU?$pair@$$CBVCString@@VCPerson@@@1@ABU21@@Z 00485fd0 f i friendmgr.obj
 0001:00085040       ??_G?$pair@$$CBVCString@@VCPerson@@@std@@QAEPAXI@Z 00486040 f i friendmgr.obj
 0001:00085070       ??0?$pair@$$CBVCString@@VCPerson@@@std@@QAE@ABU01@@Z 00486070 f i friendmgr.obj
 0001:000850d0       ?_Distance@std@@YAXViterator@?$_Tree@VCString@@U?$pair@$$CBVCString@@VCPerson@@@std@@U_Kfn@?$map@VCString@@VCPerson@@U?$less@VCString@@@std@@V?$allocator@VCPerson@@@4@@3@U?$less@VCString@@@3@V?$allocator@VCPerson@@@3@@1@0AAIUbidirectional_iterator_tag@1@@Z 004860d0 f i friendmgr.obj
 0001:00085110       ??_ECFriendListCtrl@@WEA@AEPAXI@Z 00486110 f i friendmgr.obj
 0001:00085120       ??_ECFriendListCtrl@@WHE@AEPAXI@Z 00486120 f i friendmgr.obj
 0001:00085130       ??_ECFoeListCtrl@@WEA@AEPAXI@Z 00486130 f i friendmgr.obj
 0001:00085140       ??_ECFoeListCtrl@@WHE@AEPAXI@Z 00486140 f i friendmgr.obj
 0001:00085150       ?Add@CImageList@@QAEHPAUHICON__@@@Z 00486150 f i friendmgr.obj
 0001:00085170       ??0CDoubleButtonDlg@@QAE@XZ 00486170 f i friendmgr.obj
 0001:00085190       ??_ECDoubleButtonDlg@@UAEPAXI@Z 00486190 f i friendmgr.obj
 0001:00085190       ??_GCDoubleButtonDlg@@UAEPAXI@Z 00486190 f i friendmgr.obj
 0001:000851c0       ??1CDoubleButtonDlg@@UAE@XZ 004861c0 f i friendmgr.obj
 0001:000851e0       ??0CSfxVolume@@QAE@XZ      004861e0 f   GameSettings.obj
 0001:0008521d       ?UpdateMe@CSfxVolume@@UAEXXZ 0048621d f   GameSettings.obj
 0001:0008525b       ??0CMidiVolume@@QAE@XZ     0048625b f   GameSettings.obj
 0001:00085298       ?UpdateMe@CMidiVolume@@UAEXXZ 00486298 f   GameSettings.obj
 0001:000852d6       ??0CMidiBtn@@QAE@VCSkinObj@@PAVCSkinWnd@@@Z 004862d6 f   GameSettings.obj
 0001:0008537f       ?OnActivate@CMidiBtn@@UAEXFF@Z 0048637f f   GameSettings.obj
 0001:00085404       ??0CSfxBtn@@QAE@VCSkinObj@@PAVCSkinWnd@@@Z 00486404 f   GameSettings.obj
 0001:000854ad       ?OnActivate@CSfxBtn@@UAEXFF@Z 004864ad f   GameSettings.obj
 0001:00085532       ??0CAcceptBtn@@QAE@VCSkinObj@@PAVCSkinWnd@@@Z 00486532 f   GameSettings.obj
 0001:000855db       ?OnActivate@CAcceptBtn@@UAEXFF@Z 004865db f   GameSettings.obj
 0001:0008563c       ??0CLagBtn@@QAE@VCSkinObj@@PAVCSkinWnd@@@Z 0048663c f   GameSettings.obj
 0001:000856e5       ?OnActivate@CLagBtn@@UAEXFF@Z 004866e5 f   GameSettings.obj
 0001:00085746       ??0CAltEnterBtn@@QAE@VCSkinObj@@PAVCSkinWnd@@@Z 00486746 f   GameSettings.obj
 0001:000857ef       ?OnActivate@CAltEnterBtn@@UAEXFF@Z 004867ef f   GameSettings.obj
 0001:00085850       ??0CFullScreenBtn@@QAE@VCSkinObj@@PAVCSkinWnd@@@Z 00486850 f   GameSettings.obj
 0001:0008591e       ?OnActivate@CFullScreenBtn@@UAEXFF@Z 0048691e f   GameSettings.obj
 0001:00085974       ??0CTabDispBtn@@QAE@VCSkinObj@@PAVCSkinWnd@@@Z 00486974 f   GameSettings.obj
 0001:00085a1d       ?OnActivate@CTabDispBtn@@UAEXFF@Z 00486a1d f   GameSettings.obj
 0001:00085a7e       ??0CSpeedBtn@@QAE@VCSkinObj@@PAVCSkinWnd@@@Z 00486a7e f   GameSettings.obj
 0001:00085b6b       ?OnActivate@CSpeedBtn@@UAEXFF@Z 00486b6b f   GameSettings.obj
 0001:00085b8a       ??0CSetPasswordBtn@@QAE@VCSkinObj@@PAVCSkinWnd@@@Z 00486b8a f   GameSettings.obj
 0001:00085bfd       ?OnActivate@CSetPasswordBtn@@UAEXFF@Z 00486bfd f   GameSettings.obj
 0001:00085c47       ??0CGameSettingsDlg@@QAE@XZ 00486c47 f   GameSettings.obj
 0001:00085cbd       ?CloseSelf@CGameSettingsDlg@@UAEX_N@Z 00486cbd f   GameSettings.obj
 0001:00085d44       ?Create@CGameSettingsDlg@@QAEHXZ 00486d44 f   GameSettings.obj
 0001:00085f3b       ?MakeSkinCtrl@CGameSettingsDlg@@UAEPAVCSkinCtrl@@VCSkinObj@@@Z 00486f3b f   GameSettings.obj
 0001:000868af       ?EnableTabOption@CGameSettingsDlg@@QAEX_N@Z 004878af f   GameSettings.obj
 0001:0008691e       ?SetFullScreenOption@CGameSettingsDlg@@QAEX_N@Z 0048791e f   GameSettings.obj
 0001:000869af       ?EnableGameModal@CGameSettingsDlg@@UAEXHPAH@Z 004879af f   GameSettings.obj
 0001:000869d5       ?DisableGameModal@CGameSettingsDlg@@UAEXHPAH_N@Z 004879d5 f   GameSettings.obj
 0001:00086a00       ??_GCMidiBtn@@UAEPAXI@Z    00487a00 f i GameSettings.obj
 0001:00086a00       ??_ECMidiBtn@@UAEPAXI@Z    00487a00 f i GameSettings.obj
 0001:00086a30       ??1CMidiBtn@@UAE@XZ        00487a30 f i GameSettings.obj
 0001:00086a50       ??_GCSfxBtn@@UAEPAXI@Z     00487a50 f i GameSettings.obj
 0001:00086a50       ??_ECSfxBtn@@UAEPAXI@Z     00487a50 f i GameSettings.obj
 0001:00086a80       ??1CSfxBtn@@UAE@XZ         00487a80 f i GameSettings.obj
 0001:00086aa0       ??_GCAcceptBtn@@UAEPAXI@Z  00487aa0 f i GameSettings.obj
 0001:00086aa0       ??_ECAcceptBtn@@UAEPAXI@Z  00487aa0 f i GameSettings.obj
 0001:00086ad0       ??1CAcceptBtn@@UAE@XZ      00487ad0 f i GameSettings.obj
 0001:00086af0       ??_GCLagBtn@@UAEPAXI@Z     00487af0 f i GameSettings.obj
 0001:00086af0       ??_ECLagBtn@@UAEPAXI@Z     00487af0 f i GameSettings.obj
 0001:00086b20       ??1CLagBtn@@UAE@XZ         00487b20 f i GameSettings.obj
 0001:00086b40       ??_ECAltEnterBtn@@UAEPAXI@Z 00487b40 f i GameSettings.obj
 0001:00086b40       ??_GCAltEnterBtn@@UAEPAXI@Z 00487b40 f i GameSettings.obj
 0001:00086b70       ??1CAltEnterBtn@@UAE@XZ    00487b70 f i GameSettings.obj
 0001:00086b90       ??_GCFullScreenBtn@@UAEPAXI@Z 00487b90 f i GameSettings.obj
 0001:00086b90       ??_ECFullScreenBtn@@UAEPAXI@Z 00487b90 f i GameSettings.obj
 0001:00086bc0       ??1CFullScreenBtn@@UAE@XZ  00487bc0 f i GameSettings.obj
 0001:00086be0       ??_GCTabDispBtn@@UAEPAXI@Z 00487be0 f i GameSettings.obj
 0001:00086be0       ??_ECTabDispBtn@@UAEPAXI@Z 00487be0 f i GameSettings.obj
 0001:00086c10       ??1CTabDispBtn@@UAE@XZ     00487c10 f i GameSettings.obj
 0001:00086c30       ??_GCSpeedBtn@@UAEPAXI@Z   00487c30 f i GameSettings.obj
 0001:00086c30       ??_ECSpeedBtn@@UAEPAXI@Z   00487c30 f i GameSettings.obj
 0001:00086c60       ??1CSpeedBtn@@UAE@XZ       00487c60 f i GameSettings.obj
 0001:00086c80       ??_ECSetPasswordBtn@@UAEPAXI@Z 00487c80 f i GameSettings.obj
 0001:00086c80       ??_GCSetPasswordBtn@@UAEPAXI@Z 00487c80 f i GameSettings.obj
 0001:00086cb0       ??1CSetPasswordBtn@@UAE@XZ 00487cb0 f i GameSettings.obj
 0001:00086cd0       ??1CGameSettingsDlg@@UAE@XZ 00487cd0 f i GameSettings.obj
 0001:00086cd0       ??1CMailMgrWnd@@UAE@XZ     00487cd0 f i GameSettings.obj
 0001:00086cd0       ??1CChatSettingsDlg@@UAE@XZ 00487cd0 f i GameSettings.obj
 0001:00086cd0       ??1CWhatsNewDlg@@UAE@XZ    00487cd0 f i GameSettings.obj
 0001:00086cd0       ??1CGspSettingsDlg@@UAE@XZ 00487cd0 f i GameSettings.obj
 0001:00086cd0       ??1CChanListWnd@@UAE@XZ    00487cd0 f i GameSettings.obj
 0001:00086cd0       ??1CPatchDlg@@UAE@XZ       00487cd0 f i GameSettings.obj
 0001:00086cd0       ??1CGroupListWnd@@UAE@XZ   00487cd0 f i GameSettings.obj
 0001:00086cf0       ?get_AutoAccept@CToonSettings@@QAEHXZ 00487cf0 f i GameSettings.obj
 0001:00086cf0       ?PicResNum@ScreenItem@@QBEHXZ 00487cf0 f i GameSettings.obj
 0001:00086d10       ?get_LagDisplay@CToonSettings@@QAEHXZ 00487d10 f i GameSettings.obj
 0001:00086d10       ?HasSkip@CelObj@@QBEHXZ    00487d10 f i GameSettings.obj
 0001:00086d10       ?PlaneId@ScreenItem@@QBEJXZ 00487d10 f i GameSettings.obj
 0001:00086d30       ?get_AltEnter@CToonSettings@@QAEHXZ 00487d30 f i GameSettings.obj
 0001:00086d30       ?Priority@CelObjPic@@QBEHXZ 00487d30 f i GameSettings.obj
 0001:00086d50       ?ResY@CelObj@@QBEHXZ       00487d50 f i GameSettings.obj
 0001:00086d50       ?getCombat_Speed@CToonSettings@@QAEHXZ 00487d50 f i GameSettings.obj
 0001:00086d50       ?Id@ScreenItem@@QBEJXZ     00487d50 f i GameSettings.obj
 0001:00086d70       ?getSound_MidiOn@CToonSettings@@QAEHXZ 00487d70 f i GameSettings.obj
 0001:00086d70       ?EraseCount@SOL_Plane@@QBEHXZ 00487d70 f i GameSettings.obj
 0001:00086d70       ?Mirrored@CelObj@@QBEHXZ   00487d70 f i GameSettings.obj
 0001:00086d90       ?AddCount@ScreenItem@@QBEHXZ 00487d90 f i GameSettings.obj
 0001:00086d90       ?getSound_MidiVolume@CToonSettings@@QAEHXZ 00487d90 f i GameSettings.obj
 0001:00086db0       ?getSound_SfxOn@CToonSettings@@QAEHXZ 00487db0 f i GameSettings.obj
 0001:00086db0       ?CelCount@CelObjPic@@QBEHXZ 00487db0 f i GameSettings.obj
 0001:00086db0       ?DeleteCount@ScreenItem@@QBEHXZ 00487db0 f i GameSettings.obj
 0001:00086dd0       ?getSound_SfxVolume@CToonSettings@@QAEHXZ 00487dd0 f i GameSettings.obj
 0001:00086df0       ??0CSCIButtonBtn@@QAE@VCSkinObj@@PAVCSkinWnd@@@Z 00487df0 f   GenericDlg.obj
 0001:00086ebe       ?OnActivate@CSCIButtonBtn@@UAEXFF@Z 00487ebe f   GenericDlg.obj
 0001:00086eef       ??0CSCIObjectMethodPair@@QAE@VCSCI_Object@@F@Z 00487eef f   GenericDlg.obj
 0001:00086f1c       ?Execute@CSCIObjectMethodPair@@QAEXXZ 00487f1c f   GenericDlg.obj
 0001:00086f48       ?_GetBaseMessageMap@CNoButtonDlg@@KGPBUAFX_MSGMAP@@XZ 00487f48 f   GenericDlg.obj
 0001:00086f52       ?GetMessageMap@CNoButtonDlg@@MBEPBUAFX_MSGMAP@@XZ 00487f52 f   GenericDlg.obj
 0001:00086fcb       ?OnResize@CNoButtonDlg@@QAEXPAUtagNMHDR@@PAJ@Z 00487fcb f   GenericDlg.obj
 0001:00087069       ??0CNoButtonDlg@@QAE@XZ    00488069 f   GenericDlg.obj
 0001:000870fd       ??1CNoButtonDlg@@UAE@XZ    004880fd f   GenericDlg.obj
 0001:0008724d       ?CloseSelf@CNoButtonDlg@@UAEX_N@Z 0048824d f   GenericDlg.obj
 0001:000872c9       ?AddButton@CNoButtonDlg@@IAEXVCSCI_Object@@F@Z 004882c9 f   GenericDlg.obj
 0001:00087371       ?Dispose@CNoButtonDlg@@SAXVCSCI_Object@@@Z 00488371 f   GenericDlg.obj
 0001:000873ea       ?CreatePopup@CNoButtonDlg@@QAEHPBDPAD1@Z 004883ea f   GenericDlg.obj
 0001:000874a2       ?Create@CNoButtonDlg@@QAEHPBDPAD1_N@Z 004884a2 f   GenericDlg.obj
 0001:0008758f       ?Create@CNoButtonDlg@@QAEHPAD0_N@Z 0048858f f   GenericDlg.obj
 0001:000876a2       ?MakeSkinCtrl@CNoButtonDlg@@UAEPAVCSkinCtrl@@VCSkinObj@@@Z 004886a2 f   GenericDlg.obj
 0001:000878d9       ?ExecuteButton@CNoButtonDlg@@UAEXH@Z 004888d9 f   GenericDlg.obj
 0001:00087922       ??0CSingleButtonDlg@@QAE@VCSCI_Object@@F@Z 00488922 f   GenericDlg.obj
 0001:0008799b       ?Create@CSingleButtonDlg@@QAEHPAD00_N@Z 0048899b f   GenericDlg.obj
 0001:00087a13       ??0CDoubleButtonDlg@@QAE@VCSCI_Object@@F0F@Z 00488a13 f   GenericDlg.obj
 0001:00087aa8       ?Create@CDoubleButtonDlg@@QAEHPAD000_N1@Z 00488aa8 f   GenericDlg.obj
 0001:00087b76       ?CreateSkin@CDoubleButtonDlg@@QAEHPBDPAD111_N@Z 00488b76 f   GenericDlg.obj
 0001:00087bff       ?_GetBaseMessageMap@CTextDoubleButtonDlg@@KGPBUAFX_MSGMAP@@XZ 00488bff f   GenericDlg.obj
 0001:00087c09       ?GetMessageMap@CTextDoubleButtonDlg@@MBEPBUAFX_MSGMAP@@XZ 00488c09 f   GenericDlg.obj
 0001:00087c19       ??0CTextDoubleButtonDlg@@QAE@VStringID@@VCSCI_Object@@F1F@Z 00488c19 f   GenericDlg.obj
 0001:00087cbd       ?ExecuteButton@CTextDoubleButtonDlg@@UAEXH@Z 00488cbd f   GenericDlg.obj
 0001:00087d4a       ?Create@CTextDoubleButtonDlg@@QAEHPAD0H00_N1@Z 00488d4a f   GenericDlg.obj
 0001:00087df8       ?MakeSkinCtrl@CTextDoubleButtonDlg@@UAEPAVCSkinCtrl@@VCSkinObj@@@Z 00488df8 f   GenericDlg.obj
 0001:00087f7e       ?Next@CTextDoubleButtonDlg@@UAEXXZ 00488f7e f   GenericDlg.obj
 0001:00087f99       ?OnSetFocus@CTextDoubleButtonDlg@@QAEXPAVCWnd@@@Z 00488f99 f   GenericDlg.obj
 0001:00087fcc       ?_GetBaseMessageMap@CPasswordDoubleButtonDlg@@KGPBUAFX_MSGMAP@@XZ 00488fcc f   GenericDlg.obj
 0001:00087fd6       ?GetMessageMap@CPasswordDoubleButtonDlg@@MBEPBUAFX_MSGMAP@@XZ 00488fd6 f   GenericDlg.obj
 0001:00087fe6       ??0CPasswordDoubleButtonDlg@@QAE@VStringID@@VCSCI_Object@@F1F@Z 00488fe6 f   GenericDlg.obj
 0001:0008808a       ?ExecuteButton@CPasswordDoubleButtonDlg@@UAEXH@Z 0048908a f   GenericDlg.obj
 0001:00088133       ?Create@CPasswordDoubleButtonDlg@@QAEHPAD0H00_N@Z 00489133 f   GenericDlg.obj
 0001:000881c9       ?MakeSkinCtrl@CPasswordDoubleButtonDlg@@UAEPAVCSkinCtrl@@VCSkinObj@@@Z 004891c9 f   GenericDlg.obj
 0001:00088345       ?Next@CPasswordDoubleButtonDlg@@UAEXXZ 00489345 f   GenericDlg.obj
 0001:00088360       ?OnSetFocus@CPasswordDoubleButtonDlg@@QAEXPAVCWnd@@@Z 00489360 f   GenericDlg.obj
 0001:00088393       ??0CGroupQuestionDlg@@QAE@H@Z 00489393 f   GenericDlg.obj
 0001:00088413       ?ExecuteButton@CGroupQuestionDlg@@UAEXH@Z 00489413 f   GenericDlg.obj
 0001:0008845a       ?CloseSelf@CGroupQuestionDlg@@UAEX_N@Z 0048945a f   GenericDlg.obj
 0001:000884b1       ?Create@CGroupQuestionDlg@@QAEHPAD000_N1@Z 004894b1 f   GenericDlg.obj
 0001:0008857f       ??0CSkinEditField@@QAE@VCSkinObj@@PAVCSkinWnd@@IK_N2@Z 0048957f f   GenericDlg.obj
 0001:00088622       ?OnReturn@CSkinEditField@@UAEXXZ 00489622 f   GenericDlg.obj
 0001:00088641       ?OnEscape@CSkinEditField@@UAEXXZ 00489641 f   GenericDlg.obj
 0001:00088662       ?_GetBaseMessageMap@CGenericDlg@@KGPBUAFX_MSGMAP@@XZ 00489662 f   GenericDlg.obj
 0001:0008866c       ?GetMessageMap@CGenericDlg@@MBEPBUAFX_MSGMAP@@XZ 0048966c f   GenericDlg.obj
 0001:0008867c       ?OnResize@CGenericDlg@@QAEXPAUtagNMHDR@@PAJ@Z 0048967c f   GenericDlg.obj
 0001:00088741       ??0CGenericDlg@@QAE@XZ     00489741 f   GenericDlg.obj
 0001:0008876d       ?CloseSelf@CGenericDlg@@UAEX_N@Z 0048976d f   GenericDlg.obj
 0001:00088784       ?Create@CGenericDlg@@QAEHPBD0_N1@Z 00489784 f   GenericDlg.obj
 0001:000888ad       ?Create@CGenericDlg@@QAEHPBDVCSCI_Object@@_N2@Z 004898ad f   GenericDlg.obj
 0001:00088aef       ?MakeSkinCtrl@CGenericDlg@@UAEPAVCSkinCtrl@@VCSkinObj@@@Z 00489aef f   GenericDlg.obj
 0001:00088df8       ??0CQuestDlg@@QAE@XZ       00489df8 f   GenericDlg.obj
 0001:00088e6b       ?CloseSelf@CQuestDlg@@UAEX_N@Z 00489e6b f   GenericDlg.obj
 0001:00088e8c       ??0CDeadDlg@@QAE@XZ        00489e8c f   GenericDlg.obj
 0001:00088ee6       ?Create@CDeadDlg@@QAEHVCSCI_Script@@@Z 00489ee6 f   GenericDlg.obj
 0001:00088f69       ?MakeSkinCtrl@CDeadDlg@@UAEPAVCSkinCtrl@@VCSkinObj@@@Z 00489f69 f   GenericDlg.obj
 0001:0008918b       ??0CPerformBtn@@QAE@VCSkinObj@@PAVCSkinWnd@@VCSCI_Script@@@Z 0048a18b f   GenericDlg.obj
 0001:00089211       ?OnActivate@CPerformBtn@@UAEXFF@Z 0048a211 f   GenericDlg.obj
 0001:0008924a       ??0CCueBtn@@QAE@VCSkinObj@@PAVCSkinWnd@@VCSCI_Script@@@Z 0048a24a f   GenericDlg.obj
 0001:000892d0       ?OnActivate@CCueBtn@@UAEXFF@Z 0048a2d0 f   GenericDlg.obj
 0001:00089307       ??0CLeaveBtn@@QAE@VCSkinObj@@PAVCSkinWnd@@@Z 0048a307 f   GenericDlg.obj
 0001:0008937a       ?OnActivate@CLeaveBtn@@UAEXFF@Z 0048a37a f   GenericDlg.obj
 0001:0008938f       ??0CNetworkErrorDlg@@QAE@XZ 0048a38f f   GenericDlg.obj
 0001:000893c4       ?CloseSelf@CNetworkErrorDlg@@UAEX_N@Z 0048a3c4 f   GenericDlg.obj
 0001:000893e7       ?Create@CNetworkErrorDlg@@QAEHXZ 0048a3e7 f   GenericDlg.obj
 0001:000894b9       ?MakeSkinCtrl@CNetworkErrorDlg@@UAEPAVCSkinCtrl@@VCSkinObj@@@Z 0048a4b9 f   GenericDlg.obj
 0001:000897f0       ??_ECSkinChangeButton@@UAEPAXI@Z 0048a7f0 f i GenericDlg.obj
 0001:000897f0       ??_GCSCIButtonBtn@@UAEPAXI@Z 0048a7f0 f i GenericDlg.obj
 0001:000897f0       ??_GCTabDlgBtn@@UAEPAXI@Z  0048a7f0 f i GenericDlg.obj
 0001:000897f0       ??_ECTabDlgBtn@@UAEPAXI@Z  0048a7f0 f i GenericDlg.obj
 0001:000897f0       ??_GCSkinScrollBar@@UAEPAXI@Z 0048a7f0 f i GenericDlg.obj
 0001:000897f0       ??_GCSkinChangeButton@@UAEPAXI@Z 0048a7f0 f i GenericDlg.obj
 0001:000897f0       ??_ECSkinScrollBar@@UAEPAXI@Z 0048a7f0 f i GenericDlg.obj
 0001:000897f0       ??_ECSCIButtonBtn@@UAEPAXI@Z 0048a7f0 f i GenericDlg.obj
 0001:00089820       ??1?$map@VCSCI_Object@@PAVCNoButtonDlg@@U?$less@VCSCI_Object@@@std@@V?$allocator@PAVCNoButtonDlg@@@4@@std@@QAE@XZ 0048a820 f i GenericDlg.obj
 0001:00089840       ??_GCNoButtonDlg@@UAEPAXI@Z 0048a840 f i GenericDlg.obj
 0001:00089840       ??_ECNoButtonDlg@@UAEPAXI@Z 0048a840 f i GenericDlg.obj
 0001:00089870       ??_ECSingleButtonDlg@@UAEPAXI@Z 0048a870 f i GenericDlg.obj
 0001:00089870       ??_GCSingleButtonDlg@@UAEPAXI@Z 0048a870 f i GenericDlg.obj
 0001:000898a0       ??1CSingleButtonDlg@@UAE@XZ 0048a8a0 f i GenericDlg.obj
 0001:000898c0       ??_ECTextDoubleButtonDlg@@UAEPAXI@Z 0048a8c0 f i GenericDlg.obj
 0001:000898c0       ??_GCTextDoubleButtonDlg@@UAEPAXI@Z 0048a8c0 f i GenericDlg.obj
 0001:000898f0       ??1CTextDoubleButtonDlg@@UAE@XZ 0048a8f0 f i GenericDlg.obj
 0001:00089910       ??_ECPasswordDoubleButtonDlg@@UAEPAXI@Z 0048a910 f i GenericDlg.obj
 0001:00089910       ??_GCPasswordDoubleButtonDlg@@UAEPAXI@Z 0048a910 f i GenericDlg.obj
 0001:00089940       ??1CPasswordDoubleButtonDlg@@UAE@XZ 0048a940 f i GenericDlg.obj
 0001:00089960       ??_ECGroupQuestionDlg@@UAEPAXI@Z 0048a960 f i GenericDlg.obj
 0001:00089960       ??_GCGroupQuestionDlg@@UAEPAXI@Z 0048a960 f i GenericDlg.obj
 0001:00089990       ??1CGroupQuestionDlg@@UAE@XZ 0048a990 f i GenericDlg.obj
 0001:000899b0       ??_GCSkinEditField@@UAEPAXI@Z 0048a9b0 f i GenericDlg.obj
 0001:000899b0       ??_ECSkinEditField@@UAEPAXI@Z 0048a9b0 f i GenericDlg.obj
 0001:000899e0       ??1CSkinEditField@@UAE@XZ  0048a9e0 f i GenericDlg.obj
 0001:00089a00       ??1CQuantityDlg@@UAE@XZ    0048aa00 f i GenericDlg.obj
 0001:00089a00       ??1CGspViewerDlg@@UAE@XZ   0048aa00 f i GenericDlg.obj
 0001:00089a00       ??1CNetworkErrorDlg@@UAE@XZ 0048aa00 f i GenericDlg.obj
 0001:00089a00       ??1CMainWindow@@UAE@XZ     0048aa00 f i GenericDlg.obj
 0001:00089a00       ??1CChBannedListWnd@@UAE@XZ 0048aa00 f i GenericDlg.obj
 0001:00089a00       ??1CRoomWindow@@UAE@XZ     0048aa00 f i GenericDlg.obj
 0001:00089a00       ??1CChangePasswordDlg@@UAE@XZ 0048aa00 f i GenericDlg.obj
 0001:00089a00       ??1CLookAtFiller@@UAE@XZ   0048aa00 f i GenericDlg.obj
 0001:00089a00       ??1CGenericDlg@@UAE@XZ     0048aa00 f i GenericDlg.obj
 0001:00089a00       ??1CSplashDlg@@UAE@XZ      0048aa00 f i GenericDlg.obj
 0001:00089a00       ??1CChMemberListWnd@@UAE@XZ 0048aa00 f i GenericDlg.obj
 0001:00089a00       ??1CBuyLookAtItem@@UAE@XZ  0048aa00 f i GenericDlg.obj
 0001:00089a20       ??_ECQuestDlg@@UAEPAXI@Z   0048aa20 f i GenericDlg.obj
 0001:00089a20       ??_GCCreditsDlg@@UAEPAXI@Z 0048aa20 f i GenericDlg.obj
 0001:00089a20       ??_GCQuestDlg@@UAEPAXI@Z   0048aa20 f i GenericDlg.obj
 0001:00089a20       ??_GCEmotesDlg@@UAEPAXI@Z  0048aa20 f i GenericDlg.obj
 0001:00089a20       ??_ECCreditsDlg@@UAEPAXI@Z 0048aa20 f i GenericDlg.obj
 0001:00089a20       ??_ECEmotesDlg@@UAEPAXI@Z  0048aa20 f i GenericDlg.obj
 0001:00089a50       ??1CCreditsDlg@@UAE@XZ     0048aa50 f i GenericDlg.obj
 0001:00089a50       ??1CEmotesDlg@@UAE@XZ      0048aa50 f i GenericDlg.obj
 0001:00089a50       ??1CQuestDlg@@UAE@XZ       0048aa50 f i GenericDlg.obj
 0001:00089a70       ??_GCDeadDlg@@UAEPAXI@Z    0048aa70 f i GenericDlg.obj
 0001:00089a70       ??_ECDeadDlg@@UAEPAXI@Z    0048aa70 f i GenericDlg.obj
 0001:00089aa0       ??1CDeadDlg@@UAE@XZ        0048aaa0 f i GenericDlg.obj
 0001:00089ac0       ??_ECPerformBtn@@UAEPAXI@Z 0048aac0 f i GenericDlg.obj
 0001:00089ac0       ??_GCPerformBtn@@UAEPAXI@Z 0048aac0 f i GenericDlg.obj
 0001:00089af0       ??1CPerformBtn@@UAE@XZ     0048aaf0 f i GenericDlg.obj
 0001:00089b10       ??_GCCueBtn@@UAEPAXI@Z     0048ab10 f i GenericDlg.obj
 0001:00089b10       ??_ECCueBtn@@UAEPAXI@Z     0048ab10 f i GenericDlg.obj
 0001:00089b40       ??1CCueBtn@@UAE@XZ         0048ab40 f i GenericDlg.obj
 0001:00089b60       ??_GCLeaveBtn@@UAEPAXI@Z   0048ab60 f i GenericDlg.obj
 0001:00089b60       ??_ECLeaveBtn@@UAEPAXI@Z   0048ab60 f i GenericDlg.obj
 0001:00089b90       ??1CLeaveBtn@@UAE@XZ       0048ab90 f i GenericDlg.obj
 0001:00089bb0       ?end@?$vector@PAVCSkinBitmap@@V?$allocator@PAVCSkinBitmap@@@std@@@std@@QAEPAPAVCSkinBitmap@@XZ 0048abb0 f i GenericDlg.obj
 0001:00089bb0       ?size@?$list@PAVCInventoryDlg@@V?$allocator@PAVCInventoryDlg@@@std@@@std@@QBEIXZ 0048abb0 f i GenericDlg.obj
 0001:00089bb0       ?size@?$list@PAVCMailMsg@@V?$allocator@PAVCMailMsg@@@std@@@std@@QBEIXZ 0048abb0 f i GenericDlg.obj
 0001:00089bb0       ?size@?$list@PAVCLookAtItem@@V?$allocator@PAVCLookAtItem@@@std@@@std@@QBEIXZ 0048abb0 f i GenericDlg.obj
 0001:00089bb0       ?size@?$list@PAVCListData@@V?$allocator@PAVCListData@@@std@@@std@@QBEIXZ 0048abb0 f i GenericDlg.obj
 0001:00089bb0       ?size@?$list@PADV?$allocator@PAD@std@@@std@@QBEIXZ 0048abb0 f i GenericDlg.obj
 0001:00089bb0       ?end@?$vector@PAVCSkinCtrl@@V?$allocator@PAVCSkinCtrl@@@std@@@std@@QAEPAPAVCSkinCtrl@@XZ 0048abb0 f i GenericDlg.obj
 0001:00089bb0       ?end@?$vector@PAVCVerbBtn@@V?$allocator@PAVCVerbBtn@@@std@@@std@@QAEPAPAVCVerbBtn@@XZ 0048abb0 f i GenericDlg.obj
 0001:00089bb0       ?end@?$vector@PAVCTabBtn@@V?$allocator@PAVCTabBtn@@@std@@@std@@QAEPAPAVCTabBtn@@XZ 0048abb0 f i GenericDlg.obj
 0001:00089bb0       ?size@?$list@PAVCVerbRequest@@V?$allocator@PAVCVerbRequest@@@std@@@std@@QBEIXZ 0048abb0 f i GenericDlg.obj
 0001:00089bb0       ?end@?$vector@PAVCTabEntry@@V?$allocator@PAVCTabEntry@@@std@@@std@@QAEPAPAVCTabEntry@@XZ 0048abb0 f i GenericDlg.obj
 0001:00089bb0       ?XDim@Buffer@@QBEHXZ       0048abb0 f i GenericDlg.obj
 0001:00089bb0       ?end@?$vector@PAVCSCIObjectMethod@@V?$allocator@PAVCSCIObjectMethod@@@std@@@std@@QAEPAPAVCSCIObjectMethod@@XZ 0048abb0 f i GenericDlg.obj
 0001:00089bb0       ?Version@HunkPalette@@QBEJXZ 0048abb0 f i GenericDlg.obj
 0001:00089bb0       ?end@?$vector@PAVCSCIObjectMethodPair@@V?$allocator@PAVCSCIObjectMethodPair@@@std@@@std@@QAEPAPAVCSCIObjectMethodPair@@XZ 0048abb0 f i GenericDlg.obj
 0001:00089bb0       ?end@?$vector@VCSkinObj@@V?$allocator@VCSkinObj@@@std@@@std@@QAEPAVCSkinObj@@XZ 0048abb0 f i GenericDlg.obj
 0001:00089bb0       ?end@?$vector@VCSCI_WorldActor@@V?$allocator@VCSCI_WorldActor@@@std@@@std@@QAEPAVCSCI_WorldActor@@XZ 0048abb0 f i GenericDlg.obj
 0001:00089bb0       ?end@?$vector@PAVCPoint@@V?$allocator@PAVCPoint@@@std@@@std@@QAEPAPAVCPoint@@XZ 0048abb0 f i GenericDlg.obj
 0001:00089bb0       ?Loop@Bitmap@@QBEHXZ       0048abb0 f i GenericDlg.obj
 0001:00089bb0       ?size@?$list@PAVCSkinWnd@@V?$allocator@PAVCSkinWnd@@@std@@@std@@QBEIXZ 0048abb0 f i GenericDlg.obj
 0001:00089bd0       ?push_back@?$vector@PAVCSCIObjectMethodPair@@V?$allocator@PAVCSCIObjectMethodPair@@@std@@@std@@QAEXABQAVCSCIObjectMethodPair@@@Z 0048abd0 f i GenericDlg.obj
 0001:00089c00       ?clear@?$vector@PAVCPoint@@V?$allocator@PAVCPoint@@@std@@@std@@QAEXXZ 0048ac00 f i GenericDlg.obj
 0001:00089c00       ?clear@?$vector@PAVCSCIObjectMethod@@V?$allocator@PAVCSCIObjectMethod@@@std@@@std@@QAEXXZ 0048ac00 f i GenericDlg.obj
 0001:00089c00       ?clear@?$vector@PAVCSkinBitmap@@V?$allocator@PAVCSkinBitmap@@@std@@@std@@QAEXXZ 0048ac00 f i GenericDlg.obj
 0001:00089c00       ?clear@?$vector@PAVCSCIObjectMethodPair@@V?$allocator@PAVCSCIObjectMethodPair@@@std@@@std@@QAEXXZ 0048ac00 f i GenericDlg.obj
 0001:00089c00       ?clear@?$vector@PAVCTabEntry@@V?$allocator@PAVCTabEntry@@@std@@@std@@QAEXXZ 0048ac00 f i GenericDlg.obj
 0001:00089c30       ??0?$map@VCSCI_Object@@PAVCNoButtonDlg@@U?$less@VCSCI_Object@@@std@@V?$allocator@PAVCNoButtonDlg@@@4@@std@@QAE@ABU?$less@VCSCI_Object@@@1@ABV?$allocator@PAVCNoButtonDlg@@@1@@Z 0048ac30 f i GenericDlg.obj
 0001:00089c60       ?end@?$map@V?$basic_string@DU?$char_traits@D@std@@V?$allocator@D@2@@std@@HU?$less@V?$basic_string@DU?$char_traits@D@std@@V?$allocator@D@2@@std@@@2@V?$allocator@H@2@@std@@QAE?AViterator@?$_Tree@V?$basic_string@DU?$char_traits@D@std@@V?$allocator@D@2@@std@@U?$pair@$$CBV?$basic_string@DU?$char_traits@D@std@@V?$allocator@D@2@@std@@H@2@U_Kfn@?$map@V?$basic_string@DU?$char_traits@D@std@@V?$allocator@D@2@@std@@HU?$less@V?$basic_string@DU?$char_traits@D@std@@V?$allocator@D@2@@std@@@2@V?$allocator@H@2@@2@U?$less@V?$basic_string@DU?$char_traits@D@std@@V?$allocator@D@2@@std@@@2@V?$allocator@H@2@@2@XZ 0048ac60 f i GenericDlg.obj
 0001:00089c60       ?end@?$map@PAUHWND__@@PAVCMouseWheelable@@U?$less@PAUHWND__@@@std@@V?$allocator@PAVCMouseWheelable@@@4@@std@@QAE?AViterator@?$_Tree@PAUHWND__@@U?$pair@QAUHWND__@@PAVCMouseWheelable@@@std@@U_Kfn@?$map@PAUHWND__@@PAVCMouseWheelable@@U?$less@PAUHWND__@@@std@@V?$allocator@PAVCMouseWheelable@@@4@@3@U?$less@PAUHWND__@@@3@V?$allocator@PAVCMouseWheelable@@@3@@2@XZ 0048ac60 f i GenericDlg.obj
 0001:00089c60       ?end@?$map@VCSCI_Object@@PAVCNoButtonDlg@@U?$less@VCSCI_Object@@@std@@V?$allocator@PAVCNoButtonDlg@@@4@@std@@QAE?AViterator@?$_Tree@VCSCI_Object@@U?$pair@$$CBVCSCI_Object@@PAVCNoButtonDlg@@@std@@U_Kfn@?$map@VCSCI_Object@@PAVCNoButtonDlg@@U?$less@VCSCI_Object@@@std@@V?$allocator@PAVCNoButtonDlg@@@4@@3@U?$less@VCSCI_Object@@@3@V?$allocator@PAVCNoButtonDlg@@@3@@2@XZ 0048ac60 f i GenericDlg.obj
 0001:00089c60       ?end@?$map@VCSCI_WorldObject@@PAVCInventoryDlg@@U?$less@VCSCI_WorldObject@@@std@@V?$allocator@PAVCInventoryDlg@@@4@@std@@QAE?AViterator@?$_Tree@VCSCI_WorldObject@@U?$pair@$$CBVCSCI_WorldObject@@PAVCInventoryDlg@@@std@@U_Kfn@?$map@VCSCI_WorldObject@@PAVCInventoryDlg@@U?$less@VCSCI_WorldObject@@@std@@V?$allocator@PAVCInventoryDlg@@@4@@3@U?$less@VCSCI_WorldObject@@@3@V?$allocator@PAVCInventoryDlg@@@3@@2@XZ 0048ac60 f i GenericDlg.obj
 0001:00089c60       ?end@?$map@HPAVCVerb@@U?$less@H@std@@V?$allocator@PAVCVerb@@@3@@std@@QAE?AViterator@?$_Tree@HU?$pair@$$CBHPAVCVerb@@@std@@U_Kfn@?$map@HPAVCVerb@@U?$less@H@std@@V?$allocator@PAVCVerb@@@3@@2@U?$less@H@2@V?$allocator@PAVCVerb@@@2@@2@XZ 0048ac60 f i GenericDlg.obj
 0001:00089c60       ?end@?$map@PAUHWND__@@PAVCDropTarget@@U?$less@PAUHWND__@@@std@@V?$allocator@PAVCDropTarget@@@4@@std@@QAE?AViterator@?$_Tree@PAUHWND__@@U?$pair@QAUHWND__@@PAVCDropTarget@@@std@@U_Kfn@?$map@PAUHWND__@@PAVCDropTarget@@U?$less@PAUHWND__@@@std@@V?$allocator@PAVCDropTarget@@@4@@3@U?$less@PAUHWND__@@@3@V?$allocator@PAVCDropTarget@@@3@@2@XZ 0048ac60 f i GenericDlg.obj
 0001:00089c60       ?end@?$set@PAVCSkinWnd@@U?$less@PAVCSkinWnd@@@std@@V?$allocator@PAVCSkinWnd@@@3@@std@@QAE?AViterator@?$_Tree@PAVCSkinWnd@@PAV1@U_Kfn@?$set@PAVCSkinWnd@@U?$less@PAVCSkinWnd@@@std@@V?$allocator@PAVCSkinWnd@@@3@@std@@U?$less@PAVCSkinWnd@@@4@V?$allocator@PAVCSkinWnd@@@4@@2@XZ 0048ac60 f i GenericDlg.obj
 0001:00089c60       ?end@?$map@VCSkinObj@@PAVCFastScrollCtrl@@U?$less@VCSkinObj@@@std@@V?$allocator@PAVCFastScrollCtrl@@@4@@std@@QAE?AViterator@?$_Tree@VCSkinObj@@U?$pair@$$CBVCSkinObj@@PAVCFastScrollCtrl@@@std@@U_Kfn@?$map@VCSkinObj@@PAVCFastScrollCtrl@@U?$less@VCSkinObj@@@std@@V?$allocator@PAVCFastScrollCtrl@@@4@@3@U?$less@VCSkinObj@@@3@V?$allocator@PAVCFastScrollCtrl@@@3@@2@XZ 0048ac60 f i GenericDlg.obj
 0001:00089c60       ?end@?$set@PAVCSkinCtrl@@U?$less@PAVCSkinCtrl@@@std@@V?$allocator@PAVCSkinCtrl@@@3@@std@@QAE?AViterator@?$_Tree@PAVCSkinCtrl@@PAV1@U_Kfn@?$set@PAVCSkinCtrl@@U?$less@PAVCSkinCtrl@@@std@@V?$allocator@PAVCSkinCtrl@@@3@@std@@U?$less@PAVCSkinCtrl@@@4@V?$allocator@PAVCSkinCtrl@@@4@@2@XZ 0048ac60 f i GenericDlg.obj
 0001:00089c60       ?end@?$map@VCSkinObj@@PAVCSkinCtrl@@U?$less@VCSkinObj@@@std@@V?$allocator@PAVCSkinCtrl@@@4@@std@@QAE?AViterator@?$_Tree@VCSkinObj@@U?$pair@$$CBVCSkinObj@@PAVCSkinCtrl@@@std@@U_Kfn@?$map@VCSkinObj@@PAVCSkinCtrl@@U?$less@VCSkinObj@@@std@@V?$allocator@PAVCSkinCtrl@@@4@@3@U?$less@VCSkinObj@@@3@V?$allocator@PAVCSkinCtrl@@@3@@2@XZ 0048ac60 f i GenericDlg.obj
 0001:00089c60       ?end@?$map@V?$basic_string@DU?$char_traits@D@std@@V?$allocator@D@2@@std@@VCPoint@@U?$less@V?$basic_string@DU?$char_traits@D@std@@V?$allocator@D@2@@std@@@2@V?$allocator@VCPoint@@@2@@std@@QAE?AViterator@?$_Tree@V?$basic_string@DU?$char_traits@D@std@@V?$allocator@D@2@@std@@U?$pair@$$CBV?$basic_string@DU?$char_traits@D@std@@V?$allocator@D@2@@std@@VCPoint@@@2@U_Kfn@?$map@V?$basic_string@DU?$char_traits@D@std@@V?$allocator@D@2@@std@@VCPoint@@U?$less@V?$basic_string@DU?$char_traits@D@std@@V?$allocator@D@2@@std@@@2@V?$allocator@VCPoint@@@2@@2@U?$less@V?$basic_string@DU?$char_traits@D@std@@V?$allocator@D@2@@std@@@2@V?$allocator@VCPoint@@@2@@2@XZ 0048ac60 f i GenericDlg.obj
 0001:00089c60       ?end@?$map@VCString@@VCPerson@@U?$less@VCString@@@std@@V?$allocator@VCPerson@@@4@@std@@QAE?AViterator@?$_Tree@VCString@@U?$pair@$$CBVCString@@VCPerson@@@std@@U_Kfn@?$map@VCString@@VCPerson@@U?$less@VCString@@@std@@V?$allocator@VCPerson@@@4@@3@U?$less@VCString@@@3@V?$allocator@VCPerson@@@3@@2@XZ 0048ac60 f i GenericDlg.obj
 0001:00089c60       ?end@?$map@HVCSCI_WorldObject@@U?$less@H@std@@V?$allocator@VCSCI_WorldObject@@@3@@std@@QAE?AViterator@?$_Tree@HU?$pair@$$CBHVCSCI_WorldObject@@@std@@U_Kfn@?$map@HVCSCI_WorldObject@@U?$less@H@std@@V?$allocator@VCSCI_WorldObject@@@3@@2@U?$less@H@2@V?$allocator@VCSCI_WorldObject@@@2@@2@XZ 0048ac60 f i GenericDlg.obj
 0001:00089c60       ?end@?$map@PAUHWND__@@PAVCSkinWnd@@U?$less@PAUHWND__@@@std@@V?$allocator@PAVCSkinWnd@@@4@@std@@QAE?AViterator@?$_Tree@PAUHWND__@@U?$pair@QAUHWND__@@PAVCSkinWnd@@@std@@U_Kfn@?$map@PAUHWND__@@PAVCSkinWnd@@U?$less@PAUHWND__@@@std@@V?$allocator@PAVCSkinWnd@@@4@@3@U?$less@PAUHWND__@@@3@V?$allocator@PAVCSkinWnd@@@3@@2@XZ 0048ac60 f i GenericDlg.obj
 0001:00089c60       ?end@?$map@V?$basic_string@DU?$char_traits@D@std@@V?$allocator@D@2@@std@@PAVCPrivateTell@@U?$less@V?$basic_string@DU?$char_traits@D@std@@V?$allocator@D@2@@std@@@2@V?$allocator@PAVCPrivateTell@@@2@@std@@QAE?AViterator@?$_Tree@V?$basic_string@DU?$char_traits@D@std@@V?$allocator@D@2@@std@@U?$pair@$$CBV?$basic_string@DU?$char_traits@D@std@@V?$allocator@D@2@@std@@PAVCPrivateTell@@@2@U_Kfn@?$map@V?$basic_string@DU?$char_traits@D@std@@V?$allocator@D@2@@std@@PAVCPrivateTell@@U?$less@V?$basic_string@DU?$char_traits@D@std@@V?$allocator@D@2@@std@@@2@V?$allocator@PAVCPrivateTell@@@2@@2@U?$less@V?$basic_string@DU?$char_traits@D@std@@V?$allocator@D@2@@std@@@2@V?$allocator@PAVCPrivateTell@@@2@@2@XZ 0048ac60 f i GenericDlg.obj
 0001:00089c90       ??A?$map@VCSCI_Object@@PAVCNoButtonDlg@@U?$less@VCSCI_Object@@@std@@V?$allocator@PAVCNoButtonDlg@@@4@@std@@QAEAAPAVCNoButtonDlg@@ABVCSCI_Object@@@Z 0048ac90 f i GenericDlg.obj
 0001:00089ce0       ?erase@?$map@VCSCI_Object@@PAVCNoButtonDlg@@U?$less@VCSCI_Object@@@std@@V?$allocator@PAVCNoButtonDlg@@@4@@std@@QAE?AViterator@?$_Tree@VCSCI_Object@@U?$pair@$$CBVCSCI_Object@@PAVCNoButtonDlg@@@std@@U_Kfn@?$map@VCSCI_Object@@PAVCNoButtonDlg@@U?$less@VCSCI_Object@@@std@@V?$allocator@PAVCNoButtonDlg@@@4@@3@U?$less@VCSCI_Object@@@3@V?$allocator@PAVCNoButtonDlg@@@3@@2@V342@@Z 0048ace0 f i GenericDlg.obj
 0001:00089d10       ?find@?$map@VCSCI_Object@@PAVCNoButtonDlg@@U?$less@VCSCI_Object@@@std@@V?$allocator@PAVCNoButtonDlg@@@4@@std@@QAE?AViterator@?$_Tree@VCSCI_Object@@U?$pair@$$CBVCSCI_Object@@PAVCNoButtonDlg@@@std@@U_Kfn@?$map@VCSCI_Object@@PAVCNoButtonDlg@@U?$less@VCSCI_Object@@@std@@V?$allocator@PAVCNoButtonDlg@@@4@@3@U?$less@VCSCI_Object@@@3@V?$allocator@PAVCNoButtonDlg@@@3@@2@ABVCSCI_Object@@@Z 0048ad10 f i GenericDlg.obj
 0001:00089d40       ??1?$_Tree@VCSCI_Object@@U?$pair@$$CBVCSCI_Object@@PAVCNoButtonDlg@@@std@@U_Kfn@?$map@VCSCI_Object@@PAVCNoButtonDlg@@U?$less@VCSCI_Object@@@std@@V?$allocator@PAVCNoButtonDlg@@@4@@3@U?$less@VCSCI_Object@@@3@V?$allocator@PAVCNoButtonDlg@@@3@@std@@QAE@XZ 0048ad40 f i GenericDlg.obj
 0001:00089e10       ?insert@?$vector@PAVCSCIObjectMethodPair@@V?$allocator@PAVCSCIObjectMethodPair@@@std@@@std@@QAEPAPAVCSCIObjectMethodPair@@PAPAV3@ABQAV3@@Z 0048ae10 f i GenericDlg.obj
 0001:00089e60       ?insert@?$map@VCSCI_Object@@PAVCNoButtonDlg@@U?$less@VCSCI_Object@@@std@@V?$allocator@PAVCNoButtonDlg@@@4@@std@@QAE?AU?$pair@Viterator@?$_Tree@VCSCI_Object@@U?$pair@$$CBVCSCI_Object@@PAVCNoButtonDlg@@@std@@U_Kfn@?$map@VCSCI_Object@@PAVCNoButtonDlg@@U?$less@VCSCI_Object@@@std@@V?$allocator@PAVCNoButtonDlg@@@4@@3@U?$less@VCSCI_Object@@@3@V?$allocator@PAVCNoButtonDlg@@@3@@std@@_N@2@ABU?$pair@$$CBVCSCI_Object@@PAVCNoButtonDlg@@@2@@Z 0048ae60 f i GenericDlg.obj
 0001:00089eb0       ??0?$_Tree@VCSCI_Object@@U?$pair@$$CBVCSCI_Object@@PAVCNoButtonDlg@@@std@@U_Kfn@?$map@VCSCI_Object@@PAVCNoButtonDlg@@U?$less@VCSCI_Object@@@std@@V?$allocator@PAVCNoButtonDlg@@@4@@3@U?$less@VCSCI_Object@@@3@V?$allocator@PAVCNoButtonDlg@@@3@@std@@QAE@ABU?$less@VCSCI_Object@@@1@_NABV?$allocator@PAVCNoButtonDlg@@@1@@Z 0048aeb0 f i GenericDlg.obj
 0001:00089ef0       ?erase@?$_Tree@VCSCI_Object@@U?$pair@$$CBVCSCI_Object@@PAVCNoButtonDlg@@@std@@U_Kfn@?$map@VCSCI_Object@@PAVCNoButtonDlg@@U?$less@VCSCI_Object@@@std@@V?$allocator@PAVCNoButtonDlg@@@4@@3@U?$less@VCSCI_Object@@@3@V?$allocator@PAVCNoButtonDlg@@@3@@std@@QAE?AViterator@12@V312@@Z 0048aef0 f i GenericDlg.obj
 0001:0008a740       ?erase@?$_Tree@VCSCI_Object@@U?$pair@$$CBVCSCI_Object@@PAVCNoButtonDlg@@@std@@U_Kfn@?$map@VCSCI_Object@@PAVCNoButtonDlg@@U?$less@VCSCI_Object@@@std@@V?$allocator@PAVCNoButtonDlg@@@4@@3@U?$less@VCSCI_Object@@@3@V?$allocator@PAVCNoButtonDlg@@@3@@std@@QAE?AViterator@12@V312@0@Z 0048b740 f i GenericDlg.obj
 0001:0008a880       ?find@?$_Tree@VCSCI_Object@@U?$pair@$$CBVCSCI_Object@@PAVCNoButtonDlg@@@std@@U_Kfn@?$map@VCSCI_Object@@PAVCNoButtonDlg@@U?$less@VCSCI_Object@@@std@@V?$allocator@PAVCNoButtonDlg@@@4@@3@U?$less@VCSCI_Object@@@3@V?$allocator@PAVCNoButtonDlg@@@3@@std@@QAE?AViterator@12@ABVCSCI_Object@@@Z 0048b880 f i GenericDlg.obj
 0001:0008a920       ??0?$pair@$$CBVCSCI_Object@@PAVCNoButtonDlg@@@std@@QAE@ABVCSCI_Object@@ABQAVCNoButtonDlg@@@Z 0048b920 f i GenericDlg.obj
 0001:0008a950       ?size@?$_Tree@VCSCI_Object@@U?$pair@$$CBVCSCI_Object@@PAVCNoButtonDlg@@@std@@U_Kfn@?$map@VCSCI_Object@@PAVCNoButtonDlg@@U?$less@VCSCI_Object@@@std@@V?$allocator@PAVCNoButtonDlg@@@4@@3@U?$less@VCSCI_Object@@@3@V?$allocator@PAVCNoButtonDlg@@@3@@std@@QBEIXZ 0048b950 f i GenericDlg.obj
 0001:0008a970       ?insert@?$_Tree@VCSCI_Object@@U?$pair@$$CBVCSCI_Object@@PAVCNoButtonDlg@@@std@@U_Kfn@?$map@VCSCI_Object@@PAVCNoButtonDlg@@U?$less@VCSCI_Object@@@std@@V?$allocator@PAVCNoButtonDlg@@@4@@3@U?$less@VCSCI_Object@@@3@V?$allocator@PAVCNoButtonDlg@@@3@@std@@QAE?AU?$pair@Viterator@?$_Tree@VCSCI_Object@@U?$pair@$$CBVCSCI_Object@@PAVCNoButtonDlg@@@std@@U_Kfn@?$map@VCSCI_Object@@PAVCNoButtonDlg@@U?$less@VCSCI_Object@@@std@@V?$allocator@PAVCNoButtonDlg@@@4@@3@U?$less@VCSCI_Object@@@3@V?$allocator@PAVCNoButtonDlg@@@3@@std@@_N@2@ABU?$pair@$$CBVCSCI_Object@@PAVCNoButtonDlg@@@2@@Z 0048b970 f i GenericDlg.obj
 0001:0008abb0       ?lower_bound@?$_Tree@VCSCI_Object@@U?$pair@$$CBVCSCI_Object@@PAVCNoButtonDlg@@@std@@U_Kfn@?$map@VCSCI_Object@@PAVCNoButtonDlg@@U?$less@VCSCI_Object@@@std@@V?$allocator@PAVCNoButtonDlg@@@4@@3@U?$less@VCSCI_Object@@@3@V?$allocator@PAVCNoButtonDlg@@@3@@std@@QAE?AViterator@12@ABVCSCI_Object@@@Z 0048bbb0 f i GenericDlg.obj
 0001:0008abe0       ?_Erase@?$_Tree@VCSCI_Object@@U?$pair@$$CBVCSCI_Object@@PAVCNoButtonDlg@@@std@@U_Kfn@?$map@VCSCI_Object@@PAVCNoButtonDlg@@U?$less@VCSCI_Object@@@std@@V?$allocator@PAVCNoButtonDlg@@@4@@3@U?$less@VCSCI_Object@@@3@V?$allocator@PAVCNoButtonDlg@@@3@@std@@IAEXPAU_Node@12@@Z 0048bbe0 f i GenericDlg.obj
 0001:0008aca0       ?_Init@?$_Tree@VCSCI_Object@@U?$pair@$$CBVCSCI_Object@@PAVCNoButtonDlg@@@std@@U_Kfn@?$map@VCSCI_Object@@PAVCNoButtonDlg@@U?$less@VCSCI_Object@@@std@@V?$allocator@PAVCNoButtonDlg@@@4@@3@U?$less@VCSCI_Object@@@3@V?$allocator@PAVCNoButtonDlg@@@3@@std@@IAEXXZ 0048bca0 f i GenericDlg.obj
 0001:0008ad80       ?_Lrotate@?$_Tree@VCSCI_Object@@U?$pair@$$CBVCSCI_Object@@PAVCNoButtonDlg@@@std@@U_Kfn@?$map@VCSCI_Object@@PAVCNoButtonDlg@@U?$less@VCSCI_Object@@@std@@V?$allocator@PAVCNoButtonDlg@@@4@@3@U?$less@VCSCI_Object@@@3@V?$allocator@PAVCNoButtonDlg@@@3@@std@@IAEXPAU_Node@12@@Z 0048bd80 f i GenericDlg.obj
 0001:0008aef0       ?_Max@?$_Tree@VCSCI_Object@@U?$pair@$$CBVCSCI_Object@@PAVCNoButtonDlg@@@std@@U_Kfn@?$map@VCSCI_Object@@PAVCNoButtonDlg@@U?$less@VCSCI_Object@@@std@@V?$allocator@PAVCNoButtonDlg@@@4@@3@U?$less@VCSCI_Object@@@3@V?$allocator@PAVCNoButtonDlg@@@3@@std@@KAPAU_Node@12@PAU312@@Z 0048bef0 f i GenericDlg.obj
 0001:0008af70       ?_Min@?$_Tree@VCSCI_Object@@U?$pair@$$CBVCSCI_Object@@PAVCNoButtonDlg@@@std@@U_Kfn@?$map@VCSCI_Object@@PAVCNoButtonDlg@@U?$less@VCSCI_Object@@@std@@V?$allocator@PAVCNoButtonDlg@@@4@@3@U?$less@VCSCI_Object@@@3@V?$allocator@PAVCNoButtonDlg@@@3@@std@@KAPAU_Node@12@PAU312@@Z 0048bf70 f i GenericDlg.obj
 0001:0008aff0       ?_Rrotate@?$_Tree@VCSCI_Object@@U?$pair@$$CBVCSCI_Object@@PAVCNoButtonDlg@@@std@@U_Kfn@?$map@VCSCI_Object@@PAVCNoButtonDlg@@U?$less@VCSCI_Object@@@std@@V?$allocator@PAVCNoButtonDlg@@@4@@3@U?$less@VCSCI_Object@@@3@V?$allocator@PAVCNoButtonDlg@@@3@@std@@IAEXPAU_Node@12@@Z 0048bff0 f i GenericDlg.obj
 0001:0008b160       ??Eiterator@?$_Tree@VCSCI_Object@@U?$pair@$$CBVCSCI_Object@@PAVCNoButtonDlg@@@std@@U_Kfn@?$map@VCSCI_Object@@PAVCNoButtonDlg@@U?$less@VCSCI_Object@@@std@@V?$allocator@PAVCNoButtonDlg@@@4@@3@U?$less@VCSCI_Object@@@3@V?$allocator@PAVCNoButtonDlg@@@3@@std@@QAE?AV012@H@Z 0048c160 f i GenericDlg.obj
 0001:0008b190       ?_Insert@?$_Tree@VCSCI_Object@@U?$pair@$$CBVCSCI_Object@@PAVCNoButtonDlg@@@std@@U_Kfn@?$map@VCSCI_Object@@PAVCNoButtonDlg@@U?$less@VCSCI_Object@@@std@@V?$allocator@PAVCNoButtonDlg@@@4@@3@U?$less@VCSCI_Object@@@3@V?$allocator@PAVCNoButtonDlg@@@3@@std@@IAE?AViterator@12@PAU_Node@12@0ABU?$pair@$$CBVCSCI_Object@@PAVCNoButtonDlg@@@2@@Z 0048c190 f i GenericDlg.obj
 0001:0008b660       ?_Lbound@?$_Tree@VCSCI_Object@@U?$pair@$$CBVCSCI_Object@@PAVCNoButtonDlg@@@std@@U_Kfn@?$map@VCSCI_Object@@PAVCNoButtonDlg@@U?$less@VCSCI_Object@@@std@@V?$allocator@PAVCNoButtonDlg@@@4@@3@U?$less@VCSCI_Object@@@3@V?$allocator@PAVCNoButtonDlg@@@3@@std@@IBEPAU_Node@12@ABVCSCI_Object@@@Z 0048c660 f i GenericDlg.obj
 0001:0008b730       ??Eiterator@?$_Tree@VCSCI_Object@@U?$pair@$$CBVCSCI_Object@@PAVCNoButtonDlg@@@std@@U_Kfn@?$map@VCSCI_Object@@PAVCNoButtonDlg@@U?$less@VCSCI_Object@@@std@@V?$allocator@PAVCNoButtonDlg@@@4@@3@U?$less@VCSCI_Object@@@3@V?$allocator@PAVCNoButtonDlg@@@3@@std@@QAEAAV012@XZ 0048c730 f i GenericDlg.obj
 0001:0008b750       ??Fiterator@?$_Tree@VCSCI_Object@@U?$pair@$$CBVCSCI_Object@@PAVCNoButtonDlg@@@std@@U_Kfn@?$map@VCSCI_Object@@PAVCNoButtonDlg@@U?$less@VCSCI_Object@@@std@@V?$allocator@PAVCNoButtonDlg@@@4@@3@U?$less@VCSCI_Object@@@3@V?$allocator@PAVCNoButtonDlg@@@3@@std@@QAEAAV012@XZ 0048c750 f i GenericDlg.obj
 0001:0008b770       ?_Charalloc@?$allocator@PAVCDropTarget@@@std@@QAEPADI@Z 0048c770 f i GenericDlg.obj
 0001:0008b770       ?_Charalloc@?$allocator@VCPoint@@@std@@QAEPADI@Z 0048c770 f i GenericDlg.obj
 0001:0008b770       ?_Charalloc@?$allocator@VCPerson@@@std@@QAEPADI@Z 0048c770 f i GenericDlg.obj
 0001:0008b770       ?_Charalloc@?$allocator@PAVCMailMsg@@@std@@QAEPADI@Z 0048c770 f i GenericDlg.obj
 0001:0008b770       ?_Charalloc@?$allocator@PAD@std@@QAEPADI@Z 0048c770 f i GenericDlg.obj
 0001:0008b770       ?_Charalloc@?$allocator@PAVCInventoryDlg@@@std@@QAEPADI@Z 0048c770 f i GenericDlg.obj
 0001:0008b770       ?_Charalloc@?$allocator@VCSCI_WorldObject@@@std@@QAEPADI@Z 0048c770 f i GenericDlg.obj
 0001:0008b770       ?_Charalloc@?$allocator@PAVCListData@@@std@@QAEPADI@Z 0048c770 f i GenericDlg.obj
 0001:0008b770       ?_Charalloc@?$allocator@PAVCSkinWnd@@@std@@QAEPADI@Z 0048c770 f i GenericDlg.obj
 0001:0008b770       ?_Charalloc@?$allocator@PAVCSkinCtrl@@@std@@QAEPADI@Z 0048c770 f i GenericDlg.obj
 0001:0008b770       ?_Charalloc@?$allocator@PAVCVerb@@@std@@QAEPADI@Z 0048c770 f i GenericDlg.obj
 0001:0008b770       ?_Charalloc@?$allocator@PAVCVerbBtn@@@std@@QAEPADI@Z 0048c770 f i GenericDlg.obj
 0001:0008b770       ?_Charalloc@?$allocator@PAVCNoButtonDlg@@@std@@QAEPADI@Z 0048c770 f i GenericDlg.obj
 0001:0008b770       ?_Charalloc@?$allocator@H@std@@QAEPADI@Z 0048c770 f i GenericDlg.obj
 0001:0008b770       ?_Charalloc@?$allocator@PAVCFastScrollCtrl@@@std@@QAEPADI@Z 0048c770 f i GenericDlg.obj
 0001:0008b770       ?_Charalloc@?$allocator@PAVCPrivateTell@@@std@@QAEPADI@Z 0048c770 f i GenericDlg.obj
 0001:0008b770       ?_Charalloc@?$allocator@PAVCLookAtItem@@@std@@QAEPADI@Z 0048c770 f i GenericDlg.obj
 0001:0008b770       ?_Charalloc@?$allocator@PAVCMailMsgWnd@@@std@@QAEPADI@Z 0048c770 f i GenericDlg.obj
 0001:0008b770       ?_Charalloc@?$allocator@PAVCVerbRequest@@@std@@QAEPADI@Z 0048c770 f i GenericDlg.obj
 0001:0008b770       ?_Charalloc@?$allocator@PAVCMouseWheelable@@@std@@QAEPADI@Z 0048c770 f i GenericDlg.obj
 0001:0008b790       ?_Consval@?$_Tree@VCSCI_Object@@U?$pair@$$CBVCSCI_Object@@PAVCNoButtonDlg@@@std@@U_Kfn@?$map@VCSCI_Object@@PAVCNoButtonDlg@@U?$less@VCSCI_Object@@@std@@V?$allocator@PAVCNoButtonDlg@@@4@@3@U?$less@VCSCI_Object@@@3@V?$allocator@PAVCNoButtonDlg@@@3@@std@@IAEXPAU?$pair@$$CBVCSCI_Object@@PAVCNoButtonDlg@@@2@ABU32@@Z 0048c790 f i GenericDlg.obj
 0001:0008b7b0       ?_Dec@const_iterator@?$_Tree@VCSCI_Object@@U?$pair@$$CBVCSCI_Object@@PAVCNoButtonDlg@@@std@@U_Kfn@?$map@VCSCI_Object@@PAVCNoButtonDlg@@U?$less@VCSCI_Object@@@std@@V?$allocator@PAVCNoButtonDlg@@@4@@3@U?$less@VCSCI_Object@@@3@V?$allocator@PAVCNoButtonDlg@@@3@@std@@QAEXXZ 0048c7b0 f i GenericDlg.obj
 0001:0008b8c0       ?_Inc@const_iterator@?$_Tree@VCSCI_Object@@U?$pair@$$CBVCSCI_Object@@PAVCNoButtonDlg@@@std@@U_Kfn@?$map@VCSCI_Object@@PAVCNoButtonDlg@@U?$less@VCSCI_Object@@@std@@V?$allocator@PAVCNoButtonDlg@@@4@@3@U?$less@VCSCI_Object@@@3@V?$allocator@PAVCNoButtonDlg@@@3@@std@@QAEXXZ 0048c8c0 f i GenericDlg.obj
 0001:0008b9a0       ?_Construct@std@@YAXPAU?$pair@$$CBVCSCI_Object@@PAVCNoButtonDlg@@@1@ABU21@@Z 0048c9a0 f i GenericDlg.obj
 0001:0008ba10       ??0?$pair@$$CBVCSCI_Object@@PAVCNoButtonDlg@@@std@@QAE@ABU01@@Z 0048ca10 f i GenericDlg.obj
 0001:0008ba40       ??_ECSkinEditField@@WGA@AEPAXI@Z 0048ca40 f i GenericDlg.obj
 0001:0008ba50       ??_ECSkinEditField@@WHE@AEPAXI@Z 0048ca50 f i GenericDlg.obj
 0001:0008ba60       ?getObject@CSCIObjectMethodPair@@QAE?AVCSCI_Object@@XZ 0048ca60 f i GenericDlg.obj
 0001:0008ba80       ??0CGroupListWnd@@QAE@XZ   0048ca80 f   GroupList.obj
 0001:0008bb01       ?CloseSelf@CGroupListWnd@@UAEX_N@Z 0048cb01 f   GroupList.obj
 0001:0008bb24       ?CompareNames@CGroupListWnd@@KGHHHPAVCSkinListCtrl@@@Z 0048cb24 f   GroupList.obj
 0001:0008bbee       ?Create@CGroupListWnd@@QAEHVCSCI_GroupList@@@Z 0048cbee f   GroupList.obj
 0001:0008be14       ?MakeSkinCtrl@CGroupListWnd@@UAEPAVCSkinCtrl@@VCSkinObj@@@Z 0048ce14 f   GroupList.obj
 0001:0008bfab       ?Add@CGroupListWnd@@QAEXVCSCI_GroupMember@@@Z 0048cfab f   GroupList.obj
 0001:0008c015       ?Delete@CGroupListWnd@@QAEXVCSCI_GroupMember@@@Z 0048d015 f   GroupList.obj
 0001:0008c07d       ?SortByName@CGroupListWnd@@QAEXXZ 0048d07d f   GroupList.obj
 0001:0008c0b0       ??0CGroupListCtrl@@QAE@XZ  0048d0b0 f i GroupList.obj
 0001:0008c0f0       ?OnItemActivate@CGroupListCtrl@@UAEXH_N@Z 0048d0f0 f i GroupList.obj
 0001:0008c250       ??_GCGroupListCtrl@@UAEPAXI@Z 0048d250 f i GroupList.obj
 0001:0008c250       ??_ECGroupListCtrl@@UAEPAXI@Z 0048d250 f i GroupList.obj
 0001:0008c280       ??1CGroupListCtrl@@UAE@XZ  0048d280 f i GroupList.obj
 0001:0008c2c0       ??_ECGroupListCtrl@@WEA@AEPAXI@Z 0048d2c0 f i GroupList.obj
 0001:0008c2d0       ??_ECGroupListCtrl@@WHE@AEPAXI@Z 0048d2d0 f i GroupList.obj
 0001:0008c2e0       ?get_size@CSCI_Collection@@QAEFXZ 0048d2e0 f i GroupList.obj
 0001:0008c300       ?get_pLeader@CSCI_GroupList@@QAE?AVCSCI_GroupMember@@XZ 0048d300 f i GroupList.obj
 0001:0008c381       ?groupLeader@@YA_NXZ       0048d381 f   GroupVerbs.obj
 0001:0008c428       ?groupMember@@YAFPBD@Z     0048d428 f   GroupVerbs.obj
 0001:0008c514       ??0CGroupVerbs@@QAE@XZ     0048d514 f   GroupVerbs.obj
 0001:0008c540       ??1CGroupVerbs@@UAE@XZ     0048d540 f   GroupVerbs.obj
 0001:0008c55c       ?Create@CGroupVerbs@@UAEHXZ 0048d55c f   GroupVerbs.obj
 0001:0008c730       ??0CGroupVerbHandler@@QAE@XZ 0048d730 f i GroupVerbs.obj
 0001:0008c750       ?HandleVerb@CGroupVerbHandler@@UAEHHVCSCI_WorldObject@@@Z 0048d750 f i GroupVerbs.obj
 0001:0008c950       ??1CGroupVerbHandler@@UAE@XZ 0048d950 f i GroupVerbs.obj
 0001:0008c970       ??_ECGroupVerbHandler@@UAEPAXI@Z 0048d970 f i GroupVerbs.obj
 0001:0008c970       ??_GCGroupVerbHandler@@UAEPAXI@Z 0048d970 f i GroupVerbs.obj
 0001:0008c9a0       ??_ECGroupVerbs@@UAEPAXI@Z 0048d9a0 f i GroupVerbs.obj
 0001:0008c9a0       ??_GCGroupVerbs@@UAEPAXI@Z 0048d9a0 f i GroupVerbs.obj
 0001:0008c9d0       ?get_pWhoToFollow@CSCI_WorldActor@@QAE?AVCSCI_LongInt@@XZ 0048d9d0 f i GroupVerbs.obj
 0001:0008ca00       ?get_pServID@CSCI_GroupMember@@QAE?AVCSCI_LongInt@@XZ 0048da00 f i GroupVerbs.obj
 0001:0008ca30       ?getGroup_Open@CToonSettings@@QAEHXZ 0048da30 f i GroupVerbs.obj
 0001:0008cb64       ??0CGspSettingsDlg@@QAE@XZ 0048db64 f   GspSettings.obj
 0001:0008cc25       ?CloseSelf@CGspSettingsDlg@@UAEX_N@Z 0048dc25 f   GspSettings.obj
 0001:0008cc48       ?Create@CGspSettingsDlg@@QAEH_N@Z 0048dc48 f   GspSettings.obj
 0001:0008ce3e       ?MakeSkinCtrl@CGspSettingsDlg@@UAEPAVCSkinCtrl@@VCSkinObj@@@Z 0048de3e f   GspSettings.obj
 0001:0008d460       ?Process@CGspSettingsDlg@@QAEXXZ 0048e460 f   GspSettings.obj
 0001:0008d620       ?Update@CGspSettingsDlg@@QAEXPBD0@Z 0048e620 f   GspSettings.obj
 0001:0008d651       ??0CGspViewerDlg@@QAE@XZ   0048e651 f   GspSettings.obj
 0001:0008d693       ?CloseSelf@CGspViewerDlg@@UAEX_N@Z 0048e693 f   GspSettings.obj
 0001:0008d6b6       ?Create@CGspViewerDlg@@QAEHXZ 0048e6b6 f   GspSettings.obj
 0001:0008d7cf       ?MakeSkinCtrl@CGspViewerDlg@@UAEPAVCSkinCtrl@@VCSkinObj@@@Z 0048e7cf f   GspSettings.obj
 0001:0008da2e       ?Update@CGspViewerDlg@@QAEXPBD0@Z 0048ea2e f   GspSettings.obj
 0001:0008da5f       ??0CCreateBtn@@QAE@VCSkinObj@@PAVCSkinWnd@@_N@Z 0048ea5f f   GspSettings.obj
 0001:0008daf4       ?OnActivate@CCreateBtn@@UAEXFF@Z 0048eaf4 f   GspSettings.obj
 0001:0008db20       ??_ECCreateBtn@@UAEPAXI@Z  0048eb20 f i GspSettings.obj
 0001:0008db20       ??_ECSCITalkButtonBtn@@UAEPAXI@Z 0048eb20 f i GspSettings.obj
 0001:0008db20       ??_ECToonMakeFeatureUpBtn@@UAEPAXI@Z 0048eb20 f i GspSettings.obj
 0001:0008db20       ??_GCCreateBtn@@UAEPAXI@Z  0048eb20 f i GspSettings.obj
 0001:0008db20       ??_GCCityBtn@@UAEPAXI@Z    0048eb20 f i GspSettings.obj
 0001:0008db20       ??_GCToonMakeFeatureUpBtn@@UAEPAXI@Z 0048eb20 f i GspSettings.obj
 0001:0008db20       ??_ECCityBtn@@UAEPAXI@Z    0048eb20 f i GspSettings.obj
 0001:0008db20       ??_GCSCITalkButtonBtn@@UAEPAXI@Z 0048eb20 f i GspSettings.obj
 0001:0008db50       ?getChannel_Topic@CToonSettings@@QAE?AVCString@@XZ 0048eb50 f i GspSettings.obj
 0001:0008db90       ?getChannel_Password@CToonSettings@@QAE?AVCString@@XZ 0048eb90 f i GspSettings.obj
 0001:0008dc0f       ??0CHelpVerbs@@QAE@XZ      0048ec0f f   HelpVerbs.obj
 0001:0008dc3b       ??1CHelpVerbs@@UAE@XZ      0048ec3b f   HelpVerbs.obj
 0001:0008dc57       ?Create@CHelpVerbs@@UAEHXZ 0048ec57 f   HelpVerbs.obj
 0001:0008dcf0       ??0CEmotesDlg@@QAE@XZ      0048ecf0 f   HelpVerbs.obj
 0001:0008dd18       ?CloseSelf@CEmotesDlg@@UAEX_N@Z 0048ed18 f   HelpVerbs.obj
 0001:0008dd3b       ?Create@CEmotesDlg@@QAEHXZ 0048ed3b f   HelpVerbs.obj
 0001:0008dd82       ??0CCreditsDlg@@QAE@XZ     0048ed82 f   HelpVerbs.obj
 0001:0008ddaa       ?CloseSelf@CCreditsDlg@@UAEX_N@Z 0048edaa f   HelpVerbs.obj
 0001:0008de55       ?Create@CCreditsDlg@@QAEHXZ 0048ee55 f   HelpVerbs.obj
 0001:0008df30       ??0CHelpVerbHandler@@QAE@XZ 0048ef30 f i HelpVerbs.obj
 0001:0008df50       ?HandleVerb@CHelpVerbHandler@@UAEHHVCSCI_WorldObject@@@Z 0048ef50 f i HelpVerbs.obj
 0001:0008e0f0       ??1CHelpVerbHandler@@UAE@XZ 0048f0f0 f i HelpVerbs.obj
 0001:0008e110       ??_ECHelpVerbHandler@@UAEPAXI@Z 0048f110 f i HelpVerbs.obj
 0001:0008e110       ??_GCHelpVerbHandler@@UAEPAXI@Z 0048f110 f i HelpVerbs.obj
 0001:0008e140       ??_ECHelpVerbs@@UAEPAXI@Z  0048f140 f i HelpVerbs.obj
 0001:0008e140       ??_GCHelpVerbs@@UAEPAXI@Z  0048f140 f i HelpVerbs.obj
 0001:0008e1d9       ??0CFastScrollCtrl@@QAE@VCSkinObj@@PAVCSkinWnd@@H@Z 0048f1d9 f   inventorydlg.obj
 0001:0008e280       ??1CFastScrollCtrl@@UAE@XZ 0048f280 f   inventorydlg.obj
 0001:0008e2fe       ?Refresh@CFastScrollCtrl@@UAEXXZ 0048f2fe f   inventorydlg.obj
 0001:0008e309       ?GetCursor@CFastScrollCtrl@@UAEPAUHICON__@@XZ 0048f309 f   inventorydlg.obj
 0001:0008e329       ?SetScrollable@CFastScrollCtrl@@QAEXPAVCScrollable@@@Z 0048f329 f   inventorydlg.obj
 0001:0008e33f       ?Scroll@CFastScrollCtrl@@QAEXXZ 0048f33f f   inventorydlg.obj
 0001:0008e393       ?FromScreenPoint@CFastScrollCtrl@@SAPAV1@AAVCPoint@@@Z 0048f393 f   inventorydlg.obj
 0001:0008e5d3       ??0CInventoryDlg@@QAE@XZ   0048f5d3 f   inventorydlg.obj
 0001:0008e691       ??1CInventoryDlg@@UAE@XZ   0048f691 f   inventorydlg.obj
 0001:0008e798       ?EnableGameModal@CInventoryDlg@@UAEXHPAH@Z 0048f798 f   inventorydlg.obj
 0001:0008e7ca       ?DisableGameModal@CInventoryDlg@@UAEXHPAH_N@Z 0048f7ca f   inventorydlg.obj
 0001:0008e7f7       ?Create@CInventoryDlg@@QAEHVCSCI_WorldObject@@@Z 0048f7f7 f   inventorydlg.obj
 0001:0008ed5b       ?AddObject@CInventoryDlg@@QAEXVCSCI_WorldObject@@@Z 0048fd5b f   inventorydlg.obj
 0001:0008ee9e       ?DelObject@CInventoryDlg@@QAEXVCSCI_WorldObject@@@Z 0048fe9e f   inventorydlg.obj
 0001:0008eee6       ?UpdateObject@CInventoryDlg@@QAEXVCSCI_WorldObject@@@Z 0048fee6 f   inventorydlg.obj
 0001:0008ef66       ?UpdateObjectIcon@CInventoryDlg@@QAEXVCSCI_WorldObject@@H@Z 0048ff66 f   inventorydlg.obj
 0001:0008f03d       ?FromObject@CInventoryDlg@@SAPAV1@VCSCI_WorldObject@@@Z 0049003d f   inventorydlg.obj
 0001:0008f08d       ?MakeSkinCtrl@CInventoryDlg@@UAEPAVCSkinCtrl@@VCSkinObj@@@Z 0049008d f   inventorydlg.obj
 0001:0008f310       ??1?$map@VCSkinObj@@PAVCFastScrollCtrl@@U?$less@VCSkinObj@@@std@@V?$allocator@PAVCFastScrollCtrl@@@4@@std@@QAE@XZ 00490310 f i inventorydlg.obj
 0001:0008f330       ??_GCFastScrollCtrl@@UAEPAXI@Z 00490330 f i inventorydlg.obj
 0001:0008f330       ??_ECFastScrollCtrl@@UAEPAXI@Z 00490330 f i inventorydlg.obj
 0001:0008f360       ??1?$map@VCSCI_WorldObject@@PAVCInventoryDlg@@U?$less@VCSCI_WorldObject@@@std@@V?$allocator@PAVCInventoryDlg@@@4@@std@@QAE@XZ 00490360 f i inventorydlg.obj
 0001:0008f380       ??_GCInventoryDlg@@UAEPAXI@Z 00490380 f i inventorydlg.obj
 0001:0008f380       ??_ECInventoryDlg@@UAEPAXI@Z 00490380 f i inventorydlg.obj
 0001:0008f3b0       ??0?$map@VCSkinObj@@PAVCFastScrollCtrl@@U?$less@VCSkinObj@@@std@@V?$allocator@PAVCFastScrollCtrl@@@4@@std@@QAE@ABU?$less@VCSkinObj@@@1@ABV?$allocator@PAVCFastScrollCtrl@@@1@@Z 004903b0 f i inventorydlg.obj
 0001:0008f3e0       ??A?$map@VCSkinObj@@PAVCFastScrollCtrl@@U?$less@VCSkinObj@@@std@@V?$allocator@PAVCFastScrollCtrl@@@4@@std@@QAEAAPAVCFastScrollCtrl@@ABVCSkinObj@@@Z 004903e0 f i inventorydlg.obj
 0001:0008f470       ?erase@?$map@VCSkinObj@@PAVCFastScrollCtrl@@U?$less@VCSkinObj@@@std@@V?$allocator@PAVCFastScrollCtrl@@@4@@std@@QAEIABVCSkinObj@@@Z 00490470 f i inventorydlg.obj
 0001:0008f490       ?find@?$map@VCSkinObj@@PAVCFastScrollCtrl@@U?$less@VCSkinObj@@@std@@V?$allocator@PAVCFastScrollCtrl@@@4@@std@@QAE?AViterator@?$_Tree@VCSkinObj@@U?$pair@$$CBVCSkinObj@@PAVCFastScrollCtrl@@@std@@U_Kfn@?$map@VCSkinObj@@PAVCFastScrollCtrl@@U?$less@VCSkinObj@@@std@@V?$allocator@PAVCFastScrollCtrl@@@4@@3@U?$less@VCSkinObj@@@3@V?$allocator@PAVCFastScrollCtrl@@@3@@2@ABVCSkinObj@@@Z 00490490 f i inventorydlg.obj
 0001:0008f4c0       ??1?$_Tree@VCSkinObj@@U?$pair@$$CBVCSkinObj@@PAVCFastScrollCtrl@@@std@@U_Kfn@?$map@VCSkinObj@@PAVCFastScrollCtrl@@U?$less@VCSkinObj@@@std@@V?$allocator@PAVCFastScrollCtrl@@@4@@3@U?$less@VCSkinObj@@@3@V?$allocator@PAVCFastScrollCtrl@@@3@@std@@QAE@XZ 004904c0 f i inventorydlg.obj
 0001:0008f590       ??0?$map@VCSCI_WorldObject@@PAVCInventoryDlg@@U?$less@VCSCI_WorldObject@@@std@@V?$allocator@PAVCInventoryDlg@@@4@@std@@QAE@ABU?$less@VCSCI_WorldObject@@@1@ABV?$allocator@PAVCInventoryDlg@@@1@@Z 00490590 f i inventorydlg.obj
 0001:0008f5c0       ??A?$map@VCSCI_WorldObject@@PAVCInventoryDlg@@U?$less@VCSCI_WorldObject@@@std@@V?$allocator@PAVCInventoryDlg@@@4@@std@@QAEAAPAVCInventoryDlg@@ABVCSCI_WorldObject@@@Z 004905c0 f i inventorydlg.obj
 0001:0008f610       ?erase@?$map@VCSCI_WorldObject@@PAVCInventoryDlg@@U?$less@VCSCI_WorldObject@@@std@@V?$allocator@PAVCInventoryDlg@@@4@@std@@QAEIABVCSCI_WorldObject@@@Z 00490610 f i inventorydlg.obj
 0001:0008f630       ?find@?$map@VCSCI_WorldObject@@PAVCInventoryDlg@@U?$less@VCSCI_WorldObject@@@std@@V?$allocator@PAVCInventoryDlg@@@4@@std@@QAE?AViterator@?$_Tree@VCSCI_WorldObject@@U?$pair@$$CBVCSCI_WorldObject@@PAVCInventoryDlg@@@std@@U_Kfn@?$map@VCSCI_WorldObject@@PAVCInventoryDlg@@U?$less@VCSCI_WorldObject@@@std@@V?$allocator@PAVCInventoryDlg@@@4@@3@U?$less@VCSCI_WorldObject@@@3@V?$allocator@PAVCInventoryDlg@@@3@@2@ABVCSCI_WorldObject@@@Z 00490630 f i inventorydlg.obj
 0001:0008f660       ??1?$_Tree@VCSCI_WorldObject@@U?$pair@$$CBVCSCI_WorldObject@@PAVCInventoryDlg@@@std@@U_Kfn@?$map@VCSCI_WorldObject@@PAVCInventoryDlg@@U?$less@VCSCI_WorldObject@@@std@@V?$allocator@PAVCInventoryDlg@@@4@@3@U?$less@VCSCI_WorldObject@@@3@V?$allocator@PAVCInventoryDlg@@@3@@std@@QAE@XZ 00490660 f i inventorydlg.obj
 0001:0008f730       ??1?$list@PAVCInventoryDlg@@V?$allocator@PAVCInventoryDlg@@@std@@@std@@QAE@XZ 00490730 f i inventorydlg.obj
 0001:0008f790       ?push_back@?$list@PAVCInventoryDlg@@V?$allocator@PAVCInventoryDlg@@@std@@@std@@QAEXABQAVCInventoryDlg@@@Z 00490790 f i inventorydlg.obj
 0001:0008f7c0       ?remove@?$list@PAVCInventoryDlg@@V?$allocator@PAVCInventoryDlg@@@std@@@std@@QAEXABQAVCInventoryDlg@@@Z 004907c0 f i inventorydlg.obj
 0001:0008f840       ??Diterator@?$list@PAVCInventoryDlg@@V?$allocator@PAVCInventoryDlg@@@std@@@std@@QBEAAPAVCInventoryDlg@@XZ 00490840 f i inventorydlg.obj
 0001:0008f860       ?insert@?$map@VCSkinObj@@PAVCFastScrollCtrl@@U?$less@VCSkinObj@@@std@@V?$allocator@PAVCFastScrollCtrl@@@4@@std@@QAE?AU?$pair@Viterator@?$_Tree@VCSkinObj@@U?$pair@$$CBVCSkinObj@@PAVCFastScrollCtrl@@@std@@U_Kfn@?$map@VCSkinObj@@PAVCFastScrollCtrl@@U?$less@VCSkinObj@@@std@@V?$allocator@PAVCFastScrollCtrl@@@4@@3@U?$less@VCSkinObj@@@3@V?$allocator@PAVCFastScrollCtrl@@@3@@std@@_N@2@ABU?$pair@$$CBVCSkinObj@@PAVCFastScrollCtrl@@@2@@Z 00490860 f i inventorydlg.obj
 0001:0008f8b0       ??0?$_Tree@VCSkinObj@@U?$pair@$$CBVCSkinObj@@PAVCFastScrollCtrl@@@std@@U_Kfn@?$map@VCSkinObj@@PAVCFastScrollCtrl@@U?$less@VCSkinObj@@@std@@V?$allocator@PAVCFastScrollCtrl@@@4@@3@U?$less@VCSkinObj@@@3@V?$allocator@PAVCFastScrollCtrl@@@3@@std@@QAE@ABU?$less@VCSkinObj@@@1@_NABV?$allocator@PAVCFastScrollCtrl@@@1@@Z 004908b0 f i inventorydlg.obj
 0001:0008f8f0       ?erase@?$_Tree@VCSkinObj@@U?$pair@$$CBVCSkinObj@@PAVCFastScrollCtrl@@@std@@U_Kfn@?$map@VCSkinObj@@PAVCFastScrollCtrl@@U?$less@VCSkinObj@@@std@@V?$allocator@PAVCFastScrollCtrl@@@4@@3@U?$less@VCSkinObj@@@3@V?$allocator@PAVCFastScrollCtrl@@@3@@std@@QAE?AViterator@12@V312@0@Z 004908f0 f i inventorydlg.obj
 0001:0008fa30       ?erase@?$_Tree@VCSkinObj@@U?$pair@$$CBVCSkinObj@@PAVCFastScrollCtrl@@@std@@U_Kfn@?$map@VCSkinObj@@PAVCFastScrollCtrl@@U?$less@VCSkinObj@@@std@@V?$allocator@PAVCFastScrollCtrl@@@4@@3@U?$less@VCSkinObj@@@3@V?$allocator@PAVCFastScrollCtrl@@@3@@std@@QAEIABVCSkinObj@@@Z 00490a30 f i inventorydlg.obj
 0001:0008fa90       ?find@?$_Tree@VCSkinObj@@U?$pair@$$CBVCSkinObj@@PAVCFastScrollCtrl@@@std@@U_Kfn@?$map@VCSkinObj@@PAVCFastScrollCtrl@@U?$less@VCSkinObj@@@std@@V?$allocator@PAVCFastScrollCtrl@@@4@@3@U?$less@VCSkinObj@@@3@V?$allocator@PAVCFastScrollCtrl@@@3@@std@@QAE?AViterator@12@ABVCSkinObj@@@Z 00490a90 f i inventorydlg.obj
 0001:0008fb30       ??0?$pair@$$CBVCSkinObj@@PAVCSkinCtrl@@@std@@QAE@ABVCSkinObj@@ABQAVCSkinCtrl@@@Z 00490b30 f i inventorydlg.obj
 0001:0008fb30       ??0?$pair@$$CBVCSkinObj@@PAVCFastScrollCtrl@@@std@@QAE@ABVCSkinObj@@ABQAVCFastScrollCtrl@@@Z 00490b30 f i inventorydlg.obj
 0001:0008fb60       ?insert@?$map@VCSCI_WorldObject@@PAVCInventoryDlg@@U?$less@VCSCI_WorldObject@@@std@@V?$allocator@PAVCInventoryDlg@@@4@@std@@QAE?AU?$pair@Viterator@?$_Tree@VCSCI_WorldObject@@U?$pair@$$CBVCSCI_WorldObject@@PAVCInventoryDlg@@@std@@U_Kfn@?$map@VCSCI_WorldObject@@PAVCInventoryDlg@@U?$less@VCSCI_WorldObject@@@std@@V?$allocator@PAVCInventoryDlg@@@4@@3@U?$less@VCSCI_WorldObject@@@3@V?$allocator@PAVCInventoryDlg@@@3@@std@@_N@2@ABU?$pair@$$CBVCSCI_WorldObject@@PAVCInventoryDlg@@@2@@Z 00490b60 f i inventorydlg.obj
 0001:0008fbb0       ??0?$_Tree@VCSCI_WorldObject@@U?$pair@$$CBVCSCI_WorldObject@@PAVCInventoryDlg@@@std@@U_Kfn@?$map@VCSCI_WorldObject@@PAVCInventoryDlg@@U?$less@VCSCI_WorldObject@@@std@@V?$allocator@PAVCInventoryDlg@@@4@@3@U?$less@VCSCI_WorldObject@@@3@V?$allocator@PAVCInventoryDlg@@@3@@std@@QAE@ABU?$less@VCSCI_WorldObject@@@1@_NABV?$allocator@PAVCInventoryDlg@@@1@@Z 00490bb0 f i inventorydlg.obj
 0001:0008fbf0       ?erase@?$_Tree@VCSCI_WorldObject@@U?$pair@$$CBVCSCI_WorldObject@@PAVCInventoryDlg@@@std@@U_Kfn@?$map@VCSCI_WorldObject@@PAVCInventoryDlg@@U?$less@VCSCI_WorldObject@@@std@@V?$allocator@PAVCInventoryDlg@@@4@@3@U?$less@VCSCI_WorldObject@@@3@V?$allocator@PAVCInventoryDlg@@@3@@std@@QAE?AViterator@12@V312@0@Z 00490bf0 f i inventorydlg.obj
 0001:0008fd30       ?erase@?$_Tree@VCSCI_WorldObject@@U?$pair@$$CBVCSCI_WorldObject@@PAVCInventoryDlg@@@std@@U_Kfn@?$map@VCSCI_WorldObject@@PAVCInventoryDlg@@U?$less@VCSCI_WorldObject@@@std@@V?$allocator@PAVCInventoryDlg@@@4@@3@U?$less@VCSCI_WorldObject@@@3@V?$allocator@PAVCInventoryDlg@@@3@@std@@QAEIABVCSCI_WorldObject@@@Z 00490d30 f i inventorydlg.obj
 0001:0008fd90       ?find@?$_Tree@VCSCI_WorldObject@@U?$pair@$$CBVCSCI_WorldObject@@PAVCInventoryDlg@@@std@@U_Kfn@?$map@VCSCI_WorldObject@@PAVCInventoryDlg@@U?$less@VCSCI_WorldObject@@@std@@V?$allocator@PAVCInventoryDlg@@@4@@3@U?$less@VCSCI_WorldObject@@@3@V?$allocator@PAVCInventoryDlg@@@3@@std@@QAE?AViterator@12@ABVCSCI_WorldObject@@@Z 00490d90 f i inventorydlg.obj
 0001:0008fe30       ??0?$pair@$$CBVCSCI_WorldObject@@PAVCInventoryDlg@@@std@@QAE@ABVCSCI_WorldObject@@ABQAVCInventoryDlg@@@Z 00490e30 f i inventorydlg.obj
 0001:0008fe60       ?erase@?$list@PAVCInventoryDlg@@V?$allocator@PAVCInventoryDlg@@@std@@@std@@QAE?AViterator@12@V312@@Z 00490e60 f i inventorydlg.obj
 0001:0008ff20       ?erase@?$list@PAVCInventoryDlg@@V?$allocator@PAVCInventoryDlg@@@std@@@std@@QAE?AViterator@12@V312@0@Z 00490f20 f i inventorydlg.obj
 0001:0008ff70       ?_Freenode@?$_Tree@VCSCI_WorldObject@@U?$pair@$$CBVCSCI_WorldObject@@PAVCInventoryDlg@@@std@@U_Kfn@?$map@VCSCI_WorldObject@@PAVCInventoryDlg@@U?$less@VCSCI_WorldObject@@@std@@V?$allocator@PAVCInventoryDlg@@@4@@3@U?$less@VCSCI_WorldObject@@@3@V?$allocator@PAVCInventoryDlg@@@3@@std@@IAEXPAU_Node@12@@Z 00490f70 f i inventorydlg.obj
 0001:0008ff70       ?_Freenode@?$list@PAVCInventoryDlg@@V?$allocator@PAVCInventoryDlg@@@std@@@std@@IAEXPAU_Node@12@@Z 00490f70 f i inventorydlg.obj
 0001:0008ff90       ??R?$less@VCSkinObj@@@std@@QBE_NABVCSkinObj@@0@Z 00490f90 f i inventorydlg.obj
 0001:0008ffb0       ?insert@?$_Tree@VCSkinObj@@U?$pair@$$CBVCSkinObj@@PAVCFastScrollCtrl@@@std@@U_Kfn@?$map@VCSkinObj@@PAVCFastScrollCtrl@@U?$less@VCSkinObj@@@std@@V?$allocator@PAVCFastScrollCtrl@@@4@@3@U?$less@VCSkinObj@@@3@V?$allocator@PAVCFastScrollCtrl@@@3@@std@@QAE?AU?$pair@Viterator@?$_Tree@VCSkinObj@@U?$pair@$$CBVCSkinObj@@PAVCFastScrollCtrl@@@std@@U_Kfn@?$map@VCSkinObj@@PAVCFastScrollCtrl@@U?$less@VCSkinObj@@@std@@V?$allocator@PAVCFastScrollCtrl@@@4@@3@U?$less@VCSkinObj@@@3@V?$allocator@PAVCFastScrollCtrl@@@3@@std@@_N@2@ABU?$pair@$$CBVCSkinObj@@PAVCFastScrollCtrl@@@2@@Z 00490fb0 f i inventorydlg.obj
 0001:000901f0       ?erase@?$_Tree@VCSkinObj@@U?$pair@$$CBVCSkinObj@@PAVCFastScrollCtrl@@@std@@U_Kfn@?$map@VCSkinObj@@PAVCFastScrollCtrl@@U?$less@VCSkinObj@@@std@@V?$allocator@PAVCFastScrollCtrl@@@4@@3@U?$less@VCSkinObj@@@3@V?$allocator@PAVCFastScrollCtrl@@@3@@std@@QAE?AViterator@12@V312@@Z 004911f0 f i inventorydlg.obj
 0001:00090a40       ?lower_bound@?$_Tree@VCSkinObj@@U?$pair@$$CBVCSkinObj@@PAVCFastScrollCtrl@@@std@@U_Kfn@?$map@VCSkinObj@@PAVCFastScrollCtrl@@U?$less@VCSkinObj@@@std@@V?$allocator@PAVCFastScrollCtrl@@@4@@3@U?$less@VCSkinObj@@@3@V?$allocator@PAVCFastScrollCtrl@@@3@@std@@QAE?AViterator@12@ABVCSkinObj@@@Z 00491a40 f i inventorydlg.obj
 0001:00090a70       ?equal_range@?$_Tree@VCSkinObj@@U?$pair@$$CBVCSkinObj@@PAVCFastScrollCtrl@@@std@@U_Kfn@?$map@VCSkinObj@@PAVCFastScrollCtrl@@U?$less@VCSkinObj@@@std@@V?$allocator@PAVCFastScrollCtrl@@@4@@3@U?$less@VCSkinObj@@@3@V?$allocator@PAVCFastScrollCtrl@@@3@@std@@QAE?AU?$pair@Viterator@?$_Tree@VCSkinObj@@U?$pair@$$CBVCSkinObj@@PAVCFastScrollCtrl@@@std@@U_Kfn@?$map@VCSkinObj@@PAVCFastScrollCtrl@@U?$less@VCSkinObj@@@std@@V?$allocator@PAVCFastScrollCtrl@@@4@@3@U?$less@VCSkinObj@@@3@V?$allocator@PAVCFastScrollCtrl@@@3@@std@@V123@@2@ABVCSkinObj@@@Z 00491a70 f i inventorydlg.obj
 0001:00090ac0       ?_Erase@?$_Tree@VCSkinObj@@U?$pair@$$CBVCSkinObj@@PAVCFastScrollCtrl@@@std@@U_Kfn@?$map@VCSkinObj@@PAVCFastScrollCtrl@@U?$less@VCSkinObj@@@std@@V?$allocator@PAVCFastScrollCtrl@@@4@@3@U?$less@VCSkinObj@@@3@V?$allocator@PAVCFastScrollCtrl@@@3@@std@@IAEXPAU_Node@12@@Z 00491ac0 f i inventorydlg.obj
 0001:00090b80       ?_Init@?$_Tree@VCSkinObj@@U?$pair@$$CBVCSkinObj@@PAVCFastScrollCtrl@@@std@@U_Kfn@?$map@VCSkinObj@@PAVCFastScrollCtrl@@U?$less@VCSkinObj@@@std@@V?$allocator@PAVCFastScrollCtrl@@@4@@3@U?$less@VCSkinObj@@@3@V?$allocator@PAVCFastScrollCtrl@@@3@@std@@IAEXXZ 00491b80 f i inventorydlg.obj
 0001:00090c60       ??Eiterator@?$_Tree@VCSkinObj@@U?$pair@$$CBVCSkinObj@@PAVCFastScrollCtrl@@@std@@U_Kfn@?$map@VCSkinObj@@PAVCFastScrollCtrl@@U?$less@VCSkinObj@@@std@@V?$allocator@PAVCFastScrollCtrl@@@4@@3@U?$less@VCSkinObj@@@3@V?$allocator@PAVCFastScrollCtrl@@@3@@std@@QAE?AV012@H@Z 00491c60 f i inventorydlg.obj
 0001:00090c90       ??R?$less@VCSCI_Object@@@std@@QBE_NABVCSCI_Object@@0@Z 00491c90 f i inventorydlg.obj
 0001:00090c90       ??R?$less@VCSCI_WorldObject@@@std@@QBE_NABVCSCI_WorldObject@@0@Z 00491c90 f i inventorydlg.obj
 0001:00090cd0       ?ScreenToClient@CWnd@@QBEXPAUtagPOINT@@@Z 00491cd0 f i inventorydlg.obj
 0001:00090cf0       ?insert@?$_Tree@VCSCI_WorldObject@@U?$pair@$$CBVCSCI_WorldObject@@PAVCInventoryDlg@@@std@@U_Kfn@?$map@VCSCI_WorldObject@@PAVCInventoryDlg@@U?$less@VCSCI_WorldObject@@@std@@V?$allocator@PAVCInventoryDlg@@@4@@3@U?$less@VCSCI_WorldObject@@@3@V?$allocator@PAVCInventoryDlg@@@3@@std@@QAE?AU?$pair@Viterator@?$_Tree@VCSCI_WorldObject@@U?$pair@$$CBVCSCI_WorldObject@@PAVCInventoryDlg@@@std@@U_Kfn@?$map@VCSCI_WorldObject@@PAVCInventoryDlg@@U?$less@VCSCI_WorldObject@@@std@@V?$allocator@PAVCInventoryDlg@@@4@@3@U?$less@VCSCI_WorldObject@@@3@V?$allocator@PAVCInventoryDlg@@@3@@std@@_N@2@ABU?$pair@$$CBVCSCI_WorldObject@@PAVCInventoryDlg@@@2@@Z 00491cf0 f i inventorydlg.obj
 0001:00090f30       ?erase@?$_Tree@VCSCI_WorldObject@@U?$pair@$$CBVCSCI_WorldObject@@PAVCInventoryDlg@@@std@@U_Kfn@?$map@VCSCI_WorldObject@@PAVCInventoryDlg@@U?$less@VCSCI_WorldObject@@@std@@V?$allocator@PAVCInventoryDlg@@@4@@3@U?$less@VCSCI_WorldObject@@@3@V?$allocator@PAVCInventoryDlg@@@3@@std@@QAE?AViterator@12@V312@@Z 00491f30 f i inventorydlg.obj
 0001:00091780       ?lower_bound@?$_Tree@VCSCI_WorldObject@@U?$pair@$$CBVCSCI_WorldObject@@PAVCInventoryDlg@@@std@@U_Kfn@?$map@VCSCI_WorldObject@@PAVCInventoryDlg@@U?$less@VCSCI_WorldObject@@@std@@V?$allocator@PAVCInventoryDlg@@@4@@3@U?$less@VCSCI_WorldObject@@@3@V?$allocator@PAVCInventoryDlg@@@3@@std@@QAE?AViterator@12@ABVCSCI_WorldObject@@@Z 00492780 f i inventorydlg.obj
 0001:000917b0       ?equal_range@?$_Tree@VCSCI_WorldObject@@U?$pair@$$CBVCSCI_WorldObject@@PAVCInventoryDlg@@@std@@U_Kfn@?$map@VCSCI_WorldObject@@PAVCInventoryDlg@@U?$less@VCSCI_WorldObject@@@std@@V?$allocator@PAVCInventoryDlg@@@4@@3@U?$less@VCSCI_WorldObject@@@3@V?$allocator@PAVCInventoryDlg@@@3@@std@@QAE?AU?$pair@Viterator@?$_Tree@VCSCI_WorldObject@@U?$pair@$$CBVCSCI_WorldObject@@PAVCInventoryDlg@@@std@@U_Kfn@?$map@VCSCI_WorldObject@@PAVCInventoryDlg@@U?$less@VCSCI_WorldObject@@@std@@V?$allocator@PAVCInventoryDlg@@@4@@3@U?$less@VCSCI_WorldObject@@@3@V?$allocator@PAVCInventoryDlg@@@3@@std@@V123@@2@ABVCSCI_WorldObject@@@Z 004927b0 f i inventorydlg.obj
 0001:00091800       ?_Erase@?$_Tree@VCSCI_WorldObject@@U?$pair@$$CBVCSCI_WorldObject@@PAVCInventoryDlg@@@std@@U_Kfn@?$map@VCSCI_WorldObject@@PAVCInventoryDlg@@U?$less@VCSCI_WorldObject@@@std@@V?$allocator@PAVCInventoryDlg@@@4@@3@U?$less@VCSCI_WorldObject@@@3@V?$allocator@PAVCInventoryDlg@@@3@@std@@IAEXPAU_Node@12@@Z 00492800 f i inventorydlg.obj
 0001:000918c0       ?_Init@?$_Tree@VCSCI_WorldObject@@U?$pair@$$CBVCSCI_WorldObject@@PAVCInventoryDlg@@@std@@U_Kfn@?$map@VCSCI_WorldObject@@PAVCInventoryDlg@@U?$less@VCSCI_WorldObject@@@std@@V?$allocator@PAVCInventoryDlg@@@4@@3@U?$less@VCSCI_WorldObject@@@3@V?$allocator@PAVCInventoryDlg@@@3@@std@@IAEXXZ 004928c0 f i inventorydlg.obj
 0001:000919a0       ??Eiterator@?$_Tree@VCSCI_WorldObject@@U?$pair@$$CBVCSCI_WorldObject@@PAVCInventoryDlg@@@std@@U_Kfn@?$map@VCSCI_WorldObject@@PAVCInventoryDlg@@U?$less@VCSCI_WorldObject@@@std@@V?$allocator@PAVCInventoryDlg@@@4@@3@U?$less@VCSCI_WorldObject@@@3@V?$allocator@PAVCInventoryDlg@@@3@@std@@QAE?AV012@H@Z 004929a0 f i inventorydlg.obj
 0001:000919d0       ?_Color@?$_Tree@VCSkinObj@@U?$pair@$$CBVCSkinObj@@PAVCSkinCtrl@@@std@@U_Kfn@?$map@VCSkinObj@@PAVCSkinCtrl@@U?$less@VCSkinObj@@@std@@V?$allocator@PAVCSkinCtrl@@@4@@3@U?$less@VCSkinObj@@@3@V?$allocator@PAVCSkinCtrl@@@3@@std@@KAAAW4_Redbl@12@PAU_Node@12@@Z 004929d0 f i inventorydlg.obj
 0001:000919d0       ?_Color@?$_Tree@VCSkinObj@@U?$pair@$$CBVCSkinObj@@PAVCFastScrollCtrl@@@std@@U_Kfn@?$map@VCSkinObj@@PAVCFastScrollCtrl@@U?$less@VCSkinObj@@@std@@V?$allocator@PAVCFastScrollCtrl@@@4@@3@U?$less@VCSkinObj@@@3@V?$allocator@PAVCFastScrollCtrl@@@3@@std@@KAAAW4_Redbl@12@PAU_Node@12@@Z 004929d0 f i inventorydlg.obj
 0001:000919e0       ?upper_bound@?$_Tree@VCSkinObj@@U?$pair@$$CBVCSkinObj@@PAVCFastScrollCtrl@@@std@@U_Kfn@?$map@VCSkinObj@@PAVCFastScrollCtrl@@U?$less@VCSkinObj@@@std@@V?$allocator@PAVCFastScrollCtrl@@@4@@3@U?$less@VCSkinObj@@@3@V?$allocator@PAVCFastScrollCtrl@@@3@@std@@QAE?AViterator@12@ABVCSkinObj@@@Z 004929e0 f i inventorydlg.obj
 0001:00091a10       ?_Insert@?$_Tree@VCSkinObj@@U?$pair@$$CBVCSkinObj@@PAVCFastScrollCtrl@@@std@@U_Kfn@?$map@VCSkinObj@@PAVCFastScrollCtrl@@U?$less@VCSkinObj@@@std@@V?$allocator@PAVCFastScrollCtrl@@@4@@3@U?$less@VCSkinObj@@@3@V?$allocator@PAVCFastScrollCtrl@@@3@@std@@IAE?AViterator@12@PAU_Node@12@0ABU?$pair@$$CBVCSkinObj@@PAVCFastScrollCtrl@@@2@@Z 00492a10 f i inventorydlg.obj
 0001:00091ee0       ?_Lbound@?$_Tree@VCSkinObj@@U?$pair@$$CBVCSkinObj@@PAVCFastScrollCtrl@@@std@@U_Kfn@?$map@VCSkinObj@@PAVCFastScrollCtrl@@U?$less@VCSkinObj@@@std@@V?$allocator@PAVCFastScrollCtrl@@@4@@3@U?$less@VCSkinObj@@@3@V?$allocator@PAVCFastScrollCtrl@@@3@@std@@IBEPAU_Node@12@ABVCSkinObj@@@Z 00492ee0 f i inventorydlg.obj
 0001:00091fb0       ?_Lrotate@?$_Tree@VCSkinObj@@U?$pair@$$CBVCSkinObj@@PAVCFastScrollCtrl@@@std@@U_Kfn@?$map@VCSkinObj@@PAVCFastScrollCtrl@@U?$less@VCSkinObj@@@std@@V?$allocator@PAVCFastScrollCtrl@@@4@@3@U?$less@VCSkinObj@@@3@V?$allocator@PAVCFastScrollCtrl@@@3@@std@@IAEXPAU_Node@12@@Z 00492fb0 f i inventorydlg.obj
 0001:00092120       ?_Max@?$_Tree@VCSkinObj@@U?$pair@$$CBVCSkinObj@@PAVCFastScrollCtrl@@@std@@U_Kfn@?$map@VCSkinObj@@PAVCFastScrollCtrl@@U?$less@VCSkinObj@@@std@@V?$allocator@PAVCFastScrollCtrl@@@4@@3@U?$less@VCSkinObj@@@3@V?$allocator@PAVCFastScrollCtrl@@@3@@std@@KAPAU_Node@12@PAU312@@Z 00493120 f i inventorydlg.obj
 0001:000921a0       ?_Min@?$_Tree@VCSkinObj@@U?$pair@$$CBVCSkinObj@@PAVCFastScrollCtrl@@@std@@U_Kfn@?$map@VCSkinObj@@PAVCFastScrollCtrl@@U?$less@VCSkinObj@@@std@@V?$allocator@PAVCFastScrollCtrl@@@4@@3@U?$less@VCSkinObj@@@3@V?$allocator@PAVCFastScrollCtrl@@@3@@std@@KAPAU_Node@12@PAU312@@Z 004931a0 f i inventorydlg.obj
 0001:00092220       ?_Rrotate@?$_Tree@VCSkinObj@@U?$pair@$$CBVCSkinObj@@PAVCFastScrollCtrl@@@std@@U_Kfn@?$map@VCSkinObj@@PAVCFastScrollCtrl@@U?$less@VCSkinObj@@@std@@V?$allocator@PAVCFastScrollCtrl@@@4@@3@U?$less@VCSkinObj@@@3@V?$allocator@PAVCFastScrollCtrl@@@3@@std@@IAEXPAU_Node@12@@Z 00493220 f i inventorydlg.obj
 0001:00092390       ??Eiterator@?$_Tree@VCSkinObj@@U?$pair@$$CBVCSkinObj@@PAVCFastScrollCtrl@@@std@@U_Kfn@?$map@VCSkinObj@@PAVCFastScrollCtrl@@U?$less@VCSkinObj@@@std@@V?$allocator@PAVCFastScrollCtrl@@@4@@3@U?$less@VCSkinObj@@@3@V?$allocator@PAVCFastScrollCtrl@@@3@@std@@QAEAAV012@XZ 00493390 f i inventorydlg.obj
 0001:000923b0       ??Fiterator@?$_Tree@VCSkinObj@@U?$pair@$$CBVCSkinObj@@PAVCFastScrollCtrl@@@std@@U_Kfn@?$map@VCSkinObj@@PAVCFastScrollCtrl@@U?$less@VCSkinObj@@@std@@V?$allocator@PAVCFastScrollCtrl@@@4@@3@U?$less@VCSkinObj@@@3@V?$allocator@PAVCFastScrollCtrl@@@3@@std@@QAEAAV012@XZ 004933b0 f i inventorydlg.obj
 0001:000923d0       ?_Color@?$_Tree@HU?$pair@$$CBHPAVCMailMsgWnd@@@std@@U_Kfn@?$map@HPAVCMailMsgWnd@@U?$less@H@std@@V?$allocator@PAVCMailMsgWnd@@@3@@2@U?$less@H@2@V?$allocator@PAVCMailMsgWnd@@@2@@std@@KAAAW4_Redbl@12@PAU_Node@12@@Z 004933d0 f i inventorydlg.obj
 0001:000923d0       ?_Color@?$_Tree@VCSCI_Object@@U?$pair@$$CBVCSCI_Object@@PAVCNoButtonDlg@@@std@@U_Kfn@?$map@VCSCI_Object@@PAVCNoButtonDlg@@U?$less@VCSCI_Object@@@std@@V?$allocator@PAVCNoButtonDlg@@@4@@3@U?$less@VCSCI_Object@@@3@V?$allocator@PAVCNoButtonDlg@@@3@@std@@KAAAW4_Redbl@12@PAU_Node@12@@Z 004933d0 f i inventorydlg.obj
 0001:000923d0       ?_Color@?$_Tree@PAUHWND__@@U?$pair@QAUHWND__@@PAVCMouseWheelable@@@std@@U_Kfn@?$map@PAUHWND__@@PAVCMouseWheelable@@U?$less@PAUHWND__@@@std@@V?$allocator@PAVCMouseWheelable@@@4@@3@U?$less@PAUHWND__@@@3@V?$allocator@PAVCMouseWheelable@@@3@@std@@KAAAW4_Redbl@12@PAU_Node@12@@Z 004933d0 f i inventorydlg.obj
 0001:000923d0       ?_Color@?$_Tree@VCSCI_WorldObject@@U?$pair@$$CBVCSCI_WorldObject@@PAVCInventoryDlg@@@std@@U_Kfn@?$map@VCSCI_WorldObject@@PAVCInventoryDlg@@U?$less@VCSCI_WorldObject@@@std@@V?$allocator@PAVCInventoryDlg@@@4@@3@U?$less@VCSCI_WorldObject@@@3@V?$allocator@PAVCInventoryDlg@@@3@@std@@KAAAW4_Redbl@12@PAU_Node@12@@Z 004933d0 f i inventorydlg.obj
 0001:000923d0       ?_Color@?$_Tree@HU?$pair@$$CBHVCSCI_WorldObject@@@std@@U_Kfn@?$map@HVCSCI_WorldObject@@U?$less@H@std@@V?$allocator@VCSCI_WorldObject@@@3@@2@U?$less@H@2@V?$allocator@VCSCI_WorldObject@@@2@@std@@KAAAW4_Redbl@12@PAU_Node@12@@Z 004933d0 f i inventorydlg.obj
 0001:000923d0       ?_Color@?$_Tree@HU?$pair@$$CBHPAVCMailMsg@@@std@@U_Kfn@?$map@HPAVCMailMsg@@U?$less@H@std@@V?$allocator@PAVCMailMsg@@@3@@2@U?$less@H@2@V?$allocator@PAVCMailMsg@@@2@@std@@KAAAW4_Redbl@12@PAU_Node@12@@Z 004933d0 f i inventorydlg.obj
 0001:000923d0       ?_Color@?$_Tree@PAUHWND__@@U?$pair@QAUHWND__@@PAVCSkinWnd@@@std@@U_Kfn@?$map@PAUHWND__@@PAVCSkinWnd@@U?$less@PAUHWND__@@@std@@V?$allocator@PAVCSkinWnd@@@4@@3@U?$less@PAUHWND__@@@3@V?$allocator@PAVCSkinWnd@@@3@@std@@KAAAW4_Redbl@12@PAU_Node@12@@Z 004933d0 f i inventorydlg.obj
 0001:000923d0       ?_Color@?$_Tree@HU?$pair@$$CBHPAVCVerbBtn@@@std@@U_Kfn@?$map@HPAVCVerbBtn@@U?$less@H@std@@V?$allocator@PAVCVerbBtn@@@3@@2@U?$less@H@2@V?$allocator@PAVCVerbBtn@@@2@@std@@KAAAW4_Redbl@12@PAU_Node@12@@Z 004933d0 f i inventorydlg.obj
 0001:000923d0       ?_Color@?$_Tree@HU?$pair@$$CBHPAVCVerb@@@std@@U_Kfn@?$map@HPAVCVerb@@U?$less@H@std@@V?$allocator@PAVCVerb@@@3@@2@U?$less@H@2@V?$allocator@PAVCVerb@@@2@@std@@KAAAW4_Redbl@12@PAU_Node@12@@Z 004933d0 f i inventorydlg.obj
 0001:000923d0       ?_Color@?$_Tree@PAUHWND__@@U?$pair@QAUHWND__@@PAVCDropTarget@@@std@@U_Kfn@?$map@PAUHWND__@@PAVCDropTarget@@U?$less@PAUHWND__@@@std@@V?$allocator@PAVCDropTarget@@@4@@3@U?$less@PAUHWND__@@@3@V?$allocator@PAVCDropTarget@@@3@@std@@KAAAW4_Redbl@12@PAU_Node@12@@Z 004933d0 f i inventorydlg.obj
 0001:000923e0       ?upper_bound@?$_Tree@VCSCI_WorldObject@@U?$pair@$$CBVCSCI_WorldObject@@PAVCInventoryDlg@@@std@@U_Kfn@?$map@VCSCI_WorldObject@@PAVCInventoryDlg@@U?$less@VCSCI_WorldObject@@@std@@V?$allocator@PAVCInventoryDlg@@@4@@3@U?$less@VCSCI_WorldObject@@@3@V?$allocator@PAVCInventoryDlg@@@3@@std@@QAE?AViterator@12@ABVCSCI_WorldObject@@@Z 004933e0 f i inventorydlg.obj
 0001:00092410       ?_Insert@?$_Tree@VCSCI_WorldObject@@U?$pair@$$CBVCSCI_WorldObject@@PAVCInventoryDlg@@@std@@U_Kfn@?$map@VCSCI_WorldObject@@PAVCInventoryDlg@@U?$less@VCSCI_WorldObject@@@std@@V?$allocator@PAVCInventoryDlg@@@4@@3@U?$less@VCSCI_WorldObject@@@3@V?$allocator@PAVCInventoryDlg@@@3@@std@@IAE?AViterator@12@PAU_Node@12@0ABU?$pair@$$CBVCSCI_WorldObject@@PAVCInventoryDlg@@@2@@Z 00493410 f i inventorydlg.obj
 0001:000928e0       ?_Lbound@?$_Tree@VCSCI_WorldObject@@U?$pair@$$CBVCSCI_WorldObject@@PAVCInventoryDlg@@@std@@U_Kfn@?$map@VCSCI_WorldObject@@PAVCInventoryDlg@@U?$less@VCSCI_WorldObject@@@std@@V?$allocator@PAVCInventoryDlg@@@4@@3@U?$less@VCSCI_WorldObject@@@3@V?$allocator@PAVCInventoryDlg@@@3@@std@@IBEPAU_Node@12@ABVCSCI_WorldObject@@@Z 004938e0 f i inventorydlg.obj
 0001:000929b0       ?_Lrotate@?$_Tree@VCSCI_WorldObject@@U?$pair@$$CBVCSCI_WorldObject@@PAVCInventoryDlg@@@std@@U_Kfn@?$map@VCSCI_WorldObject@@PAVCInventoryDlg@@U?$less@VCSCI_WorldObject@@@std@@V?$allocator@PAVCInventoryDlg@@@4@@3@U?$less@VCSCI_WorldObject@@@3@V?$allocator@PAVCInventoryDlg@@@3@@std@@IAEXPAU_Node@12@@Z 004939b0 f i inventorydlg.obj
 0001:00092b20       ?_Max@?$_Tree@VCSCI_WorldObject@@U?$pair@$$CBVCSCI_WorldObject@@PAVCInventoryDlg@@@std@@U_Kfn@?$map@VCSCI_WorldObject@@PAVCInventoryDlg@@U?$less@VCSCI_WorldObject@@@std@@V?$allocator@PAVCInventoryDlg@@@4@@3@U?$less@VCSCI_WorldObject@@@3@V?$allocator@PAVCInventoryDlg@@@3@@std@@KAPAU_Node@12@PAU312@@Z 00493b20 f i inventorydlg.obj
 0001:00092ba0       ?_Min@?$_Tree@VCSCI_WorldObject@@U?$pair@$$CBVCSCI_WorldObject@@PAVCInventoryDlg@@@std@@U_Kfn@?$map@VCSCI_WorldObject@@PAVCInventoryDlg@@U?$less@VCSCI_WorldObject@@@std@@V?$allocator@PAVCInventoryDlg@@@4@@3@U?$less@VCSCI_WorldObject@@@3@V?$allocator@PAVCInventoryDlg@@@3@@std@@KAPAU_Node@12@PAU312@@Z 00493ba0 f i inventorydlg.obj
 0001:00092c20       ?_Rrotate@?$_Tree@VCSCI_WorldObject@@U?$pair@$$CBVCSCI_WorldObject@@PAVCInventoryDlg@@@std@@U_Kfn@?$map@VCSCI_WorldObject@@PAVCInventoryDlg@@U?$less@VCSCI_WorldObject@@@std@@V?$allocator@PAVCInventoryDlg@@@4@@3@U?$less@VCSCI_WorldObject@@@3@V?$allocator@PAVCInventoryDlg@@@3@@std@@IAEXPAU_Node@12@@Z 00493c20 f i inventorydlg.obj
 0001:00092d90       ??Eiterator@?$_Tree@VCSCI_WorldObject@@U?$pair@$$CBVCSCI_WorldObject@@PAVCInventoryDlg@@@std@@U_Kfn@?$map@VCSCI_WorldObject@@PAVCInventoryDlg@@U?$less@VCSCI_WorldObject@@@std@@V?$allocator@PAVCInventoryDlg@@@4@@3@U?$less@VCSCI_WorldObject@@@3@V?$allocator@PAVCInventoryDlg@@@3@@std@@QAEAAV012@XZ 00493d90 f i inventorydlg.obj
 0001:00092db0       ??Fiterator@?$_Tree@VCSCI_WorldObject@@U?$pair@$$CBVCSCI_WorldObject@@PAVCInventoryDlg@@@std@@U_Kfn@?$map@VCSCI_WorldObject@@PAVCInventoryDlg@@U?$less@VCSCI_WorldObject@@@std@@V?$allocator@PAVCInventoryDlg@@@4@@3@U?$less@VCSCI_WorldObject@@@3@V?$allocator@PAVCInventoryDlg@@@3@@std@@QAEAAV012@XZ 00493db0 f i inventorydlg.obj
 0001:00092dd0       ?_Ubound@?$_Tree@VCSkinObj@@U?$pair@$$CBVCSkinObj@@PAVCFastScrollCtrl@@@std@@U_Kfn@?$map@VCSkinObj@@PAVCFastScrollCtrl@@U?$less@VCSkinObj@@@std@@V?$allocator@PAVCFastScrollCtrl@@@4@@3@U?$less@VCSkinObj@@@3@V?$allocator@PAVCFastScrollCtrl@@@3@@std@@IBEPAU_Node@12@ABVCSkinObj@@@Z 00493dd0 f i inventorydlg.obj
 0001:00092ea0       ?_Consval@?$_Tree@VCSkinObj@@U?$pair@$$CBVCSkinObj@@PAVCFastScrollCtrl@@@std@@U_Kfn@?$map@VCSkinObj@@PAVCFastScrollCtrl@@U?$less@VCSkinObj@@@std@@V?$allocator@PAVCFastScrollCtrl@@@4@@3@U?$less@VCSkinObj@@@3@V?$allocator@PAVCFastScrollCtrl@@@3@@std@@IAEXPAU?$pair@$$CBVCSkinObj@@PAVCFastScrollCtrl@@@2@ABU32@@Z 00493ea0 f i inventorydlg.obj
 0001:00092ec0       ?_Dec@const_iterator@?$_Tree@VCSkinObj@@U?$pair@$$CBVCSkinObj@@PAVCFastScrollCtrl@@@std@@U_Kfn@?$map@VCSkinObj@@PAVCFastScrollCtrl@@U?$less@VCSkinObj@@@std@@V?$allocator@PAVCFastScrollCtrl@@@4@@3@U?$less@VCSkinObj@@@3@V?$allocator@PAVCFastScrollCtrl@@@3@@std@@QAEXXZ 00493ec0 f i inventorydlg.obj
 0001:00092fd0       ?_Inc@const_iterator@?$_Tree@VCSkinObj@@U?$pair@$$CBVCSkinObj@@PAVCFastScrollCtrl@@@std@@U_Kfn@?$map@VCSkinObj@@PAVCFastScrollCtrl@@U?$less@VCSkinObj@@@std@@V?$allocator@PAVCFastScrollCtrl@@@4@@3@U?$less@VCSkinObj@@@3@V?$allocator@PAVCFastScrollCtrl@@@3@@std@@QAEXXZ 00493fd0 f i inventorydlg.obj
 0001:000930b0       ?_Ubound@?$_Tree@VCSCI_WorldObject@@U?$pair@$$CBVCSCI_WorldObject@@PAVCInventoryDlg@@@std@@U_Kfn@?$map@VCSCI_WorldObject@@PAVCInventoryDlg@@U?$less@VCSCI_WorldObject@@@std@@V?$allocator@PAVCInventoryDlg@@@4@@3@U?$less@VCSCI_WorldObject@@@3@V?$allocator@PAVCInventoryDlg@@@3@@std@@IBEPAU_Node@12@ABVCSCI_WorldObject@@@Z 004940b0 f i inventorydlg.obj
 0001:00093180       ?_Consval@?$_Tree@VCSCI_WorldObject@@U?$pair@$$CBVCSCI_WorldObject@@PAVCInventoryDlg@@@std@@U_Kfn@?$map@VCSCI_WorldObject@@PAVCInventoryDlg@@U?$less@VCSCI_WorldObject@@@std@@V?$allocator@PAVCInventoryDlg@@@4@@3@U?$less@VCSCI_WorldObject@@@3@V?$allocator@PAVCInventoryDlg@@@3@@std@@IAEXPAU?$pair@$$CBVCSCI_WorldObject@@PAVCInventoryDlg@@@2@ABU32@@Z 00494180 f i inventorydlg.obj
 0001:000931a0       ?_Dec@const_iterator@?$_Tree@VCSCI_WorldObject@@U?$pair@$$CBVCSCI_WorldObject@@PAVCInventoryDlg@@@std@@U_Kfn@?$map@VCSCI_WorldObject@@PAVCInventoryDlg@@U?$less@VCSCI_WorldObject@@@std@@V?$allocator@PAVCInventoryDlg@@@4@@3@U?$less@VCSCI_WorldObject@@@3@V?$allocator@PAVCInventoryDlg@@@3@@std@@QAEXXZ 004941a0 f i inventorydlg.obj
 0001:000932b0       ?_Inc@const_iterator@?$_Tree@VCSCI_WorldObject@@U?$pair@$$CBVCSCI_WorldObject@@PAVCInventoryDlg@@@std@@U_Kfn@?$map@VCSCI_WorldObject@@PAVCInventoryDlg@@U?$less@VCSCI_WorldObject@@@std@@V?$allocator@PAVCInventoryDlg@@@4@@3@U?$less@VCSCI_WorldObject@@@3@V?$allocator@PAVCInventoryDlg@@@3@@std@@QAEXXZ 004942b0 f i inventorydlg.obj
 0001:00093390       ?_Distance@std@@YAXViterator@?$_Tree@VCSkinObj@@U?$pair@$$CBVCSkinObj@@PAVCFastScrollCtrl@@@std@@U_Kfn@?$map@VCSkinObj@@PAVCFastScrollCtrl@@U?$less@VCSkinObj@@@std@@V?$allocator@PAVCFastScrollCtrl@@@4@@3@U?$less@VCSkinObj@@@3@V?$allocator@PAVCFastScrollCtrl@@@3@@1@0AAI@Z 00494390 f i inventorydlg.obj
 0001:000933c0       ?_Distance@std@@YAXViterator@?$_Tree@VCSCI_WorldObject@@U?$pair@$$CBVCSCI_WorldObject@@PAVCInventoryDlg@@@std@@U_Kfn@?$map@VCSCI_WorldObject@@PAVCInventoryDlg@@U?$less@VCSCI_WorldObject@@@std@@V?$allocator@PAVCInventoryDlg@@@4@@3@U?$less@VCSCI_WorldObject@@@3@V?$allocator@PAVCInventoryDlg@@@3@@1@0AAI@Z 004943c0 f i inventorydlg.obj
 0001:000933f0       ?_Destroy@std@@YAXPAU?$pair@$$CBVCSkinObj@@PAVCFastScrollCtrl@@@1@@Z 004943f0 f i inventorydlg.obj
 0001:000933f0       ?_Destroy@std@@YAXPAU?$pair@$$CBVCSkinObj@@PAVCSkinCtrl@@@1@@Z 004943f0 f i inventorydlg.obj
 0001:00093400       ?_Construct@std@@YAXPAU?$pair@$$CBVCSkinObj@@PAVCFastScrollCtrl@@@1@ABU21@@Z 00494400 f i inventorydlg.obj
 0001:00093470       ?_Construct@std@@YAXPAU?$pair@$$CBVCSCI_WorldObject@@PAVCInventoryDlg@@@1@ABU21@@Z 00494470 f i inventorydlg.obj
 0001:000934e0       ??_G?$pair@$$CBVCSkinObj@@PAVCSkinCtrl@@@std@@QAEPAXI@Z 004944e0 f i inventorydlg.obj
 0001:000934e0       ??_G?$pair@$$CBVCSkinObj@@PAVCFastScrollCtrl@@@std@@QAEPAXI@Z 004944e0 f i inventorydlg.obj
 0001:00093510       ??0?$pair@$$CBVCSkinObj@@PAVCFastScrollCtrl@@@std@@QAE@ABU01@@Z 00494510 f i inventorydlg.obj
 0001:00093510       ??0?$pair@$$CBVCSkinObj@@PAVCSkinCtrl@@@std@@QAE@ABU01@@Z 00494510 f i inventorydlg.obj
 0001:00093540       ??0?$pair@$$CBVCSCI_WorldObject@@PAVCInventoryDlg@@@std@@QAE@ABU01@@Z 00494540 f i inventorydlg.obj
 0001:00093570       ?_Distance@std@@YAXViterator@?$_Tree@VCSkinObj@@U?$pair@$$CBVCSkinObj@@PAVCFastScrollCtrl@@@std@@U_Kfn@?$map@VCSkinObj@@PAVCFastScrollCtrl@@U?$less@VCSkinObj@@@std@@V?$allocator@PAVCFastScrollCtrl@@@4@@3@U?$less@VCSkinObj@@@3@V?$allocator@PAVCFastScrollCtrl@@@3@@1@0AAIUbidirectional_iterator_tag@1@@Z 00494570 f i inventorydlg.obj
 0001:000935b0       ?_Distance@std@@YAXViterator@?$_Tree@VCSCI_WorldObject@@U?$pair@$$CBVCSCI_WorldObject@@PAVCInventoryDlg@@@std@@U_Kfn@?$map@VCSCI_WorldObject@@PAVCInventoryDlg@@U?$less@VCSCI_WorldObject@@@std@@V?$allocator@PAVCInventoryDlg@@@4@@3@U?$less@VCSCI_WorldObject@@@3@V?$allocator@PAVCInventoryDlg@@@3@@1@0AAIUbidirectional_iterator_tag@1@@Z 004945b0 f i inventorydlg.obj
 0001:000935f0       ??0CSCI_WorldObjectBase@@QAE@XZ 004945f0 f i inventorydlg.obj
 0001:000935f0       ??0CSCI_Collection@@QAE@XZ 004945f0 f i inventorydlg.obj
 0001:000935f0       ??0CSCI_ArmorInfo@@QAE@XZ  004945f0 f i inventorydlg.obj
 0001:000935f0       ??0CSCI_Script@@QAE@XZ     004945f0 f i inventorydlg.obj
 0001:000935f0       ??0CSCI_LongInt@@QAE@XZ    004945f0 f i inventorydlg.obj
 0001:000935f0       ??0CSCI_Rectangle@@QAE@XZ  004945f0 f i inventorydlg.obj
 0001:000935f0       ??0CSCI_CharInfo@@QAE@XZ   004945f0 f i inventorydlg.obj
 0001:00093610       ?get_pContents@CSCI_BContainer@@QAEFXZ 00494610 f i inventorydlg.obj
 0001:00093630       ?get_pIsWorn@CSCI_BWearable@@QAEFXZ 00494630 f i inventorydlg.obj
 0001:00093650       ?_GetBaseMessageMap@CInventoryListCtrl@@KGPBUAFX_MSGMAP@@XZ 00494650 f   invlistctrl.obj
 0001:0009365a       ?GetMessageMap@CInventoryListCtrl@@MBEPBUAFX_MSGMAP@@XZ 0049465a f   invlistctrl.obj
 0001:0009366a       ??0CInventoryListCtrl@@QAE@VCSkinObj@@VCSCI_WorldObject@@@Z 0049466a f   invlistctrl.obj
 0001:00093747       ??1CInventoryListCtrl@@UAE@XZ 00494747 f   invlistctrl.obj
 0001:000937e0       ?OnItemActivate@CInventoryListCtrl@@UAEXH_N@Z 004947e0 f   invlistctrl.obj
 0001:000939db       ?OnStartDrag@CInventoryListCtrl@@IAEXPAUtagNMHDR@@PAJ@Z 004949db f   invlistctrl.obj
 0001:00093ac0       ?CanAcceptDrop@CInventoryListCtrl@@UAEPAUHICON__@@AAVCDraggable@@AAVCPoint@@@Z 00494ac0 f   invlistctrl.obj
 0001:00093b25       ?AcceptDrop@CInventoryListCtrl@@UAEXAAVCDraggable@@AAVCPoint@@@Z 00494b25 f   invlistctrl.obj
 0001:00093d9b       ?OnCreate@CInventoryListCtrl@@IAEHPAUtagCREATESTRUCTA@@@Z 00494d9b f   invlistctrl.obj
 0001:00093dcb       ?ObjectFromPoint@CInventoryListCtrl@@QAE?AVCSCI_WorldObject@@AAVCPoint@@@Z 00494dcb f   invlistctrl.obj
 0001:00093e47       ?ObjectFromScreenPoint@CInventoryListCtrl@@QAE?AVCSCI_WorldObject@@AAVCPoint@@@Z 00494e47 f   invlistctrl.obj
 0001:00093e8c       ?SetFastScrollUp@CInventoryListCtrl@@QAEXPAVCFastScrollCtrl@@@Z 00494e8c f   invlistctrl.obj
 0001:00093ea5       ?SetFastScrollDown@CInventoryListCtrl@@QAEXPAVCFastScrollCtrl@@@Z 00494ea5 f   invlistctrl.obj
 0001:00093ebe       ?OnSetCursor@CInventoryListCtrl@@IAEHPAVCWnd@@II@Z 00494ebe f   invlistctrl.obj
 0001:00094000       ??_ECInventoryListCtrl@@UAEPAXI@Z 00495000 f i invlistctrl.obj
 0001:00094000       ??_GCInventoryListCtrl@@UAEPAXI@Z 00495000 f i invlistctrl.obj
 0001:00094030       ??_ECInventoryListCtrl@@WEA@AEPAXI@Z 00495030 f i invlistctrl.obj
 0001:00094040       ??_ECInventoryListCtrl@@WHE@AEPAXI@Z 00495040 f i invlistctrl.obj
 0001:00094050       ??_ECInventoryListCtrl@@WLE@AEPAXI@Z 00495050 f i invlistctrl.obj
 0001:00094060       ?set_pIndirectObject@CSCI_WorldObject@@QAEXF@Z 00495060 f i invlistctrl.obj
 0001:00094060       ?set_pIndirectObject@CSCI_CVerbRequest@@QAEXF@Z 00495060 f i invlistctrl.obj
 0001:00094080       ?get_pTargetting@CSCI_WorldEgo@@QAEFXZ 00495080 f i invlistctrl.obj
 0001:000940a0       ?GetObjectA@CWorldObjectDraggable@@QAE?AVCSCI_WorldObject@@XZ 004950a0 f i invlistctrl.obj
 0001:000940c0       ??0CItemListDlg@@QAE@XZ    004950c0 f   ItemList.obj
 0001:0009417a       ?CloseSelf@CItemListDlg@@UAEX_N@Z 0049517a f   ItemList.obj
 0001:000941e9       ?Create@CItemListDlg@@QAEHVCSCI_List@@VCSCI_Object@@@Z 004951e9 f   ItemList.obj
 0001:00094498       ?MakeSkinCtrl@CItemListDlg@@UAEPAVCSkinCtrl@@VCSkinObj@@@Z 00495498 f   ItemList.obj
 0001:0009462f       ?OnClick@CItemListDlg@@QAEXF_N@Z 0049562f f   ItemList.obj
 0001:000947ed       ?HandleVerb@CItemListDlg@@UAEHHVCSCI_WorldObject@@@Z 004957ed f   ItemList.obj
 0001:00094860       ??_GCItemListDlg@@UAEPAXI@Z 00495860 f i ItemList.obj
 0001:00094860       ??_ECItemListDlg@@UAEPAXI@Z 00495860 f i ItemList.obj
 0001:00094890       ??1CItemListDlg@@UAE@XZ    00495890 f i ItemList.obj
 0001:00094900       ??0CItemListCtrl@@QAE@XZ   00495900 f i ItemList.obj
 0001:00094940       ?OnItemActivate@CItemListCtrl@@UAEXH_N@Z 00495940 f i ItemList.obj
 0001:00094970       ??_ECItemListCtrl@@UAEPAXI@Z 00495970 f i ItemList.obj
 0001:00094970       ??_GCItemListCtrl@@UAEPAXI@Z 00495970 f i ItemList.obj
 0001:000949a0       ??1CItemListCtrl@@UAE@XZ   004959a0 f i ItemList.obj
 0001:000949e0       ??_ECItemListCtrl@@WEA@AEPAXI@Z 004959e0 f i ItemList.obj
 0001:000949f0       ??_ECItemListCtrl@@WHE@AEPAXI@Z 004959f0 f i ItemList.obj
 0001:00094a00       ??_ECItemListDlg@@WJE@AEPAXI@Z 00495a00 f i ItemList.obj
 0001:00094a10       ?get_scratch@CSCI_Object@@QAEFXZ 00495a10 f i ItemList.obj
 0001:00094a30       ?_GetBaseMessageMap@CLogInDlg@@KGPBUAFX_MSGMAP@@XZ 00495a30 f   LogInDlg.obj
 0001:00094a3a       ?GetMessageMap@CLogInDlg@@MBEPBUAFX_MSGMAP@@XZ 00495a3a f   LogInDlg.obj
 0001:00094a4a       ?_GetBaseMessageMap@CSplashDlg@@KGPBUAFX_MSGMAP@@XZ 00495a4a f   LogInDlg.obj
 0001:00094a54       ?GetMessageMap@CSplashDlg@@MBEPBUAFX_MSGMAP@@XZ 00495a54 f   LogInDlg.obj
 0001:00094a64       ?OnResize@CLogInDlg@@QAEXPAUtagNMHDR@@PAJ@Z 00495a64 f   LogInDlg.obj
 0001:00094b02       ??0CLogInDlg@@QAE@XZ       00495b02 f   LogInDlg.obj
 0001:00094b2e       ??1CLogInDlg@@UAE@XZ       00495b2e f   LogInDlg.obj
 0001:00094bb6       ?CloseSelf@CLogInDlg@@UAEX_N@Z 00495bb6 f   LogInDlg.obj
 0001:00094bcf       ?Create@CLogInDlg@@QAEHPAD0@Z 00495bcf f   LogInDlg.obj
 0001:00094cae       ?AddText@CLogInDlg@@QAEXPADH@Z 00495cae f   LogInDlg.obj
 0001:00094d0c       ?MakeSkinCtrl@CLogInDlg@@UAEPAVCSkinCtrl@@VCSkinObj@@@Z 00495d0c f   LogInDlg.obj
 0001:00094eaa       ?Create@CSplashDlg@@QAEHPAVCWnd@@@Z 00495eaa f   LogInDlg.obj
 0001:00094f42       ?OnWindowPosChanged@CSplashDlg@@QAEXPAUtagWINDOWPOS@@@Z 00495f42 f   LogInDlg.obj
 0001:00094f6f       ??0CLogInPassword@@QAE@VCSCI_Script@@VStringID@@1VCSCI_LongInt@@1@Z 00495f6f f   LogInDlg.obj
 0001:00095031       ?CloseSelf@CLogInPassword@@UAEX_N@Z 00496031 f   LogInDlg.obj
 0001:000951fd       ?Create@CLogInPassword@@QAEHXZ 004961fd f   LogInDlg.obj
 0001:00095323       ?MakeSkinCtrl@CLogInPassword@@UAEPAVCSkinCtrl@@VCSkinObj@@@Z 00496323 f   LogInDlg.obj
 0001:00095620       ?Next@CLogInPassword@@UAEXXZ 00496620 f   LogInDlg.obj
 0001:0009563b       ??0CSignupBtn@@QAE@VCSkinObj@@PAVCSkinWnd@@@Z 0049663b f   LogInDlg.obj
 0001:000956ae       ?OnActivate@CSignupBtn@@UAEXFF@Z 004966ae f   LogInDlg.obj
 0001:000956d3       ??0CAccountDlg@@QAE@VCSCI_Script@@@Z 004966d3 f   LogInDlg.obj
 0001:00095740       ?CloseSelf@CAccountDlg@@UAEX_N@Z 00496740 f   LogInDlg.obj
 0001:000957a5       ?Create@CAccountDlg@@QAEHXZ 004967a5 f   LogInDlg.obj
 0001:00095810       ??_ECLogInDlg@@UAEPAXI@Z   00496810 f i LogInDlg.obj
 0001:00095810       ??_GCLogInDlg@@UAEPAXI@Z   00496810 f i LogInDlg.obj
 0001:00095840       ??_GCLogInPassword@@UAEPAXI@Z 00496840 f i LogInDlg.obj
 0001:00095840       ??_ECLogInPassword@@UAEPAXI@Z 00496840 f i LogInDlg.obj
 0001:00095870       ??1CLogInPassword@@UAE@XZ  00496870 f i LogInDlg.obj
 0001:00095890       ??_GCTabBtn@@UAEPAXI@Z     00496890 f i LogInDlg.obj
 0001:00095890       ??_ECSignupBtn@@UAEPAXI@Z  00496890 f i LogInDlg.obj
 0001:00095890       ??_ECTabBtn@@UAEPAXI@Z     00496890 f i LogInDlg.obj
 0001:00095890       ??_GCSignupBtn@@UAEPAXI@Z  00496890 f i LogInDlg.obj
 0001:000958c0       ??_GCAccountDlg@@UAEPAXI@Z 004968c0 f i LogInDlg.obj
 0001:000958c0       ??_ECAccountDlg@@UAEPAXI@Z 004968c0 f i LogInDlg.obj
 0001:000958f0       ??1CAccountDlg@@UAE@XZ     004968f0 f i LogInDlg.obj
 0001:00095910       ?GetFocus@CWnd@@SGPAV1@XZ  00496910 f i LogInDlg.obj
 0001:00095930       ??0CLoginWnd@@QAE@XZ       00496930 f   loginwnd.obj
 0001:00095976       ??1CLoginWnd@@UAE@XZ       00496976 f   loginwnd.obj
 0001:00095a9f       ?Create@CLoginWnd@@QAEHXZ  00496a9f f   loginwnd.obj
 0001:00095d40       ??_GCLoginWnd@@UAEPAXI@Z   00496d40 f i loginwnd.obj
 0001:00095d40       ??_ECLoginWnd@@UAEPAXI@Z   00496d40 f i loginwnd.obj
 0001:00095d70       ??0CFont@@QAE@XZ           00496d70 f i loginwnd.obj
 0001:00095d90       ??0CGdiObject@@QAE@XZ      00496d90 f i loginwnd.obj
 0001:00095dc0       ??0CObject@@IAE@XZ         00496dc0 f i loginwnd.obj
 0001:00095de0       ??_GCObject@@UAEPAXI@Z     00496de0 f i loginwnd.obj
 0001:00095de0       ??_ECObject@@UAEPAXI@Z     00496de0 f i loginwnd.obj
 0001:00095e10       ??1CObject@@UAE@XZ         00496e10 f i loginwnd.obj
 0001:00095e30       ??_GCGdiObject@@UAEPAXI@Z  00496e30 f i loginwnd.obj
 0001:00095e30       ??_ECGdiObject@@UAEPAXI@Z  00496e30 f i loginwnd.obj
 0001:00095e60       ??1CGdiObject@@UAE@XZ      00496e60 f i loginwnd.obj
 0001:00095ec0       ??_GCFont@@UAEPAXI@Z       00496ec0 f i loginwnd.obj
 0001:00095ec0       ??_ECFont@@UAEPAXI@Z       00496ec0 f i loginwnd.obj
 0001:00095ef0       ??1CFont@@UAE@XZ           00496ef0 f i loginwnd.obj
 0001:00095f10       ?GetTextExtent@CDC@@QBE?AVCSize@@ABVCString@@@Z 00496f10 f i loginwnd.obj
 0001:00095f60       ??0CSize@@QAE@UtagSIZE@@@Z 00496f60 f i loginwnd.obj
 0001:00095f80       ?SetFont@CWnd@@QAEXPAVCFont@@H@Z 00496f80 f i loginwnd.obj
 0001:00095fb0       ?GetSafeHandle@CGdiObject@@QBEPAXXZ 00496fb0 f i loginwnd.obj
 0001:00095fe0       ?GetDC@CWnd@@QAEPAVCDC@@XZ 00496fe0 f i loginwnd.obj
 0001:00096000       ?ReleaseDC@CWnd@@QAEHPAVCDC@@@Z 00497000 f i loginwnd.obj
 0001:00096030       ??0CEdit@@QAE@XZ           00497030 f i loginwnd.obj
 0001:00096050       ??_GCEdit@@UAEPAXI@Z       00497050 f i loginwnd.obj
 0001:00096050       ??_ECEdit@@UAEPAXI@Z       00497050 f i loginwnd.obj
 0001:00096080       ?_GetBaseMessageMap@CBioLine@@KGPBUAFX_MSGMAP@@XZ 00497080 f   LookAt.obj
 0001:0009608a       ?GetMessageMap@CBioLine@@MBEPBUAFX_MSGMAP@@XZ 0049708a f   LookAt.obj
 0001:0009609a       ??0CBioLine@@QAE@VCSkinObj@@PAVCSkinWnd@@IK_N22@Z 0049709a f   LookAt.obj
 0001:0009613f       ?OnChar@CBioLine@@QAEXIII@Z 0049713f f   LookAt.obj
 0001:00096365       ?MakeString@@YA?AVCString@@H@Z 00497365 f   LookAt.obj
 0001:000964a9       ??0CLookAt@@QAE@H@Z        004974a9 f   LookAt.obj
 0001:00096558       ?CloseSelf@CLookAt@@UAEX_N@Z 00497558 f   LookAt.obj
 0001:0009665b       ?Create@CLookAt@@QAEHPBD@Z 0049765b f   LookAt.obj
 0001:00096dd9       ?MakeSkinCtrl@CLookAt@@UAEPAVCSkinCtrl@@VCSkinObj@@@Z 00497dd9 f   LookAt.obj
 0001:0009b3da       ?SaveName@CLookAt@@QAEXXZ  0049c3da f   LookAt.obj
 0001:0009b507       ?Hide@CLookAt@@UAEXXZ      0049c507 f   LookAt.obj
 0001:0009b524       ?Show@CLookAt@@UAEXXZ      0049c524 f   LookAt.obj
 0001:0009b574       ?TogglePVP@CLookAt@@QAE_NXZ 0049c574 f   LookAt.obj
 0001:0009b5c8       ??0CLookAtFiller@@QAE@XZ   0049c5c8 f   LookAt.obj
 0001:0009b5f0       ?CloseSelf@CLookAtFiller@@UAEX_N@Z 0049c5f0 f   LookAt.obj
 0001:0009b613       ?Create@CLookAtFiller@@QAEHPAVCWnd@@@Z 0049c613 f   LookAt.obj
 0001:0009b666       ??0CPVPAttribute@@QAE@VCSkinObj@@PAVCSkinWnd@@_N@Z 0049c666 f   LookAt.obj
 0001:0009b706       ?ChangeValue@CPVPAttribute@@UAEXH@Z 0049c706 f   LookAt.obj
 0001:0009b74e       ??0CLookAtBtn@@QAE@VCSkinObj@@PAVCSkinWnd@@H@Z 0049c74e f   LookAt.obj
 0001:0009b7ca       ?OnActivate@CLookAtBtn@@UAEXFF@Z 0049c7ca f   LookAt.obj
 0001:0009b8fd       ?_GetBaseMessageMap@CLookAtItem@@KGPBUAFX_MSGMAP@@XZ 0049c8fd f   LookAt.obj
 0001:0009b907       ?GetMessageMap@CLookAtItem@@MBEPBUAFX_MSGMAP@@XZ 0049c907 f   LookAt.obj
 0001:0009b917       ??0CLookAtItem@@QAE@XZ     0049c917 f   LookAt.obj
 0001:0009b9a6       ??1CLookAtItem@@UAE@XZ     0049c9a6 f   LookAt.obj
 0001:0009ba17       ?Create@CLookAtItem@@QAEHVCSCI_WorldObject@@VStringID@@@Z 0049ca17 f   LookAt.obj
 0001:0009bf46       ?MakeSkinCtrl@CLookAtItem@@UAEPAVCSkinCtrl@@VCSkinObj@@@Z 0049cf46 f   LookAt.obj
 0001:0009c0ce       ?Update@CLookAtItem@@QAEXVStringID@@@Z 0049d0ce f   LookAt.obj
 0001:0009c154       ?Match@CLookAtItem@@QAEHVCSCI_WorldObject@@@Z 0049d154 f   LookAt.obj
 0001:0009c172       ?Look@CLookAtItem@@SAXVCSCI_WorldObject@@VStringID@@@Z 0049d172 f   LookAt.obj
 0001:0009c2de       ?OnResize@CLookAtItem@@QAEXPAUtagNMHDR@@PAJ@Z 0049d2de f   LookAt.obj
 0001:0009c380       ??_GCLookAt@@UAEPAXI@Z     0049d380 f i LookAt.obj
 0001:0009c380       ??_ECLookAt@@UAEPAXI@Z     0049d380 f i LookAt.obj
 0001:0009c3b0       ??1CLookAt@@UAE@XZ         0049d3b0 f i LookAt.obj
 0001:0009c400       ??_GCLookAtFiller@@UAEPAXI@Z 0049d400 f i LookAt.obj
 0001:0009c400       ??_ECLookAtFiller@@UAEPAXI@Z 0049d400 f i LookAt.obj
 0001:0009c430       ??_ECPVPAttribute@@UAEPAXI@Z 0049d430 f i LookAt.obj
 0001:0009c430       ??_GCPVPAttribute@@UAEPAXI@Z 0049d430 f i LookAt.obj
 0001:0009c460       ??1CPVPAttribute@@UAE@XZ   0049d460 f i LookAt.obj
 0001:0009c480       ??_ECToonMakeRaceDownBtn@@UAEPAXI@Z 0049d480 f i LookAt.obj
 0001:0009c480       ??_GCColorBtn@@UAEPAXI@Z   0049d480 f i LookAt.obj
 0001:0009c480       ??_GCEraseBtn@@UAEPAXI@Z   0049d480 f i LookAt.obj
 0001:0009c480       ??_GCQuestionExitBtn@@UAEPAXI@Z 0049d480 f i LookAt.obj
 0001:0009c480       ??_ECReplyBtn@@UAEPAXI@Z   0049d480 f i LookAt.obj
 0001:0009c480       ??_ECColorBtn@@UAEPAXI@Z   0049d480 f i LookAt.obj
 0001:0009c480       ??_ECSendBtn@@UAEPAXI@Z    0049d480 f i LookAt.obj
 0001:0009c480       ??_GCNextBtn@@UAEPAXI@Z    0049d480 f i LookAt.obj
 0001:0009c480       ??_ECModifyBtn@@UAEPAXI@Z  0049d480 f i LookAt.obj
 0001:0009c480       ??_ECEraseToonBtn@@UAEPAXI@Z 0049d480 f i LookAt.obj
 0001:0009c480       ??_GCSellBtn@@UAEPAXI@Z    0049d480 f i LookAt.obj
 0001:0009c480       ??_ECSellAllBtn@@UAEPAXI@Z 0049d480 f i LookAt.obj
 0001:0009c480       ??_GCReplyBtn@@UAEPAXI@Z   0049d480 f i LookAt.obj
 0001:0009c480       ??_GCSellAllBtn@@UAEPAXI@Z 0049d480 f i LookAt.obj
 0001:0009c480       ??_ECSettingsBtn@@UAEPAXI@Z 0049d480 f i LookAt.obj
 0001:0009c480       ??_GCToonMakeRaceDownBtn@@UAEPAXI@Z 0049d480 f i LookAt.obj
 0001:0009c480       ??_ECEraseBtn@@UAEPAXI@Z   0049d480 f i LookAt.obj
 0001:0009c480       ??_ECCancelBtn@@UAEPAXI@Z  0049d480 f i LookAt.obj
 0001:0009c480       ??_ECLookAtBtn@@UAEPAXI@Z  0049d480 f i LookAt.obj
 0001:0009c480       ??_GCToonMakeRandomBtn@@UAEPAXI@Z 0049d480 f i LookAt.obj
 0001:0009c480       ??_GCOkBtn@@UAEPAXI@Z      0049d480 f i LookAt.obj
 0001:0009c480       ??_GCForwardBtn@@UAEPAXI@Z 0049d480 f i LookAt.obj
 0001:0009c480       ??_ECToonMakeSexBtn@@UAEPAXI@Z 0049d480 f i LookAt.obj
 0001:0009c480       ??_GCDoneBtn@@UAEPAXI@Z    0049d480 f i LookAt.obj
 0001:0009c480       ??_GCSendBtn@@UAEPAXI@Z    0049d480 f i LookAt.obj
 0001:0009c480       ??_GCModifyBtn@@UAEPAXI@Z  0049d480 f i LookAt.obj
 0001:0009c480       ??_GCEraseToonBtn@@UAEPAXI@Z 0049d480 f i LookAt.obj
 0001:0009c480       ??_ECQuestionExitBtn@@UAEPAXI@Z 0049d480 f i LookAt.obj
 0001:0009c480       ??_ECOkBtn@@UAEPAXI@Z      0049d480 f i LookAt.obj
 0001:0009c480       ??_GCToonMakeRaceUpBtn@@UAEPAXI@Z 0049d480 f i LookAt.obj
 0001:0009c480       ??_GCLookAtBtn@@UAEPAXI@Z  0049d480 f i LookAt.obj
 0001:0009c480       ??_ECToonMakeRandomBtn@@UAEPAXI@Z 0049d480 f i LookAt.obj
 0001:0009c480       ??_GCToonMakeSexBtn@@UAEPAXI@Z 0049d480 f i LookAt.obj
 0001:0009c480       ??_GCMaxBtn@@UAEPAXI@Z     0049d480 f i LookAt.obj
 0001:0009c480       ??_GCRepairBtn@@UAEPAXI@Z  0049d480 f i LookAt.obj
 0001:0009c480       ??_ECForwardBtn@@UAEPAXI@Z 0049d480 f i LookAt.obj
 0001:0009c480       ??_ECNextBtn@@UAEPAXI@Z    0049d480 f i LookAt.obj
 0001:0009c480       ??_GCCancelBtn@@UAEPAXI@Z  0049d480 f i LookAt.obj
 0001:0009c480       ??_ECRepairBtn@@UAEPAXI@Z  0049d480 f i LookAt.obj
 0001:0009c480       ??_ECMaxBtn@@UAEPAXI@Z     0049d480 f i LookAt.obj
 0001:0009c480       ??_GCSettingsBtn@@UAEPAXI@Z 0049d480 f i LookAt.obj
 0001:0009c480       ??_ECDoneBtn@@UAEPAXI@Z    0049d480 f i LookAt.obj
 0001:0009c480       ??_ECSellBtn@@UAEPAXI@Z    0049d480 f i LookAt.obj
 0001:0009c480       ??_ECToonMakeRaceUpBtn@@UAEPAXI@Z 0049d480 f i LookAt.obj
 0001:0009c480       ??_GCToonMakeFeatureDownBtn@@UAEPAXI@Z 0049d480 f i LookAt.obj
 0001:0009c480       ??_ECToonMakeFeatureDownBtn@@UAEPAXI@Z 0049d480 f i LookAt.obj
 0001:0009c4b0       ??_GCLookAtItem@@UAEPAXI@Z 0049d4b0 f i LookAt.obj
 0001:0009c4b0       ??_ECLookAtItem@@UAEPAXI@Z 0049d4b0 f i LookAt.obj
 0001:0009c4e0       ?Width@CRect@@QBEHXZ       0049d4e0 f i LookAt.obj
 0001:0009c500       ??0const_iterator@?$list@PADV?$allocator@PAD@std@@@std@@QAE@XZ 0049d500 f i LookAt.obj
 0001:0009c500       ?TopLeft@CRect@@QAEAAVCPoint@@XZ 0049d500 f i LookAt.obj
 0001:0009c500       ??0Rgb24@@QAE@XZ           0049d500 f i LookAt.obj
 0001:0009c500       ??0const_iterator@?$_Tree@VCSkinObj@@U?$pair@$$CBVCSkinObj@@PAVCFastScrollCtrl@@@std@@U_Kfn@?$map@VCSkinObj@@PAVCFastScrollCtrl@@U?$less@VCSkinObj@@@std@@V?$allocator@PAVCFastScrollCtrl@@@4@@3@U?$less@VCSkinObj@@@3@V?$allocator@PAVCFastScrollCtrl@@@3@@std@@QAE@XZ 0049d500 f i LookAt.obj
 0001:0009c500       ??0const_iterator@?$_Tree@VCString@@U?$pair@$$CBVCString@@VCPerson@@@std@@U_Kfn@?$map@VCString@@VCPerson@@U?$less@VCString@@@std@@V?$allocator@VCPerson@@@4@@3@U?$less@VCString@@@3@V?$allocator@VCPerson@@@3@@std@@QAE@XZ 0049d500 f i LookAt.obj
 0001:0009c500       ??0const_iterator@?$list@PAVCListData@@V?$allocator@PAVCListData@@@std@@@std@@QAE@XZ 0049d500 f i LookAt.obj
 0001:0009c500       ??0const_iterator@?$_Tree@V?$basic_string@DU?$char_traits@D@std@@V?$allocator@D@2@@std@@U?$pair@$$CBV?$basic_string@DU?$char_traits@D@std@@V?$allocator@D@2@@std@@VCPoint@@@2@U_Kfn@?$map@V?$basic_string@DU?$char_traits@D@std@@V?$allocator@D@2@@std@@VCPoint@@U?$less@V?$basic_string@DU?$char_traits@D@std@@V?$allocator@D@2@@std@@@2@V?$allocator@VCPoint@@@2@@2@U?$less@V?$basic_string@DU?$char_traits@D@std@@V?$allocator@D@2@@std@@@2@V?$allocator@VCPoint@@@2@@std@@QAE@XZ 0049d500 f i LookAt.obj
 0001:0009c500       ??0CSize@@QAE@XZ           0049d500 f i LookAt.obj
 0001:0009c500       ??0const_iterator@?$_Tree@V?$basic_string@DU?$char_traits@D@std@@V?$allocator@D@2@@std@@U?$pair@$$CBV?$basic_string@DU?$char_traits@D@std@@V?$allocator@D@2@@std@@PAVCPrivateTell@@@2@U_Kfn@?$map@V?$basic_string@DU?$char_traits@D@std@@V?$allocator@D@2@@std@@PAVCPrivateTell@@U?$less@V?$basic_string@DU?$char_traits@D@std@@V?$allocator@D@2@@std@@@2@V?$allocator@PAVCPrivateTell@@@2@@2@U?$less@V?$basic_string@DU?$char_traits@D@std@@V?$allocator@D@2@@std@@@2@V?$allocator@PAVCPrivateTell@@@2@@std@@QAE@XZ 0049d500 f i LookAt.obj
 0001:0009c500       ??0const_iterator@?$_Tree@PAVCSkinCtrl@@PAV1@U_Kfn@?$set@PAVCSkinCtrl@@U?$less@PAVCSkinCtrl@@@std@@V?$allocator@PAVCSkinCtrl@@@3@@std@@U?$less@PAVCSkinCtrl@@@4@V?$allocator@PAVCSkinCtrl@@@4@@std@@QAE@XZ 0049d500 f i LookAt.obj
 0001:0009c500       ??0const_iterator@?$list@PAVCLookAtItem@@V?$allocator@PAVCLookAtItem@@@std@@@std@@QAE@XZ 0049d500 f i LookAt.obj
 0001:0009c500       ??ICComBSTR@ATL@@QAEPAPAGXZ 0049d500 f i LookAt.obj
 0001:0009c500       ??0const_iterator@?$list@PAVCSkinWnd@@V?$allocator@PAVCSkinWnd@@@std@@@std@@QAE@XZ 0049d500 f i LookAt.obj
 0001:0009c500       ??0CPoint@@QAE@XZ          0049d500 f i LookAt.obj
 0001:0009c500       ??0const_iterator@?$list@PAVCVerbRequest@@V?$allocator@PAVCVerbRequest@@@std@@@std@@QAE@XZ 0049d500 f i LookAt.obj
 0001:0009c500       ??0const_iterator@?$_Tree@PAVCSkinWnd@@PAV1@U_Kfn@?$set@PAVCSkinWnd@@U?$less@PAVCSkinWnd@@@std@@V?$allocator@PAVCSkinWnd@@@3@@std@@U?$less@PAVCSkinWnd@@@4@V?$allocator@PAVCSkinWnd@@@4@@std@@QAE@XZ 0049d500 f i LookAt.obj
 0001:0009c500       ?Planes@Screen@@QAEAAVPlaneList@@XZ 0049d500 f i LookAt.obj
 0001:0009c500       ??0const_iterator@?$list@PAVCMailMsg@@V?$allocator@PAVCMailMsg@@@std@@@std@@QAE@XZ 0049d500 f i LookAt.obj
 0001:0009c500       ??0const_iterator@?$_Tree@VCSCI_Object@@U?$pair@$$CBVCSCI_Object@@PAVCNoButtonDlg@@@std@@U_Kfn@?$map@VCSCI_Object@@PAVCNoButtonDlg@@U?$less@VCSCI_Object@@@std@@V?$allocator@PAVCNoButtonDlg@@@4@@3@U?$less@VCSCI_Object@@@3@V?$allocator@PAVCNoButtonDlg@@@3@@std@@QAE@XZ 0049d500 f i LookAt.obj
 0001:0009c500       ??0CRect@@QAE@XZ           0049d500 f i LookAt.obj
 0001:0009c500       ??0CTime@@QAE@XZ           0049d500 f i LookAt.obj
 0001:0009c500       ??0const_iterator@?$_Tree@HU?$pair@$$CBHPAVCVerb@@@std@@U_Kfn@?$map@HPAVCVerb@@U?$less@H@std@@V?$allocator@PAVCVerb@@@3@@2@U?$less@H@2@V?$allocator@PAVCVerb@@@2@@std@@QAE@XZ 0049d500 f i LookAt.obj
 0001:0009c510       ??ZCRect@@QAEXUtagPOINT@@@Z 0049d510 f i LookAt.obj
 0001:0009c540       ??1?$list@PAVCLookAtItem@@V?$allocator@PAVCLookAtItem@@@std@@@std@@QAE@XZ 0049d540 f i LookAt.obj
 0001:0009c5a0       ?push_back@?$list@PAVCLookAtItem@@V?$allocator@PAVCLookAtItem@@@std@@@std@@QAEXABQAVCLookAtItem@@@Z 0049d5a0 f i LookAt.obj
 0001:0009c5d0       ?remove@?$list@PAVCLookAtItem@@V?$allocator@PAVCLookAtItem@@@std@@@std@@QAEXABQAVCLookAtItem@@@Z 0049d5d0 f i LookAt.obj
 0001:0009c650       ??9iterator@?$list@PAVCLookAtItem@@V?$allocator@PAVCLookAtItem@@@std@@@std@@QBE_NABV012@@Z 0049d650 f i LookAt.obj
 0001:0009c680       ?erase@?$list@PAVCLookAtItem@@V?$allocator@PAVCLookAtItem@@@std@@@std@@QAE?AViterator@12@V312@0@Z 0049d680 f i LookAt.obj
 0001:0009c6d0       ?_Freenode@?$_Tree@PAUHWND__@@U?$pair@QAUHWND__@@PAVCDropTarget@@@std@@U_Kfn@?$map@PAUHWND__@@PAVCDropTarget@@U?$less@PAUHWND__@@@std@@V?$allocator@PAVCDropTarget@@@4@@3@U?$less@PAUHWND__@@@3@V?$allocator@PAVCDropTarget@@@3@@std@@IAEXPAU_Node@12@@Z 0049d6d0 f i LookAt.obj
 0001:0009c6d0       ?_Freenode@?$_Tree@VCSkinObj@@U?$pair@$$CBVCSkinObj@@PAVCFastScrollCtrl@@@std@@U_Kfn@?$map@VCSkinObj@@PAVCFastScrollCtrl@@U?$less@VCSkinObj@@@std@@V?$allocator@PAVCFastScrollCtrl@@@4@@3@U?$less@VCSkinObj@@@3@V?$allocator@PAVCFastScrollCtrl@@@3@@std@@IAEXPAU_Node@12@@Z 0049d6d0 f i LookAt.obj
 0001:0009c6d0       ?_Freenode@?$_Tree@VCSkinObj@@U?$pair@$$CBVCSkinObj@@PAVCSkinCtrl@@@std@@U_Kfn@?$map@VCSkinObj@@PAVCSkinCtrl@@U?$less@VCSkinObj@@@std@@V?$allocator@PAVCSkinCtrl@@@4@@3@U?$less@VCSkinObj@@@3@V?$allocator@PAVCSkinCtrl@@@3@@std@@IAEXPAU_Node@12@@Z 0049d6d0 f i LookAt.obj
 0001:0009c6d0       ?_Freenode@?$_Tree@VCSCI_Object@@U?$pair@$$CBVCSCI_Object@@PAVCNoButtonDlg@@@std@@U_Kfn@?$map@VCSCI_Object@@PAVCNoButtonDlg@@U?$less@VCSCI_Object@@@std@@V?$allocator@PAVCNoButtonDlg@@@4@@3@U?$less@VCSCI_Object@@@3@V?$allocator@PAVCNoButtonDlg@@@3@@std@@IAEXPAU_Node@12@@Z 0049d6d0 f i LookAt.obj
 0001:0009c6d0       ?_Freenode@?$list@PAVCSkinCtrl@@V?$allocator@PAVCSkinCtrl@@@std@@@std@@IAEXPAU_Node@12@@Z 0049d6d0 f i LookAt.obj
 0001:0009c6d0       ?_Freenode@?$_Tree@HU?$pair@$$CBHPAVCMailMsg@@@std@@U_Kfn@?$map@HPAVCMailMsg@@U?$less@H@std@@V?$allocator@PAVCMailMsg@@@3@@2@U?$less@H@2@V?$allocator@PAVCMailMsg@@@2@@std@@IAEXPAU_Node@12@@Z 0049d6d0 f i LookAt.obj
 0001:0009c6d0       ?_Freenode@?$list@PAVCLookAtItem@@V?$allocator@PAVCLookAtItem@@@std@@@std@@IAEXPAU_Node@12@@Z 0049d6d0 f i LookAt.obj
 0001:0009c6d0       ?_Freenode@?$_Tree@PAUHWND__@@U?$pair@QAUHWND__@@PAVCSkinWnd@@@std@@U_Kfn@?$map@PAUHWND__@@PAVCSkinWnd@@U?$less@PAUHWND__@@@std@@V?$allocator@PAVCSkinWnd@@@4@@3@U?$less@PAUHWND__@@@3@V?$allocator@PAVCSkinWnd@@@3@@std@@IAEXPAU_Node@12@@Z 0049d6d0 f i LookAt.obj
 0001:0009c6d0       ?_Freenode@?$list@PAVCVerbRequest@@V?$allocator@PAVCVerbRequest@@@std@@@std@@IAEXPAU_Node@12@@Z 0049d6d0 f i LookAt.obj
 0001:0009c6d0       ?_Freenode@?$_Tree@PAUHWND__@@U?$pair@QAUHWND__@@PAVCMouseWheelable@@@std@@U_Kfn@?$map@PAUHWND__@@PAVCMouseWheelable@@U?$less@PAUHWND__@@@std@@V?$allocator@PAVCMouseWheelable@@@4@@3@U?$less@PAUHWND__@@@3@V?$allocator@PAVCMouseWheelable@@@3@@std@@IAEXPAU_Node@12@@Z 0049d6d0 f i LookAt.obj
 0001:0009c6d0       ?_Freenode@?$_Tree@HU?$pair@$$CBHPAVCVerb@@@std@@U_Kfn@?$map@HPAVCVerb@@U?$less@H@std@@V?$allocator@PAVCVerb@@@3@@2@U?$less@H@2@V?$allocator@PAVCVerb@@@2@@std@@IAEXPAU_Node@12@@Z 0049d6d0 f i LookAt.obj
 0001:0009c6d0       ?_Freenode@?$_Tree@HU?$pair@$$CBHPAVCVerbBtn@@@std@@U_Kfn@?$map@HPAVCVerbBtn@@U?$less@H@std@@V?$allocator@PAVCVerbBtn@@@3@@2@U?$less@H@2@V?$allocator@PAVCVerbBtn@@@2@@std@@IAEXPAU_Node@12@@Z 0049d6d0 f i LookAt.obj
 0001:0009c6d0       ?_Freenode@?$_Tree@PAVCSkinWnd@@PAV1@U_Kfn@?$set@PAVCSkinWnd@@U?$less@PAVCSkinWnd@@@std@@V?$allocator@PAVCSkinWnd@@@3@@std@@U?$less@PAVCSkinWnd@@@4@V?$allocator@PAVCSkinWnd@@@4@@std@@IAEXPAU_Node@12@@Z 0049d6d0 f i LookAt.obj
 0001:0009c6d0       ?_Freenode@?$_Tree@V?$basic_string@DU?$char_traits@D@std@@V?$allocator@D@2@@std@@U?$pair@$$CBV?$basic_string@DU?$char_traits@D@std@@V?$allocator@D@2@@std@@VCPoint@@@2@U_Kfn@?$map@V?$basic_string@DU?$char_traits@D@std@@V?$allocator@D@2@@std@@VCPoint@@U?$less@V?$basic_string@DU?$char_traits@D@std@@V?$allocator@D@2@@std@@@2@V?$allocator@VCPoint@@@2@@2@U?$less@V?$basic_string@DU?$char_traits@D@std@@V?$allocator@D@2@@std@@@2@V?$allocator@VCPoint@@@2@@std@@IAEXPAU_Node@12@@Z 0049d6d0 f i LookAt.obj
 0001:0009c6d0       ?_Freenode@?$list@PAVCSkinWnd@@V?$allocator@PAVCSkinWnd@@@std@@@std@@IAEXPAU_Node@12@@Z 0049d6d0 f i LookAt.obj
 0001:0009c6d0       ?_Freenode@?$_Tree@PAVCSkinCtrl@@PAV1@U_Kfn@?$set@PAVCSkinCtrl@@U?$less@PAVCSkinCtrl@@@std@@V?$allocator@PAVCSkinCtrl@@@3@@std@@U?$less@PAVCSkinCtrl@@@4@V?$allocator@PAVCSkinCtrl@@@4@@std@@IAEXPAU_Node@12@@Z 0049d6d0 f i LookAt.obj
 0001:0009c6d0       ?_Freenode@?$list@PAVCListData@@V?$allocator@PAVCListData@@@std@@@std@@IAEXPAU_Node@12@@Z 0049d6d0 f i LookAt.obj
 0001:0009c6d0       ?_Freenode@?$list@PAVCMailMsg@@V?$allocator@PAVCMailMsg@@@std@@@std@@IAEXPAU_Node@12@@Z 0049d6d0 f i LookAt.obj
 0001:0009c6d0       ?_Freenode@?$_Tree@HU?$pair@$$CBHVCSCI_WorldObject@@@std@@U_Kfn@?$map@HVCSCI_WorldObject@@U?$less@H@std@@V?$allocator@VCSCI_WorldObject@@@3@@2@U?$less@H@2@V?$allocator@VCSCI_WorldObject@@@2@@std@@IAEXPAU_Node@12@@Z 0049d6d0 f i LookAt.obj
 0001:0009c6d0       ?_Freenode@?$_Tree@VCString@@U?$pair@$$CBVCString@@VCPerson@@@std@@U_Kfn@?$map@VCString@@VCPerson@@U?$less@VCString@@@std@@V?$allocator@VCPerson@@@4@@3@U?$less@VCString@@@3@V?$allocator@VCPerson@@@3@@std@@IAEXPAU_Node@12@@Z 0049d6d0 f i LookAt.obj
 0001:0009c6d0       ?_Freenode@?$list@PADV?$allocator@PAD@std@@@std@@IAEXPAU_Node@12@@Z 0049d6d0 f i LookAt.obj
 0001:0009c6d0       ?_Freenode@?$_Tree@HU?$pair@$$CBHPAVCMailMsgWnd@@@std@@U_Kfn@?$map@HPAVCMailMsgWnd@@U?$less@H@std@@V?$allocator@PAVCMailMsgWnd@@@3@@2@U?$less@H@2@V?$allocator@PAVCMailMsgWnd@@@2@@std@@IAEXPAU_Node@12@@Z 0049d6d0 f i LookAt.obj
 0001:0009c6f0       ?destroy@?$allocator@PAVCLookAtItem@@@std@@QAEXPAPAVCLookAtItem@@@Z 0049d6f0 f i LookAt.obj
 0001:0009c6f0       ?destroy@?$allocator@PAVCSCIObjectMethodPair@@@std@@QAEXPAPAVCSCIObjectMethodPair@@@Z 0049d6f0 f i LookAt.obj
 0001:0009c6f0       ?_Destval@?$_Tree@HU?$pair@$$CBHPAVCVerb@@@std@@U_Kfn@?$map@HPAVCVerb@@U?$less@H@std@@V?$allocator@PAVCVerb@@@3@@2@U?$less@H@2@V?$allocator@PAVCVerb@@@2@@std@@IAEXPAU?$pair@$$CBHPAVCVerb@@@2@@Z 0049d6f0 f i LookAt.obj
 0001:0009c6f0       ?destroy@?$allocator@PAVCTabBtn@@@std@@QAEXPAPAVCTabBtn@@@Z 0049d6f0 f i LookAt.obj
 0001:0009c6f0       ?destroy@?$allocator@PAVCSCIObjectMethod@@@std@@QAEXPAPAVCSCIObjectMethod@@@Z 0049d6f0 f i LookAt.obj
 0001:0009c6f0       ?destroy@?$allocator@PAVCListData@@@std@@QAEXPAPAVCListData@@@Z 0049d6f0 f i LookAt.obj
 0001:0009c6f0       ?_Destval@?$_Tree@VCSCI_WorldObject@@U?$pair@$$CBVCSCI_WorldObject@@PAVCInventoryDlg@@@std@@U_Kfn@?$map@VCSCI_WorldObject@@PAVCInventoryDlg@@U?$less@VCSCI_WorldObject@@@std@@V?$allocator@PAVCInventoryDlg@@@4@@3@U?$less@VCSCI_WorldObject@@@3@V?$allocator@PAVCInventoryDlg@@@3@@std@@IAEXPAU?$pair@$$CBVCSCI_WorldObject@@PAVCInventoryDlg@@@2@@Z 0049d6f0 f i LookAt.obj
 0001:0009c6f0       ?destroy@?$allocator@VCSCI_WorldActor@@@std@@QAEXPAVCSCI_WorldActor@@@Z 0049d6f0 f i LookAt.obj
 0001:0009c6f0       ?_Destval@?$_Tree@VCSCI_Object@@U?$pair@$$CBVCSCI_Object@@PAVCNoButtonDlg@@@std@@U_Kfn@?$map@VCSCI_Object@@PAVCNoButtonDlg@@U?$less@VCSCI_Object@@@std@@V?$allocator@PAVCNoButtonDlg@@@4@@3@U?$less@VCSCI_Object@@@3@V?$allocator@PAVCNoButtonDlg@@@3@@std@@IAEXPAU?$pair@$$CBVCSCI_Object@@PAVCNoButtonDlg@@@2@@Z 0049d6f0 f i LookAt.obj
 0001:0009c6f0       ?destroy@?$allocator@PAVCMailMsg@@@std@@QAEXPAPAVCMailMsg@@@Z 0049d6f0 f i LookAt.obj
 0001:0009c6f0       ?_Destval@?$_Tree@PAUHWND__@@U?$pair@QAUHWND__@@PAVCSkinWnd@@@std@@U_Kfn@?$map@PAUHWND__@@PAVCSkinWnd@@U?$less@PAUHWND__@@@std@@V?$allocator@PAVCSkinWnd@@@4@@3@U?$less@PAUHWND__@@@3@V?$allocator@PAVCSkinWnd@@@3@@std@@IAEXPAU?$pair@QAUHWND__@@PAVCSkinWnd@@@2@@Z 0049d6f0 f i LookAt.obj
 0001:0009c6f0       ?destroy@?$allocator@PAVCVerbBtn@@@std@@QAEXPAPAVCVerbBtn@@@Z 0049d6f0 f i LookAt.obj
 0001:0009c6f0       ?_Destval@?$_Tree@HU?$pair@$$CBHPAVCVerbBtn@@@std@@U_Kfn@?$map@HPAVCVerbBtn@@U?$less@H@std@@V?$allocator@PAVCVerbBtn@@@3@@2@U?$less@H@2@V?$allocator@PAVCVerbBtn@@@2@@std@@IAEXPAU?$pair@$$CBHPAVCVerbBtn@@@2@@Z 0049d6f0 f i LookAt.obj
 0001:0009c6f0       ?_Destval@?$_Tree@HU?$pair@$$CBHPAVCMailMsgWnd@@@std@@U_Kfn@?$map@HPAVCMailMsgWnd@@U?$less@H@std@@V?$allocator@PAVCMailMsgWnd@@@3@@2@U?$less@H@2@V?$allocator@PAVCMailMsgWnd@@@2@@std@@IAEXPAU?$pair@$$CBHPAVCMailMsgWnd@@@2@@Z 0049d6f0 f i LookAt.obj
 0001:0009c6f0       ?destroy@?$allocator@PAVCPoint@@@std@@QAEXPAPAVCPoint@@@Z 0049d6f0 f i LookAt.obj
 0001:0009c6f0       ?destroy@?$allocator@PAD@std@@QAEXPAPAD@Z 0049d6f0 f i LookAt.obj
 0001:0009c6f0       ?_Destval@?$_Tree@PAVCSkinWnd@@PAV1@U_Kfn@?$set@PAVCSkinWnd@@U?$less@PAVCSkinWnd@@@std@@V?$allocator@PAVCSkinWnd@@@3@@std@@U?$less@PAVCSkinWnd@@@4@V?$allocator@PAVCSkinWnd@@@4@@std@@IAEXPAPAVCSkinWnd@@@Z 0049d6f0 f i LookAt.obj
 0001:0009c6f0       ?destroy@?$allocator@PAVCInventoryDlg@@@std@@QAEXPAPAVCInventoryDlg@@@Z 0049d6f0 f i LookAt.obj
 0001:0009c6f0       ?destroy@?$allocator@PAVCVerbRequest@@@std@@QAEXPAPAVCVerbRequest@@@Z 0049d6f0 f i LookAt.obj
 0001:0009c6f0       ?_Destval@?$_Tree@PAVCSkinCtrl@@PAV1@U_Kfn@?$set@PAVCSkinCtrl@@U?$less@PAVCSkinCtrl@@@std@@V?$allocator@PAVCSkinCtrl@@@3@@std@@U?$less@PAVCSkinCtrl@@@4@V?$allocator@PAVCSkinCtrl@@@4@@std@@IAEXPAPAVCSkinCtrl@@@Z 0049d6f0 f i LookAt.obj
 0001:0009c6f0       ?destroy@?$allocator@PAVCSkinWnd@@@std@@QAEXPAPAVCSkinWnd@@@Z 0049d6f0 f i LookAt.obj
 0001:0009c6f0       ?destroy@?$allocator@PAVCTabEntry@@@std@@QAEXPAPAVCTabEntry@@@Z 0049d6f0 f i LookAt.obj
 0001:0009c6f0       ?_Destval@?$_Tree@HU?$pair@$$CBHPAVCMailMsg@@@std@@U_Kfn@?$map@HPAVCMailMsg@@U?$less@H@std@@V?$allocator@PAVCMailMsg@@@3@@2@U?$less@H@2@V?$allocator@PAVCMailMsg@@@2@@std@@IAEXPAU?$pair@$$CBHPAVCMailMsg@@@2@@Z 0049d6f0 f i LookAt.obj
 0001:0009c6f0       ?destroy@?$allocator@PAVCSkinBitmap@@@std@@QAEXPAPAVCSkinBitmap@@@Z 0049d6f0 f i LookAt.obj
 0001:0009c710       ?_Destroy@std@@YAXPAPAVCPoint@@@Z 0049d710 f i LookAt.obj
 0001:0009c710       ?_Destroy@std@@YAXPAU?$pair@$$CBVCSCI_WorldObject@@PAVCInventoryDlg@@@1@@Z 0049d710 f i LookAt.obj
 0001:0009c710       ?AfxTrace@@YAXPBDZZ        0049d710 f i LookAt.obj
 0001:0009c710       ?_Destroy@std@@YAXPAPAVCSkinCtrl@@@Z 0049d710 f i LookAt.obj
 0001:0009c710       ?_Destroy@std@@YAXPAPAVCSkinWnd@@@Z 0049d710 f i LookAt.obj
 0001:0009c710       ?_Destroy@std@@YAXPAU?$pair@$$CBHPAVCVerbBtn@@@1@@Z 0049d710 f i LookAt.obj
 0001:0009c710       ?_Destroy@std@@YAXPAPAVCMailMsg@@@Z 0049d710 f i LookAt.obj
 0001:0009c710       ?_Destroy@std@@YAXPAPAVCVerbRequest@@@Z 0049d710 f i LookAt.obj
 0001:0009c710       ?_Destroy@std@@YAXPAPAVCListData@@@Z 0049d710 f i LookAt.obj
 0001:0009c710       ?_Destroy@std@@YAXPAU?$pair@$$CBHPAVCVerb@@@1@@Z 0049d710 f i LookAt.obj
 0001:0009c710       ?_Destroy@std@@YAXPAU?$pair@$$CBVCSCI_Object@@PAVCNoButtonDlg@@@1@@Z 0049d710 f i LookAt.obj
 0001:0009c710       ?_Destroy@std@@YAXPAPAVCInventoryDlg@@@Z 0049d710 f i LookAt.obj
 0001:0009c710       ?_Destroy@std@@YAXPAPAVCTabEntry@@@Z 0049d710 f i LookAt.obj
 0001:0009c710       ?_Destroy@std@@YAXPAU?$pair@$$CBHPAVCMailMsg@@@1@@Z 0049d710 f i LookAt.obj
 0001:0009c710       ?_Destroy@std@@YAXPAPAVCLookAtItem@@@Z 0049d710 f i LookAt.obj
 0001:0009c710       ?_Destroy@std@@YAXPAU?$pair@$$CBHPAVCMailMsgWnd@@@1@@Z 0049d710 f i LookAt.obj
 0001:0009c710       ?_Destroy@std@@YAXPAU?$pair@QAUHWND__@@PAVCSkinWnd@@@1@@Z 0049d710 f i LookAt.obj
 0001:0009c710       ?_Destroy@std@@YAXPAPAVCSCIObjectMethodPair@@@Z 0049d710 f i LookAt.obj
 0001:0009c710       ?_Destroy@std@@YAXPAPAVCVerbBtn@@@Z 0049d710 f i LookAt.obj
 0001:0009c710       ?_Destroy@std@@YAXPAPAVCTabBtn@@@Z 0049d710 f i LookAt.obj
 0001:0009c710       ?_Destroy@std@@YAXPAVCSCI_WorldActor@@@Z 0049d710 f i LookAt.obj
 0001:0009c710       ?_Destroy@std@@YAXPAPAVCSCIObjectMethod@@@Z 0049d710 f i LookAt.obj
 0001:0009c710       ?_Destroy@std@@YAXPAPAD@Z  0049d710 f i LookAt.obj
 0001:0009c710       ??3@YAXPAX0@Z              0049d710 f i LookAt.obj
 0001:0009c710       ?_Destroy@std@@YAXPAPAVCSkinBitmap@@@Z 0049d710 f i LookAt.obj
 0001:0009c720       ?get_pIsSelf@CSCI_CharInfo@@QAEFXZ 0049d720 f i LookAt.obj
 0001:0009c740       ?get_pName@CSCI_CharInfo@@QAEFXZ 0049d740 f i LookAt.obj
 0001:0009c760       ?get_pTitle@CSCI_CharInfo@@QAE?AVStringID@@XZ 0049d760 f i LookAt.obj
 0001:0009c7a0       ?get_pProfession@CSCI_CharInfo@@QAE?AVStringID@@XZ 0049d7a0 f i LookAt.obj
 0001:0009c7e0       ?get_pBiography@CSCI_CharInfo@@QAE?AVStringID@@XZ 0049d7e0 f i LookAt.obj
 0001:0009c820       ?get_pLevel@CSCI_CharInfo@@QAEFXZ 0049d820 f i LookAt.obj
 0001:0009c840       ?get_pIntelligence@CSCI_WorldObject@@QAEFXZ 0049d840 f i LookAt.obj
 0001:0009c840       ?get_pIntelligence@CSCI_CharInfo@@QAEFXZ 0049d840 f i LookAt.obj
 0001:0009c860       ?get_pEndurance@CSCI_CharInfo@@QAEFXZ 0049d860 f i LookAt.obj
 0001:0009c860       ?get_pEndurance@CSCI_WorldObject@@QAEFXZ 0049d860 f i LookAt.obj
 0001:0009c880       ?get_pCarry@CSCI_CharInfo@@QAEFXZ 0049d880 f i LookAt.obj
 0001:0009c8a0       ?get_pCarryMax@CSCI_CharInfo@@QAEFXZ 0049d8a0 f i LookAt.obj
 0001:0009c8c0       ?get_pExperience@CSCI_CharInfo@@QAE?AVCSCI_LongInt@@XZ 0049d8c0 f i LookAt.obj
 0001:0009c8f0       ?get_pBuildPoints@CSCI_CharInfo@@QAEFXZ 0049d8f0 f i LookAt.obj
 0001:0009c910       ?get_pArmorRating@CSCI_CharInfo@@QAEFXZ 0049d910 f i LookAt.obj
 0001:0009c930       ?get_pPvp@CSCI_CharInfo@@QAEFXZ 0049d930 f i LookAt.obj
 0001:0009c950       ?set_pPvp@CSCI_CharInfo@@QAEXF@Z 0049d950 f i LookAt.obj
 0001:0009c970       ?get_pAlignment@CSCI_CharInfo@@QAEFXZ 0049d970 f i LookAt.obj
 0001:0009c990       ?get_pFace@CSCI_CharInfo@@QAEFXZ 0049d990 f i LookAt.obj
 0001:0009c9b0       ?get_pAttackStance@CSCI_CharInfo@@QAEFXZ 0049d9b0 f i LookAt.obj
 0001:0009c9d0       ?get_pAttackWidth@CSCI_CharInfo@@QAEFXZ 0049d9d0 f i LookAt.obj
 0001:0009c9f0       ?get_pAttackHeight@CSCI_CharInfo@@QAEFXZ 0049d9f0 f i LookAt.obj
 0001:0009ca10       ?get_pStand@CSCI_CharInfo@@QAEFXZ 0049da10 f i LookAt.obj
 0001:0009ca30       ?get_pArmorInfoList@CSCI_CharInfo@@QAEFXZ 0049da30 f i LookAt.obj
 0001:0009ca50       ?get_pWeaponName@CSCI_CharInfo@@QAEFXZ 0049da50 f i LookAt.obj
 0001:0009ca70       ?get_pWeaponDamageMin@CSCI_CharInfo@@QAEFXZ 0049da70 f i LookAt.obj
 0001:0009ca90       ?get_pWeaponDamageMax@CSCI_CharInfo@@QAEFXZ 0049da90 f i LookAt.obj
 0001:0009cab0       ?get_pWeaponCondition@CSCI_CharInfo@@QAEFXZ 0049dab0 f i LookAt.obj
 0001:0009cad0       ?get_pAttacksPerRound@CSCI_CharInfo@@QAEFXZ 0049dad0 f i LookAt.obj
 0001:0009caf0       ?get_pDodgesPerRound@CSCI_CharInfo@@QAEFXZ 0049daf0 f i LookAt.obj
 0001:0009cb10       ?get_pBlocksPerRound@CSCI_CharInfo@@QAEFXZ 0049db10 f i LookAt.obj
 0001:0009cb30       ?get_pAttackDamageMin@CSCI_CharInfo@@QAEFXZ 0049db30 f i LookAt.obj
 0001:0009cb50       ?get_pAttackDamageMax@CSCI_CharInfo@@QAEFXZ 0049db50 f i LookAt.obj
 0001:0009cb70       ?get_pMovementRate@CSCI_CharInfo@@QAEFXZ 0049db70 f i LookAt.obj
 0001:0009cb90       ?get_pSkillArray@CSCI_CharInfo@@QAEFXZ 0049db90 f i LookAt.obj
 0001:0009cbb0       ?get_pStatusArray@CSCI_CharInfo@@QAEFXZ 0049dbb0 f i LookAt.obj
 0001:0009cbd0       ?get_pNPCKills@CSCI_CharInfo@@QAEFXZ 0049dbd0 f i LookAt.obj
 0001:0009cbf0       ?get_pPKills@CSCI_CharInfo@@QAEFXZ 0049dbf0 f i LookAt.obj
 0001:0009cc10       ?get_pMeleeMod@CSCI_CharInfo@@QAEFXZ 0049dc10 f i LookAt.obj
 0001:0009cc30       ?get_pSpellMod@CSCI_CharInfo@@QAEFXZ 0049dc30 f i LookAt.obj
 0001:0009cc50       ?get_pOldLevel@CSCI_CharInfo@@QAEFXZ 0049dc50 f i LookAt.obj
 0001:0009cc70       ?set_pUpdateBio@CSCI_CharInfo@@QAEXF@Z 0049dc70 f i LookAt.obj
 0001:0009cc90       ?set_pUpdateTitle@CSCI_CharInfo@@QAEXF@Z 0049dc90 f i LookAt.obj
 0001:0009ccb0       ?get_pManaDrain@CSCI_CharInfo@@QAE?AVCSCI_LongInt@@XZ 0049dcb0 f i LookAt.obj
 0001:0009cce0       ?get_pMeleeArmorPierce@CSCI_CharInfo@@QAE?AVCSCI_LongInt@@XZ 0049dce0 f i LookAt.obj
 0001:0009cd10       ?get_pEvilMDM@CSCI_CharInfo@@QAE?AVCSCI_LongInt@@XZ 0049dd10 f i LookAt.obj
 0001:0009cd40       ?get_pGoodMDM@CSCI_CharInfo@@QAE?AVCSCI_LongInt@@XZ 0049dd40 f i LookAt.obj
 0001:0009cd70       ?get_pAccountType@CSCI_CharInfo@@QAE?AVStringID@@XZ 0049dd70 f i LookAt.obj
 0001:0009cdb0       ?get_pBillingDate@CSCI_CharInfo@@QAE?AVCSCI_LongInt@@XZ 0049ddb0 f i LookAt.obj
 0001:0009cde0       ?get_pAccountID@CSCI_CharInfo@@QAE?AVStringID@@XZ 0049dde0 f i LookAt.obj
 0001:0009ce20       ?get_pCredits@CSCI_CharInfo@@QAE?AVCSCI_LongInt@@XZ 0049de20 f i LookAt.obj
 0001:0009ce50       ?get_pCoppers@CSCI_CharInfo@@QAE?AVCSCI_LongInt@@XZ 0049de50 f i LookAt.obj
 0001:0009ce80       ?get_pCastResist@CSCI_CharInfo@@QAE?AVStringID@@XZ 0049de80 f i LookAt.obj
 0001:0009cec0       ?get_pSpellResist@CSCI_CharInfo@@QAE?AVStringID@@XZ 0049dec0 f i LookAt.obj
 0001:0009cf00       ?get_nRights@CSCI_CharInfo@@QAEFXZ 0049df00 f i LookAt.obj
 0001:0009cf20       ?get_pType@CSCI_ArmorInfo@@QAEFXZ 0049df20 f i LookAt.obj
 0001:0009cf40       ?get_pRating@CSCI_ArmorInfo@@QAEFXZ 0049df40 f i LookAt.obj
 0001:0009cf60       ?get_pCondition@CSCI_ArmorInfo@@QAEFXZ 0049df60 f i LookAt.obj
 0001:0009cfe9       ?FindByUniqueID@CMailMsg@@SAPAV1@H@Z 0049dfe9 f   MailMgr.obj
 0001:0009cffe       ??0CMailMsg@@QAE@XZ        0049dffe f   MailMgr.obj
 0001:0009d0e2       ??1CMailMsg@@UAE@XZ        0049e0e2 f   MailMgr.obj
 0001:0009d1aa       ?EnableSendBtn@CMailMsg@@QAEHH@Z 0049e1aa f   MailMgr.obj
 0001:0009d1ef       ?CreateInboxHdr@CMailMsg@@QAEHPAVPackedData@@@Z 0049e1ef f   MailMgr.obj
 0001:0009d31b       ?CreateInbox@CMailMsg@@QAEHVObjectID@@@Z 0049e31b f   MailMgr.obj
 0001:0009d424       ?CreateReply@CMailMsg@@QAEHAAV1@@Z 0049e424 f   MailMgr.obj
 0001:0009d61e       ?CreateForward@CMailMsg@@QAEHAAV1@@Z 0049e61e f   MailMgr.obj
 0001:0009d717       ?SetTo@CMailMsg@@QAEXV?$basic_string@DU?$char_traits@D@std@@V?$allocator@D@2@@std@@@Z 0049e717 f   MailMgr.obj
 0001:0009d76a       ?SetTo@CMailMsg@@QAEXPBD@Z 0049e76a f   MailMgr.obj
 0001:0009d787       ?SetFrom@CMailMsg@@QAEXV?$basic_string@DU?$char_traits@D@std@@V?$allocator@D@2@@std@@@Z 0049e787 f   MailMgr.obj
 0001:0009d7da       ?SetFrom@CMailMsg@@QAEXPBD@Z 0049e7da f   MailMgr.obj
 0001:0009d7f7       ?SetSubject@CMailMsg@@QAEXV?$basic_string@DU?$char_traits@D@std@@V?$allocator@D@2@@std@@@Z 0049e7f7 f   MailMgr.obj
 0001:0009d84a       ?SetSubject@CMailMsg@@QAEXPBD@Z 0049e84a f   MailMgr.obj
 0001:0009d867       ?SetReceived@CMailMsg@@QAEXV?$basic_string@DU?$char_traits@D@std@@V?$allocator@D@2@@std@@@Z 0049e867 f   MailMgr.obj
 0001:0009d8ba       ?SetReceived@CMailMsg@@QAEXPBD@Z 0049e8ba f   MailMgr.obj
 0001:0009d8d7       ?SetBody@CMailMsg@@QAEXV?$basic_string@DU?$char_traits@D@std@@V?$allocator@D@2@@std@@@Z 0049e8d7 f   MailMgr.obj
 0001:0009d92a       ?SetBody@CMailMsg@@QAEXPBD@Z 0049e92a f   MailMgr.obj
 0001:0009d947       ?GetComplete@CMailMsg@@QAEHXZ 0049e947 f   MailMgr.obj
 0001:0009d958       ?GetTo@CMailMsg@@QAEXAAV?$basic_string@DU?$char_traits@D@std@@V?$allocator@D@2@@std@@@Z 0049e958 f   MailMgr.obj
 0001:0009d975       ?GetFrom@CMailMsg@@QAEXAAV?$basic_string@DU?$char_traits@D@std@@V?$allocator@D@2@@std@@@Z 0049e975 f   MailMgr.obj
 0001:0009d992       ?GetSubject@CMailMsg@@QAEXAAV?$basic_string@DU?$char_traits@D@std@@V?$allocator@D@2@@std@@@Z 0049e992 f   MailMgr.obj
 0001:0009d9af       ?GetReceived@CMailMsg@@QAEXAAV?$basic_string@DU?$char_traits@D@std@@V?$allocator@D@2@@std@@@Z 0049e9af f   MailMgr.obj
 0001:0009d9cc       ?GetBody@CMailMsg@@QAEXAAV?$basic_string@DU?$char_traits@D@std@@V?$allocator@D@2@@std@@@Z 0049e9cc f   MailMgr.obj
 0001:0009d9e9       ?GetType@CMailMsg@@QAEHXZ  0049e9e9 f   MailMgr.obj
 0001:0009d9fa       ?GetUniqueID@CMailMsg@@QAEHXZ 0049e9fa f   MailMgr.obj
 0001:0009da0b       ??0CMailBox@@QAE@XZ        0049ea0b f   MailMgr.obj
 0001:0009dacf       ??1CMailBox@@UAE@XZ        0049eacf f   MailMgr.obj
 0001:0009dc52       ?Create@CMailBox@@QAEXXZ   0049ec52 f   MailMgr.obj
 0001:0009dd73       ?Update@CMailBox@@QAEHVObjectID@@@Z 0049ed73 f   MailMgr.obj
 0001:0009dfe8       ?Clear@CMailBox@@QAEXXZ    0049efe8 f   MailMgr.obj
 0001:0009e094       ?CanRequestMsg@CMailBox@@QAEHXZ 0049f094 f   MailMgr.obj
 0001:0009e0ad       ?RequestMsg@CMailBox@@QAEXH@Z 0049f0ad f   MailMgr.obj
 0001:0009e122       ?HandleMsg@CMailBox@@QAEXVCSCI_NetMsg@@@Z 0049f122 f   MailMgr.obj
 0001:0009ea2e       ?SendMsg@CMailBox@@QAEXH@Z 0049fa2e f   MailMgr.obj
 0001:0009ec2b       ?DeleteMsg@CMailBox@@QAEHH@Z 0049fc2b f   MailMgr.obj
 0001:0009ec53       ?ReadMsg@CMailBox@@QAEHH@Z 0049fc53 f   MailMgr.obj
 0001:0009ed63       ?AuthorMsgInProgress@CMailBox@@QAEHXZ 0049fd63 f   MailMgr.obj
 0001:0009ed80       ?AuthorMsg@CMailBox@@QAEXXZ 0049fd80 f   MailMgr.obj
 0001:0009ee6e       ?AuthorReplyMsg@CMailBox@@QAEXH@Z 0049fe6e f   MailMgr.obj
 0001:0009ef9c       ?AuthorForwardMsg@CMailBox@@QAEXH@Z 0049ff9c f   MailMgr.obj
 0001:0009f0ca       ?ShowManagerWnd@CMailBox@@QAEXXZ 004a00ca f   MailMgr.obj
 0001:0009f0f1       ?DestroyManagerWnd@CMailBox@@QAEXXZ 004a00f1 f   MailMgr.obj
 0001:0009f15c       ?SetNoLongerViewed@CMailBox@@QAEXH@Z 004a015c f   MailMgr.obj
 0001:0009f1ae       ?hasMessages@CMailBox@@QAE_NXZ 004a01ae f   MailMgr.obj
 0001:0009f1ca       ??0CMailMgrWnd@@QAE@XZ     004a01ca f   MailMgr.obj
 0001:0009f226       ?CloseSelf@CMailMgrWnd@@UAEX_N@Z 004a0226 f   MailMgr.obj
 0001:0009f249       ?HandleVerb@CMailMgrWnd@@QAEHHH@Z 004a0249 f   MailMgr.obj
 0001:0009f39a       ?ClearDialog@CMailMgrWnd@@QAEXXZ 004a039a f   MailMgr.obj
 0001:0009f451       ?Create@CMailMgrWnd@@UAEHPAVCMailBox@@@Z 004a0451 f   MailMgr.obj
 0001:0009f553       ?AddMsg@CMailMgrWnd@@QAEHAAVCMailMsg@@@Z 004a0553 f   MailMgr.obj
 0001:0009f733       ?DeleteMsg@CMailMgrWnd@@QAEHAAVCMailMsg@@@Z 004a0733 f   MailMgr.obj
 0001:0009f876       ?Show@CMailMgrWnd@@QAEXXZ  004a0876 f   MailMgr.obj
 0001:0009f88b       ?MakeSkinCtrl@CMailMgrWnd@@UAEPAVCSkinCtrl@@VCSkinObj@@@Z 004a088b f   MailMgr.obj
 0001:0009fcc2       ?FindByUniqueID@CMailMsgWnd@@SAPAV1@H@Z 004a0cc2 f   MailMgr.obj
 0001:0009fcd7       ?MapToUniqueID@CMailMsgWnd@@IAEXH@Z 004a0cd7 f   MailMgr.obj
 0001:0009fd03       ??0CMailMsgWnd@@QAE@XZ     004a0d03 f   MailMgr.obj
 0001:0009fd2f       ??1CMailMsgWnd@@UAE@XZ     004a0d2f f   MailMgr.obj
 0001:0009fda9       ??0CMailMsgReadWnd@@QAE@XZ 004a0da9 f   MailMgr.obj
 0001:0009fe36       ?CloseSelf@CMailMsgReadWnd@@UAEX_N@Z 004a0e36 f   MailMgr.obj
 0001:0009fe59       ?Create@CMailMsgReadWnd@@UAEHH@Z 004a0e59 f   MailMgr.obj
 0001:000a038d       ?MakeSkinCtrl@CMailMsgReadWnd@@UAEPAVCSkinCtrl@@VCSkinObj@@@Z 004a138d f   MailMgr.obj
 0001:000a0727       ??0CMailMsgAuthorWnd@@QAE@XZ 004a1727 f   MailMgr.obj
 0001:000a077a       ??1CMailMsgAuthorWnd@@UAE@XZ 004a177a f   MailMgr.obj
 0001:000a0796       ?Create@CMailMsgAuthorWnd@@UAEHH@Z 004a1796 f   MailMgr.obj
 0001:000a0b3c       ?MakeSkinCtrl@CMailMsgAuthorWnd@@UAEPAVCSkinCtrl@@VCSkinObj@@@Z 004a1b3c f   MailMgr.obj
 0001:000a0c90       ?Next@CMailMsgAuthorWnd@@UAEXXZ 004a1c90 f   MailMgr.obj
 0001:000a0e8c       ?EnableSendBtn@CMailMsgAuthorWnd@@QAEXH@Z 004a1e8c f   MailMgr.obj
 0001:000a0ef4       ??0CEraseBtn@@QAE@VCSkinObj@@PAVCSkinWnd@@H@Z 004a1ef4 f   MailMgr.obj
 0001:000a0f70       ?OnActivate@CEraseBtn@@UAEXFF@Z 004a1f70 f   MailMgr.obj
 0001:000a0fda       ??0CReplyBtn@@QAE@VCSkinObj@@PAVCSkinWnd@@H@Z 004a1fda f   MailMgr.obj
 0001:000a1056       ?OnActivate@CReplyBtn@@UAEXFF@Z 004a2056 f   MailMgr.obj
 0001:000a10a3       ??0CForwardBtn@@QAE@VCSkinObj@@PAVCSkinWnd@@H@Z 004a20a3 f   MailMgr.obj
 0001:000a111f       ?OnActivate@CForwardBtn@@UAEXFF@Z 004a211f f   MailMgr.obj
 0001:000a116c       ??0CDoneBtn@@QAE@VCSkinObj@@PAVCSkinWnd@@@Z 004a216c f   MailMgr.obj
 0001:000a11df       ?OnActivate@CDoneBtn@@UAEXFF@Z 004a21df f   MailMgr.obj
 0001:000a122d       ??0CArchiveBtn@@QAE@VCSkinObj@@PAVCSkinWnd@@@Z 004a222d f   MailMgr.obj
 0001:000a134b       ?OnActivate@CArchiveBtn@@UAEXFF@Z 004a234b f   MailMgr.obj
 0001:000a1427       ??0CSendBtn@@QAE@VCSkinObj@@PAVCSkinWnd@@@Z 004a2427 f   MailMgr.obj
 0001:000a149a       ?OnActivate@CSendBtn@@UAEXFF@Z 004a249a f   MailMgr.obj
 0001:000a14bb       ??0CRefreshBtn@@QAE@VCSkinObj@@PAVCSkinWnd@@@Z 004a24bb f   MailMgr.obj
 0001:000a152e       ?OnActivate@CRefreshBtn@@UAEXFF@Z 004a252e f   MailMgr.obj
